Archive member included to satisfy reference by file (symbol)

/home/totsugekitai/workspace/mywork/minos/edk2/Build/MyPkgX64/RELEASE_GCC5/X64/MdePkg/Library/BaseMemoryLib/BaseMemoryLib/OUTPUT/BaseMemoryLib.lib(SetMem.obj)
                              (--whole-archive)
/home/totsugekitai/workspace/mywork/minos/edk2/Build/MyPkgX64/RELEASE_GCC5/X64/MdePkg/Library/BaseMemoryLib/BaseMemoryLib/OUTPUT/BaseMemoryLib.lib(ScanMem64Wrapper.obj)
                              (--whole-archive)
/home/totsugekitai/workspace/mywork/minos/edk2/Build/MyPkgX64/RELEASE_GCC5/X64/MdePkg/Library/BaseMemoryLib/BaseMemoryLib/OUTPUT/BaseMemoryLib.lib(ScanMem32Wrapper.obj)
                              (--whole-archive)
/home/totsugekitai/workspace/mywork/minos/edk2/Build/MyPkgX64/RELEASE_GCC5/X64/MdePkg/Library/BaseMemoryLib/BaseMemoryLib/OUTPUT/BaseMemoryLib.lib(ScanMem16Wrapper.obj)
                              (--whole-archive)
/home/totsugekitai/workspace/mywork/minos/edk2/Build/MyPkgX64/RELEASE_GCC5/X64/MdePkg/Library/BaseMemoryLib/BaseMemoryLib/OUTPUT/BaseMemoryLib.lib(ScanMem8Wrapper.obj)
                              (--whole-archive)
/home/totsugekitai/workspace/mywork/minos/edk2/Build/MyPkgX64/RELEASE_GCC5/X64/MdePkg/Library/BaseMemoryLib/BaseMemoryLib/OUTPUT/BaseMemoryLib.lib(ZeroMemWrapper.obj)
                              (--whole-archive)
/home/totsugekitai/workspace/mywork/minos/edk2/Build/MyPkgX64/RELEASE_GCC5/X64/MdePkg/Library/BaseMemoryLib/BaseMemoryLib/OUTPUT/BaseMemoryLib.lib(CompareMemWrapper.obj)
                              (--whole-archive)
/home/totsugekitai/workspace/mywork/minos/edk2/Build/MyPkgX64/RELEASE_GCC5/X64/MdePkg/Library/BaseMemoryLib/BaseMemoryLib/OUTPUT/BaseMemoryLib.lib(SetMem64Wrapper.obj)
                              (--whole-archive)
/home/totsugekitai/workspace/mywork/minos/edk2/Build/MyPkgX64/RELEASE_GCC5/X64/MdePkg/Library/BaseMemoryLib/BaseMemoryLib/OUTPUT/BaseMemoryLib.lib(SetMem32Wrapper.obj)
                              (--whole-archive)
/home/totsugekitai/workspace/mywork/minos/edk2/Build/MyPkgX64/RELEASE_GCC5/X64/MdePkg/Library/BaseMemoryLib/BaseMemoryLib/OUTPUT/BaseMemoryLib.lib(SetMem16Wrapper.obj)
                              (--whole-archive)
/home/totsugekitai/workspace/mywork/minos/edk2/Build/MyPkgX64/RELEASE_GCC5/X64/MdePkg/Library/BaseMemoryLib/BaseMemoryLib/OUTPUT/BaseMemoryLib.lib(SetMemWrapper.obj)
                              (--whole-archive)
/home/totsugekitai/workspace/mywork/minos/edk2/Build/MyPkgX64/RELEASE_GCC5/X64/MdePkg/Library/BaseMemoryLib/BaseMemoryLib/OUTPUT/BaseMemoryLib.lib(CopyMemWrapper.obj)
                              (--whole-archive)
/home/totsugekitai/workspace/mywork/minos/edk2/Build/MyPkgX64/RELEASE_GCC5/X64/MdePkg/Library/BaseMemoryLib/BaseMemoryLib/OUTPUT/BaseMemoryLib.lib(IsZeroBufferWrapper.obj)
                              (--whole-archive)
/home/totsugekitai/workspace/mywork/minos/edk2/Build/MyPkgX64/RELEASE_GCC5/X64/MdePkg/Library/BaseMemoryLib/BaseMemoryLib/OUTPUT/BaseMemoryLib.lib(MemLibGeneric.obj)
                              (--whole-archive)
/home/totsugekitai/workspace/mywork/minos/edk2/Build/MyPkgX64/RELEASE_GCC5/X64/MdePkg/Library/BaseMemoryLib/BaseMemoryLib/OUTPUT/BaseMemoryLib.lib(MemLibGuid.obj)
                              (--whole-archive)
/home/totsugekitai/workspace/mywork/minos/edk2/Build/MyPkgX64/RELEASE_GCC5/X64/MdePkg/Library/BaseMemoryLib/BaseMemoryLib/OUTPUT/BaseMemoryLib.lib(CopyMem.obj)
                              (--whole-archive)
/home/totsugekitai/workspace/mywork/minos/edk2/Build/MyPkgX64/RELEASE_GCC5/X64/MdePkg/Library/BasePcdLibNull/BasePcdLibNull/OUTPUT/BasePcdLibNull.lib(PcdLib.obj)
                              (--whole-archive)
/home/totsugekitai/workspace/mywork/minos/edk2/Build/MyPkgX64/RELEASE_GCC5/X64/MdePkg/Library/BaseLib/BaseLib/OUTPUT/BaseLib.lib(CheckSum.obj)
                              (--whole-archive)
/home/totsugekitai/workspace/mywork/minos/edk2/Build/MyPkgX64/RELEASE_GCC5/X64/MdePkg/Library/BaseLib/BaseLib/OUTPUT/BaseLib.lib(SwitchStack.obj)
                              (--whole-archive)
/home/totsugekitai/workspace/mywork/minos/edk2/Build/MyPkgX64/RELEASE_GCC5/X64/MdePkg/Library/BaseLib/BaseLib/OUTPUT/BaseLib.lib(SwapBytes64.obj)
                              (--whole-archive)
/home/totsugekitai/workspace/mywork/minos/edk2/Build/MyPkgX64/RELEASE_GCC5/X64/MdePkg/Library/BaseLib/BaseLib/OUTPUT/BaseLib.lib(SwapBytes32.obj)
                              (--whole-archive)
/home/totsugekitai/workspace/mywork/minos/edk2/Build/MyPkgX64/RELEASE_GCC5/X64/MdePkg/Library/BaseLib/BaseLib/OUTPUT/BaseLib.lib(SwapBytes16.obj)
                              (--whole-archive)
/home/totsugekitai/workspace/mywork/minos/edk2/Build/MyPkgX64/RELEASE_GCC5/X64/MdePkg/Library/BaseLib/BaseLib/OUTPUT/BaseLib.lib(LongJump.obj)
                              (--whole-archive)
/home/totsugekitai/workspace/mywork/minos/edk2/Build/MyPkgX64/RELEASE_GCC5/X64/MdePkg/Library/BaseLib/BaseLib/OUTPUT/BaseLib.lib(SetJump.obj)
                              (--whole-archive)
/home/totsugekitai/workspace/mywork/minos/edk2/Build/MyPkgX64/RELEASE_GCC5/X64/MdePkg/Library/BaseLib/BaseLib/OUTPUT/BaseLib.lib(RShiftU64.obj)
                              (--whole-archive)
/home/totsugekitai/workspace/mywork/minos/edk2/Build/MyPkgX64/RELEASE_GCC5/X64/MdePkg/Library/BaseLib/BaseLib/OUTPUT/BaseLib.lib(RRotU64.obj)
                              (--whole-archive)
/home/totsugekitai/workspace/mywork/minos/edk2/Build/MyPkgX64/RELEASE_GCC5/X64/MdePkg/Library/BaseLib/BaseLib/OUTPUT/BaseLib.lib(RRotU32.obj)
                              (--whole-archive)
/home/totsugekitai/workspace/mywork/minos/edk2/Build/MyPkgX64/RELEASE_GCC5/X64/MdePkg/Library/BaseLib/BaseLib/OUTPUT/BaseLib.lib(MultU64x64.obj)
                              (--whole-archive)
/home/totsugekitai/workspace/mywork/minos/edk2/Build/MyPkgX64/RELEASE_GCC5/X64/MdePkg/Library/BaseLib/BaseLib/OUTPUT/BaseLib.lib(MultU64x32.obj)
                              (--whole-archive)
/home/totsugekitai/workspace/mywork/minos/edk2/Build/MyPkgX64/RELEASE_GCC5/X64/MdePkg/Library/BaseLib/BaseLib/OUTPUT/BaseLib.lib(MultS64x64.obj)
                              (--whole-archive)
/home/totsugekitai/workspace/mywork/minos/edk2/Build/MyPkgX64/RELEASE_GCC5/X64/MdePkg/Library/BaseLib/BaseLib/OUTPUT/BaseLib.lib(ModU64x32.obj)
                              (--whole-archive)
/home/totsugekitai/workspace/mywork/minos/edk2/Build/MyPkgX64/RELEASE_GCC5/X64/MdePkg/Library/BaseLib/BaseLib/OUTPUT/BaseLib.lib(LShiftU64.obj)
                              (--whole-archive)
/home/totsugekitai/workspace/mywork/minos/edk2/Build/MyPkgX64/RELEASE_GCC5/X64/MdePkg/Library/BaseLib/BaseLib/OUTPUT/BaseLib.lib(LRotU64.obj)
                              (--whole-archive)
/home/totsugekitai/workspace/mywork/minos/edk2/Build/MyPkgX64/RELEASE_GCC5/X64/MdePkg/Library/BaseLib/BaseLib/OUTPUT/BaseLib.lib(LRotU32.obj)
                              (--whole-archive)
/home/totsugekitai/workspace/mywork/minos/edk2/Build/MyPkgX64/RELEASE_GCC5/X64/MdePkg/Library/BaseLib/BaseLib/OUTPUT/BaseLib.lib(LowBitSet64.obj)
                              (--whole-archive)
/home/totsugekitai/workspace/mywork/minos/edk2/Build/MyPkgX64/RELEASE_GCC5/X64/MdePkg/Library/BaseLib/BaseLib/OUTPUT/BaseLib.lib(LowBitSet32.obj)
                              (--whole-archive)
/home/totsugekitai/workspace/mywork/minos/edk2/Build/MyPkgX64/RELEASE_GCC5/X64/MdePkg/Library/BaseLib/BaseLib/OUTPUT/BaseLib.lib(HighBitSet64.obj)
                              (--whole-archive)
/home/totsugekitai/workspace/mywork/minos/edk2/Build/MyPkgX64/RELEASE_GCC5/X64/MdePkg/Library/BaseLib/BaseLib/OUTPUT/BaseLib.lib(HighBitSet32.obj)
                              (--whole-archive)
/home/totsugekitai/workspace/mywork/minos/edk2/Build/MyPkgX64/RELEASE_GCC5/X64/MdePkg/Library/BaseLib/BaseLib/OUTPUT/BaseLib.lib(GetPowerOfTwo64.obj)
                              (--whole-archive)
/home/totsugekitai/workspace/mywork/minos/edk2/Build/MyPkgX64/RELEASE_GCC5/X64/MdePkg/Library/BaseLib/BaseLib/OUTPUT/BaseLib.lib(GetPowerOfTwo32.obj)
                              (--whole-archive)
/home/totsugekitai/workspace/mywork/minos/edk2/Build/MyPkgX64/RELEASE_GCC5/X64/MdePkg/Library/BaseLib/BaseLib/OUTPUT/BaseLib.lib(DivU64x64Remainder.obj)
                              (--whole-archive)
/home/totsugekitai/workspace/mywork/minos/edk2/Build/MyPkgX64/RELEASE_GCC5/X64/MdePkg/Library/BaseLib/BaseLib/OUTPUT/BaseLib.lib(DivU64x32Remainder.obj)
                              (--whole-archive)
/home/totsugekitai/workspace/mywork/minos/edk2/Build/MyPkgX64/RELEASE_GCC5/X64/MdePkg/Library/BaseLib/BaseLib/OUTPUT/BaseLib.lib(DivU64x32.obj)
                              (--whole-archive)
/home/totsugekitai/workspace/mywork/minos/edk2/Build/MyPkgX64/RELEASE_GCC5/X64/MdePkg/Library/BaseLib/BaseLib/OUTPUT/BaseLib.lib(DivS64x64Remainder.obj)
                              (--whole-archive)
/home/totsugekitai/workspace/mywork/minos/edk2/Build/MyPkgX64/RELEASE_GCC5/X64/MdePkg/Library/BaseLib/BaseLib/OUTPUT/BaseLib.lib(ARShiftU64.obj)
                              (--whole-archive)
/home/totsugekitai/workspace/mywork/minos/edk2/Build/MyPkgX64/RELEASE_GCC5/X64/MdePkg/Library/BaseLib/BaseLib/OUTPUT/BaseLib.lib(BitField.obj)
                              (--whole-archive)
/home/totsugekitai/workspace/mywork/minos/edk2/Build/MyPkgX64/RELEASE_GCC5/X64/MdePkg/Library/BaseLib/BaseLib/OUTPUT/BaseLib.lib(CpuDeadLoop.obj)
                              (--whole-archive)
/home/totsugekitai/workspace/mywork/minos/edk2/Build/MyPkgX64/RELEASE_GCC5/X64/MdePkg/Library/BaseLib/BaseLib/OUTPUT/BaseLib.lib(Cpu.obj)
                              (--whole-archive)
/home/totsugekitai/workspace/mywork/minos/edk2/Build/MyPkgX64/RELEASE_GCC5/X64/MdePkg/Library/BaseLib/BaseLib/OUTPUT/BaseLib.lib(LinkedList.obj)
                              (--whole-archive)
/home/totsugekitai/workspace/mywork/minos/edk2/Build/MyPkgX64/RELEASE_GCC5/X64/MdePkg/Library/BaseLib/BaseLib/OUTPUT/BaseLib.lib(SafeString.obj)
                              (--whole-archive)
/home/totsugekitai/workspace/mywork/minos/edk2/Build/MyPkgX64/RELEASE_GCC5/X64/MdePkg/Library/BaseLib/BaseLib/OUTPUT/BaseLib.lib(String.obj)
                              (--whole-archive)
/home/totsugekitai/workspace/mywork/minos/edk2/Build/MyPkgX64/RELEASE_GCC5/X64/MdePkg/Library/BaseLib/BaseLib/OUTPUT/BaseLib.lib(FilePaths.obj)
                              (--whole-archive)
/home/totsugekitai/workspace/mywork/minos/edk2/Build/MyPkgX64/RELEASE_GCC5/X64/MdePkg/Library/BaseLib/BaseLib/OUTPUT/BaseLib.lib(Thunk16.obj)
                              (--whole-archive)
/home/totsugekitai/workspace/mywork/minos/edk2/Build/MyPkgX64/RELEASE_GCC5/X64/MdePkg/Library/BaseLib/BaseLib/OUTPUT/BaseLib.lib(CpuIdEx.obj)
                              (--whole-archive)
/home/totsugekitai/workspace/mywork/minos/edk2/Build/MyPkgX64/RELEASE_GCC5/X64/MdePkg/Library/BaseLib/BaseLib/OUTPUT/BaseLib.lib(CpuId.obj)
                              (--whole-archive)
/home/totsugekitai/workspace/mywork/minos/edk2/Build/MyPkgX64/RELEASE_GCC5/X64/MdePkg/Library/BaseLib/BaseLib/OUTPUT/BaseLib.lib(LongJump.obj)
                              (--whole-archive)
/home/totsugekitai/workspace/mywork/minos/edk2/Build/MyPkgX64/RELEASE_GCC5/X64/MdePkg/Library/BaseLib/BaseLib/OUTPUT/BaseLib.lib(SetJump.obj)
                              (--whole-archive)
/home/totsugekitai/workspace/mywork/minos/edk2/Build/MyPkgX64/RELEASE_GCC5/X64/MdePkg/Library/BaseLib/BaseLib/OUTPUT/BaseLib.lib(SwitchStack.obj)
                              (--whole-archive)
/home/totsugekitai/workspace/mywork/minos/edk2/Build/MyPkgX64/RELEASE_GCC5/X64/MdePkg/Library/BaseLib/BaseLib/OUTPUT/BaseLib.lib(EnableCache.obj)
                              (--whole-archive)
/home/totsugekitai/workspace/mywork/minos/edk2/Build/MyPkgX64/RELEASE_GCC5/X64/MdePkg/Library/BaseLib/BaseLib/OUTPUT/BaseLib.lib(DisableCache.obj)
                              (--whole-archive)
/home/totsugekitai/workspace/mywork/minos/edk2/Build/MyPkgX64/RELEASE_GCC5/X64/MdePkg/Library/BaseLib/BaseLib/OUTPUT/BaseLib.lib(WriteTr.obj)
                              (--whole-archive)
/home/totsugekitai/workspace/mywork/minos/edk2/Build/MyPkgX64/RELEASE_GCC5/X64/MdePkg/Library/BaseLib/BaseLib/OUTPUT/BaseLib.lib(Lfence.obj)
                              (--whole-archive)
/home/totsugekitai/workspace/mywork/minos/edk2/Build/MyPkgX64/RELEASE_GCC5/X64/MdePkg/Library/BaseLib/BaseLib/OUTPUT/BaseLib.lib(Non-existing.obj)
                              (--whole-archive)
/home/totsugekitai/workspace/mywork/minos/edk2/Build/MyPkgX64/RELEASE_GCC5/X64/MdePkg/Library/BaseLib/BaseLib/OUTPUT/BaseLib.lib(Math64.obj)
                              (--whole-archive)
/home/totsugekitai/workspace/mywork/minos/edk2/Build/MyPkgX64/RELEASE_GCC5/X64/MdePkg/Library/BaseLib/BaseLib/OUTPUT/BaseLib.lib(Unaligned.obj)
                              (--whole-archive)
/home/totsugekitai/workspace/mywork/minos/edk2/Build/MyPkgX64/RELEASE_GCC5/X64/MdePkg/Library/BaseLib/BaseLib/OUTPUT/BaseLib.lib(X86WriteIdtr.obj)
                              (--whole-archive)
/home/totsugekitai/workspace/mywork/minos/edk2/Build/MyPkgX64/RELEASE_GCC5/X64/MdePkg/Library/BaseLib/BaseLib/OUTPUT/BaseLib.lib(X86WriteGdtr.obj)
                              (--whole-archive)
/home/totsugekitai/workspace/mywork/minos/edk2/Build/MyPkgX64/RELEASE_GCC5/X64/MdePkg/Library/BaseLib/BaseLib/OUTPUT/BaseLib.lib(X86Thunk.obj)
                              (--whole-archive)
/home/totsugekitai/workspace/mywork/minos/edk2/Build/MyPkgX64/RELEASE_GCC5/X64/MdePkg/Library/BaseLib/BaseLib/OUTPUT/BaseLib.lib(X86ReadIdtr.obj)
                              (--whole-archive)
/home/totsugekitai/workspace/mywork/minos/edk2/Build/MyPkgX64/RELEASE_GCC5/X64/MdePkg/Library/BaseLib/BaseLib/OUTPUT/BaseLib.lib(X86ReadGdtr.obj)
                              (--whole-archive)
/home/totsugekitai/workspace/mywork/minos/edk2/Build/MyPkgX64/RELEASE_GCC5/X64/MdePkg/Library/BaseLib/BaseLib/OUTPUT/BaseLib.lib(X86Msr.obj)
                              (--whole-archive)
/home/totsugekitai/workspace/mywork/minos/edk2/Build/MyPkgX64/RELEASE_GCC5/X64/MdePkg/Library/BaseLib/BaseLib/OUTPUT/BaseLib.lib(X86GetInterruptState.obj)
                              (--whole-archive)
/home/totsugekitai/workspace/mywork/minos/edk2/Build/MyPkgX64/RELEASE_GCC5/X64/MdePkg/Library/BaseLib/BaseLib/OUTPUT/BaseLib.lib(X86FxSave.obj)
                              (--whole-archive)
/home/totsugekitai/workspace/mywork/minos/edk2/Build/MyPkgX64/RELEASE_GCC5/X64/MdePkg/Library/BaseLib/BaseLib/OUTPUT/BaseLib.lib(X86FxRestore.obj)
                              (--whole-archive)
/home/totsugekitai/workspace/mywork/minos/edk2/Build/MyPkgX64/RELEASE_GCC5/X64/MdePkg/Library/BaseLib/BaseLib/OUTPUT/BaseLib.lib(X86EnablePaging64.obj)
                              (--whole-archive)
/home/totsugekitai/workspace/mywork/minos/edk2/Build/MyPkgX64/RELEASE_GCC5/X64/MdePkg/Library/BaseLib/BaseLib/OUTPUT/BaseLib.lib(X86EnablePaging32.obj)
                              (--whole-archive)
/home/totsugekitai/workspace/mywork/minos/edk2/Build/MyPkgX64/RELEASE_GCC5/X64/MdePkg/Library/BaseLib/BaseLib/OUTPUT/BaseLib.lib(X86DisablePaging64.obj)
                              (--whole-archive)
/home/totsugekitai/workspace/mywork/minos/edk2/Build/MyPkgX64/RELEASE_GCC5/X64/MdePkg/Library/BaseLib/BaseLib/OUTPUT/BaseLib.lib(X86DisablePaging32.obj)
                              (--whole-archive)
/home/totsugekitai/workspace/mywork/minos/edk2/Build/MyPkgX64/RELEASE_GCC5/X64/MdePkg/Library/BaseLib/BaseLib/OUTPUT/BaseLib.lib(X86RdRand.obj)
                              (--whole-archive)
/home/totsugekitai/workspace/mywork/minos/edk2/Build/MyPkgX64/RELEASE_GCC5/X64/MdePkg/Library/BaseLib/BaseLib/OUTPUT/BaseLib.lib(X86PatchInstruction.obj)
                              (--whole-archive)
/home/totsugekitai/workspace/mywork/minos/edk2/Build/MyPkgX64/RELEASE_GCC5/X64/MdePkg/Library/BaseLib/BaseLib/OUTPUT/BaseLib.lib(X86SpeculationBarrier.obj)
                              (--whole-archive)
/home/totsugekitai/workspace/mywork/minos/edk2/Build/MyPkgX64/RELEASE_GCC5/X64/MdePkg/Library/BaseLib/BaseLib/OUTPUT/BaseLib.lib(GccInline.obj)
                              (--whole-archive)
/home/totsugekitai/workspace/mywork/minos/edk2/Build/MyPkgX64/RELEASE_GCC5/X64/MdePkg/Library/BaseLib/BaseLib/OUTPUT/BaseLib.lib(EnableDisableInterrupts.obj)
                              (--whole-archive)
/home/totsugekitai/workspace/mywork/minos/edk2/Build/MyPkgX64/RELEASE_GCC5/X64/MdePkg/Library/BaseLib/BaseLib/OUTPUT/BaseLib.lib(DisablePaging64.obj)
                              (--whole-archive)
/home/totsugekitai/workspace/mywork/minos/edk2/Build/MyPkgX64/RELEASE_GCC5/X64/MdePkg/Library/BaseLib/BaseLib/OUTPUT/BaseLib.lib(RdRand.obj)
                              (--whole-archive)
/home/totsugekitai/workspace/mywork/minos/edk2/Build/MyPkgX64/RELEASE_GCC5/X64/MdePkg/Library/BaseLib/BaseLib/OUTPUT/BaseLib.lib(ChkStkGcc.obj)
                              (--whole-archive)
/home/totsugekitai/workspace/mywork/minos/edk2/Build/MyPkgX64/RELEASE_GCC5/X64/MdePkg/Library/BaseDebugLibNull/BaseDebugLibNull/OUTPUT/BaseDebugLibNull.lib(DebugLib.obj)
                              (--whole-archive)
/home/totsugekitai/workspace/mywork/minos/edk2/Build/MyPkgX64/RELEASE_GCC5/X64/MdePkg/Library/UefiBootServicesTableLib/UefiBootServicesTableLib/OUTPUT/UefiBootServicesTableLib.lib(UefiBootServicesTableLib.obj)
                              (--whole-archive)
/home/totsugekitai/workspace/mywork/minos/edk2/Build/MyPkgX64/RELEASE_GCC5/X64/MdePkg/Library/UefiMemoryAllocationLib/UefiMemoryAllocationLib/OUTPUT/UefiMemoryAllocationLib.lib(MemoryAllocationLib.obj)
                              (--whole-archive)
/home/totsugekitai/workspace/mywork/minos/edk2/Build/MyPkgX64/RELEASE_GCC5/X64/MdePkg/Library/BasePrintLib/BasePrintLib/OUTPUT/BasePrintLib.lib(PrintLibInternal.obj)
                              (--whole-archive)
/home/totsugekitai/workspace/mywork/minos/edk2/Build/MyPkgX64/RELEASE_GCC5/X64/MdePkg/Library/BasePrintLib/BasePrintLib/OUTPUT/BasePrintLib.lib(PrintLib.obj)
                              (--whole-archive)
/home/totsugekitai/workspace/mywork/minos/edk2/Build/MyPkgX64/RELEASE_GCC5/X64/MdePkg/Library/UefiRuntimeServicesTableLib/UefiRuntimeServicesTableLib/OUTPUT/UefiRuntimeServicesTableLib.lib(UefiRuntimeServicesTableLib.obj)
                              (--whole-archive)
/home/totsugekitai/workspace/mywork/minos/edk2/Build/MyPkgX64/RELEASE_GCC5/X64/MdePkg/Library/UefiDevicePathLib/UefiDevicePathLib/OUTPUT/UefiDevicePathLib.lib(DevicePathUtilities.obj)
                              (--whole-archive)
/home/totsugekitai/workspace/mywork/minos/edk2/Build/MyPkgX64/RELEASE_GCC5/X64/MdePkg/Library/UefiDevicePathLib/UefiDevicePathLib/OUTPUT/UefiDevicePathLib.lib(DevicePathToText.obj)
                              (--whole-archive)
/home/totsugekitai/workspace/mywork/minos/edk2/Build/MyPkgX64/RELEASE_GCC5/X64/MdePkg/Library/UefiDevicePathLib/UefiDevicePathLib/OUTPUT/UefiDevicePathLib.lib(DevicePathFromText.obj)
                              (--whole-archive)
/home/totsugekitai/workspace/mywork/minos/edk2/Build/MyPkgX64/RELEASE_GCC5/X64/MdePkg/Library/UefiDevicePathLib/UefiDevicePathLib/OUTPUT/UefiDevicePathLib.lib(UefiDevicePathLib.obj)
                              (--whole-archive)
/home/totsugekitai/workspace/mywork/minos/edk2/Build/MyPkgX64/RELEASE_GCC5/X64/MdePkg/Library/UefiLib/UefiLib/OUTPUT/UefiLib.lib(UefiLibPrint.obj)
                              (--whole-archive)
/home/totsugekitai/workspace/mywork/minos/edk2/Build/MyPkgX64/RELEASE_GCC5/X64/MdePkg/Library/UefiLib/UefiLib/OUTPUT/UefiLib.lib(UefiNotTiano.obj)
                              (--whole-archive)
/home/totsugekitai/workspace/mywork/minos/edk2/Build/MyPkgX64/RELEASE_GCC5/X64/MdePkg/Library/UefiLib/UefiLib/OUTPUT/UefiLib.lib(UefiDriverModel.obj)
                              (--whole-archive)
/home/totsugekitai/workspace/mywork/minos/edk2/Build/MyPkgX64/RELEASE_GCC5/X64/MdePkg/Library/UefiLib/UefiLib/OUTPUT/UefiLib.lib(Console.obj)
                              (--whole-archive)
/home/totsugekitai/workspace/mywork/minos/edk2/Build/MyPkgX64/RELEASE_GCC5/X64/MdePkg/Library/UefiLib/UefiLib/OUTPUT/UefiLib.lib(UefiLib.obj)
                              (--whole-archive)
/home/totsugekitai/workspace/mywork/minos/edk2/Build/MyPkgX64/RELEASE_GCC5/X64/MdePkg/Library/UefiLib/UefiLib/OUTPUT/UefiLib.lib(Acpi.obj)
                              (--whole-archive)
/home/totsugekitai/workspace/mywork/minos/edk2/Build/MyPkgX64/RELEASE_GCC5/X64/MdePkg/Library/UefiApplicationEntryPoint/UefiApplicationEntryPoint/OUTPUT/UefiApplicationEntryPoint.lib(ApplicationEntryPoint.obj)
                              (--whole-archive)
/home/totsugekitai/workspace/mywork/minos/edk2/Build/MyPkgX64/RELEASE_GCC5/X64/AppPkg/Applications/Hello/Hello/OUTPUT/Hello.lib(Hello.obj)
                              (--whole-archive)
/home/totsugekitai/workspace/mywork/minos/edk2/Build/MyPkgX64/RELEASE_GCC5/X64/AppPkg/Applications/Hello/Hello/OUTPUT/Hello.lib(AutoGen.obj)
                              (--whole-archive)

破棄された入力セクション

 .comment       0x0000000000000000      0x678 /tmp/ccBV89iPdebugobj
 .note.GNU-stack
                0x0000000000000000        0x0 /tmp/ccBV89iPdebugobj
 .text          0x0000000000000000        0x0 /tmp/cc9rOBO3.ltrans0.ltrans.o
 .data          0x0000000000000000        0x0 /tmp/cc9rOBO3.ltrans0.ltrans.o
 .bss           0x0000000000000000        0x0 /tmp/cc9rOBO3.ltrans0.ltrans.o
 .text.InternalAssertJumpBuffer
                0x0000000000000000        0x1 /tmp/cc9rOBO3.ltrans0.ltrans.o
 .rodata._gPcd_FixedAtBuild_PcdControlFlowEnforcementPropertyMask
                0x0000000000000000        0x4 /tmp/cc9rOBO3.ltrans0.ltrans.o
 .comment       0x0000000000000000       0x12 /tmp/cc9rOBO3.ltrans0.ltrans.o
 .note.GNU-stack
                0x0000000000000000        0x0 /tmp/cc9rOBO3.ltrans0.ltrans.o
 .text          0x0000000000000000      0x204 /home/totsugekitai/workspace/mywork/minos/edk2/Build/MyPkgX64/RELEASE_GCC5/X64/MdePkg/Library/BaseLib/BaseLib/OUTPUT/BaseLib.lib(Thunk16.obj)
 .data          0x0000000000000000        0xa /home/totsugekitai/workspace/mywork/minos/edk2/Build/MyPkgX64/RELEASE_GCC5/X64/MdePkg/Library/BaseLib/BaseLib/OUTPUT/BaseLib.lib(Thunk16.obj)
 .text          0x0000000000000000       0x2f /home/totsugekitai/workspace/mywork/minos/edk2/Build/MyPkgX64/RELEASE_GCC5/X64/MdePkg/Library/BaseLib/BaseLib/OUTPUT/BaseLib.lib(CpuIdEx.obj)
 .text          0x0000000000000000       0x27 /home/totsugekitai/workspace/mywork/minos/edk2/Build/MyPkgX64/RELEASE_GCC5/X64/MdePkg/Library/BaseLib/BaseLib/OUTPUT/BaseLib.lib(CpuId.obj)
 .text          0x0000000000000000       0xac /home/totsugekitai/workspace/mywork/minos/edk2/Build/MyPkgX64/RELEASE_GCC5/X64/MdePkg/Library/BaseLib/BaseLib/OUTPUT/BaseLib.lib(LongJump.obj)
 .text          0x0000000000000000       0xc2 /home/totsugekitai/workspace/mywork/minos/edk2/Build/MyPkgX64/RELEASE_GCC5/X64/MdePkg/Library/BaseLib/BaseLib/OUTPUT/BaseLib.lib(SetJump.obj)
 .text          0x0000000000000000        0xf /home/totsugekitai/workspace/mywork/minos/edk2/Build/MyPkgX64/RELEASE_GCC5/X64/MdePkg/Library/BaseLib/BaseLib/OUTPUT/BaseLib.lib(SwitchStack.obj)
 .text          0x0000000000000000       0x13 /home/totsugekitai/workspace/mywork/minos/edk2/Build/MyPkgX64/RELEASE_GCC5/X64/MdePkg/Library/BaseLib/BaseLib/OUTPUT/BaseLib.lib(EnableCache.obj)
 .text          0x0000000000000000       0x13 /home/totsugekitai/workspace/mywork/minos/edk2/Build/MyPkgX64/RELEASE_GCC5/X64/MdePkg/Library/BaseLib/BaseLib/OUTPUT/BaseLib.lib(DisableCache.obj)
 .text          0x0000000000000000        0x6 /home/totsugekitai/workspace/mywork/minos/edk2/Build/MyPkgX64/RELEASE_GCC5/X64/MdePkg/Library/BaseLib/BaseLib/OUTPUT/BaseLib.lib(WriteTr.obj)
 .text          0x0000000000000000        0x4 /home/totsugekitai/workspace/mywork/minos/edk2/Build/MyPkgX64/RELEASE_GCC5/X64/MdePkg/Library/BaseLib/BaseLib/OUTPUT/BaseLib.lib(Lfence.obj)
 .text          0x0000000000000000        0x3 /home/totsugekitai/workspace/mywork/minos/edk2/Build/MyPkgX64/RELEASE_GCC5/X64/MdePkg/Library/BaseLib/BaseLib/OUTPUT/BaseLib.lib(EnableDisableInterrupts.obj)
 .text          0x0000000000000000       0x61 /home/totsugekitai/workspace/mywork/minos/edk2/Build/MyPkgX64/RELEASE_GCC5/X64/MdePkg/Library/BaseLib/BaseLib/OUTPUT/BaseLib.lib(DisablePaging64.obj)
 .text          0x0000000000000000       0x36 /home/totsugekitai/workspace/mywork/minos/edk2/Build/MyPkgX64/RELEASE_GCC5/X64/MdePkg/Library/BaseLib/BaseLib/OUTPUT/BaseLib.lib(RdRand.obj)

メモリ設定

名前           原点             長さ             属性
*default*        0x0000000000000000 0xffffffffffffffff

リンカスクリプトおよびメモリマップ

LOAD /tmp/ccBV89iPdebugobj
LOAD /tmp/cc9rOBO3.ltrans0.ltrans.o
START GROUP
LOAD /home/totsugekitai/workspace/mywork/minos/edk2/Build/MyPkgX64/RELEASE_GCC5/X64/MdePkg/Library/BaseMemoryLib/BaseMemoryLib/OUTPUT/BaseMemoryLib.lib
LOAD /home/totsugekitai/workspace/mywork/minos/edk2/Build/MyPkgX64/RELEASE_GCC5/X64/MdePkg/Library/BasePcdLibNull/BasePcdLibNull/OUTPUT/BasePcdLibNull.lib
LOAD /home/totsugekitai/workspace/mywork/minos/edk2/Build/MyPkgX64/RELEASE_GCC5/X64/MdePkg/Library/BaseLib/BaseLib/OUTPUT/BaseLib.lib
LOAD /home/totsugekitai/workspace/mywork/minos/edk2/Build/MyPkgX64/RELEASE_GCC5/X64/MdePkg/Library/BaseDebugLibNull/BaseDebugLibNull/OUTPUT/BaseDebugLibNull.lib
LOAD /home/totsugekitai/workspace/mywork/minos/edk2/Build/MyPkgX64/RELEASE_GCC5/X64/MdePkg/Library/UefiBootServicesTableLib/UefiBootServicesTableLib/OUTPUT/UefiBootServicesTableLib.lib
LOAD /home/totsugekitai/workspace/mywork/minos/edk2/Build/MyPkgX64/RELEASE_GCC5/X64/MdePkg/Library/UefiMemoryAllocationLib/UefiMemoryAllocationLib/OUTPUT/UefiMemoryAllocationLib.lib
LOAD /home/totsugekitai/workspace/mywork/minos/edk2/Build/MyPkgX64/RELEASE_GCC5/X64/MdePkg/Library/BasePrintLib/BasePrintLib/OUTPUT/BasePrintLib.lib
LOAD /home/totsugekitai/workspace/mywork/minos/edk2/Build/MyPkgX64/RELEASE_GCC5/X64/MdePkg/Library/UefiRuntimeServicesTableLib/UefiRuntimeServicesTableLib/OUTPUT/UefiRuntimeServicesTableLib.lib
LOAD /home/totsugekitai/workspace/mywork/minos/edk2/Build/MyPkgX64/RELEASE_GCC5/X64/MdePkg/Library/UefiDevicePathLib/UefiDevicePathLib/OUTPUT/UefiDevicePathLib.lib
LOAD /home/totsugekitai/workspace/mywork/minos/edk2/Build/MyPkgX64/RELEASE_GCC5/X64/MdePkg/Library/UefiLib/UefiLib/OUTPUT/UefiLib.lib
LOAD /home/totsugekitai/workspace/mywork/minos/edk2/Build/MyPkgX64/RELEASE_GCC5/X64/MdePkg/Library/UefiApplicationEntryPoint/UefiApplicationEntryPoint/OUTPUT/UefiApplicationEntryPoint.lib
LOAD /home/totsugekitai/workspace/mywork/minos/edk2/Build/MyPkgX64/RELEASE_GCC5/X64/AppPkg/Applications/Hello/Hello/OUTPUT/Hello.lib
END GROUP
                0x0000000000000228                PECOFF_HEADER_SIZE = 0x228
                0x0000000000000228                . = PECOFF_HEADER_SIZE

.text           0x0000000000000240     0x1154
 *(.text .text.* .stub .gnu.linkonce.t.*)
 .text.BasePrintLibFillBuffer
                0x0000000000000240       0x28 /tmp/cc9rOBO3.ltrans0.ltrans.o
 .text.AsciiStrnLenS
                0x0000000000000268       0x24 /tmp/cc9rOBO3.ltrans0.ltrans.o
 .text.StrnLenS
                0x000000000000028c       0x25 /tmp/cc9rOBO3.ltrans0.ltrans.o
 .text.BasePrintLibSPrint.constprop.3
                0x00000000000002b1       0xb8 /tmp/cc9rOBO3.ltrans0.ltrans.o
 .text.BasePrintLibSPrintMarker.constprop.4
                0x0000000000000369      0xbc5 /tmp/cc9rOBO3.ltrans0.ltrans.o
 .text.Print.constprop.0
                0x0000000000000f2e      0x159 /tmp/cc9rOBO3.ltrans0.ltrans.o
 .text._ModuleEntryPoint
                0x0000000000001087       0x3b /tmp/cc9rOBO3.ltrans0.ltrans.o
                0x0000000000001087                _ModuleEntryPoint
 *(.rodata .rodata.* .gnu.linkonce.r.*)
 .rodata.BasePrintLibSPrintMarker.constprop.4.str1.1
                0x00000000000010c2       0x7b /tmp/cc9rOBO3.ltrans0.ltrans.o
 *fill*         0x000000000000113d        0x1 
 .rodata.Print.constprop.0.str2.2
                0x000000000000113e       0x1e /tmp/cc9rOBO3.ltrans0.ltrans.o
 *fill*         0x000000000000115c        0x4 
 .rodata.mHexStr
                0x0000000000001160       0x10 /tmp/cc9rOBO3.ltrans0.ltrans.o
 .rodata.str1.1
                0x0000000000001170      0x224 /tmp/cc9rOBO3.ltrans0.ltrans.o
                                        0x235 (緩和前のサイズ)
 *(.got .got.*)
 .got           0x0000000000001394        0x0 SetMem.obj (symbol from plugin)
 .got.plt       0x0000000000001394        0x0 SetMem.obj (symbol from plugin)
 *:AutoGen.obj(.data.g*Guid)

.plt            0x00000000000013a0        0x0
 .plt           0x00000000000013a0        0x0 SetMem.obj (symbol from plugin)

.plt.got        0x0000000000001398        0x0
 .plt.got       0x0000000000001398        0x0 SetMem.obj (symbol from plugin)

.data           0x00000000000013c0      0x158
 *(.data .data.* .gnu.linkonce.d.*)
 .data.rel.ro.local.mStatusString
                0x00000000000013c0      0x138 /tmp/cc9rOBO3.ltrans0.ltrans.o
 .data.rel.ro   0x00000000000014f8        0x0 SetMem.obj (symbol from plugin)
 *(.bss .bss.*)
 .bss.gImageHandle
                0x00000000000014f8        0x8 /tmp/cc9rOBO3.ltrans0.ltrans.o
 .bss.gRT       0x0000000000001500        0x8 /tmp/cc9rOBO3.ltrans0.ltrans.o
 .bss.gBS       0x0000000000001508        0x8 /tmp/cc9rOBO3.ltrans0.ltrans.o
 .bss.gST       0x0000000000001510        0x8 /tmp/cc9rOBO3.ltrans0.ltrans.o

.eh_frame       0x0000000000001540        0x0
 *(.eh_frame)
 .eh_frame      0x0000000000001540        0x0 SetMem.obj (symbol from plugin)
 .eh_frame      0x0000000000001540        0x0 SetMem.obj (symbol from plugin)

.dynbss         0x0000000000001540        0x0
 .dynbss        0x0000000000001540        0x0 SetMem.obj (symbol from plugin)

.gnu.version_d  0x0000000000001540        0x0
 .gnu.version_d
                0x0000000000001540        0x0 SetMem.obj (symbol from plugin)

.gnu.version    0x0000000000001540        0x0
 .gnu.version   0x0000000000001540        0x0 SetMem.obj (symbol from plugin)

.gnu.version_r  0x0000000000001540        0x0
 .gnu.version_r
                0x0000000000001540        0x0 SetMem.obj (symbol from plugin)

.rela           0x0000000000001540      0x3a8
 *(.rela .rela.*)
 .rela.plt      0x0000000000001540        0x0 SetMem.obj (symbol from plugin)
 .rela.got      0x0000000000001540        0x0 SetMem.obj (symbol from plugin)
 .rela.bss      0x0000000000001540        0x0 SetMem.obj (symbol from plugin)
 .rela.data.rel.ro
                0x0000000000001540        0x0 SetMem.obj (symbol from plugin)
 .rela.ifunc    0x0000000000001540        0x0 SetMem.obj (symbol from plugin)
 .rela.data.rel.ro.local.mStatusString
                0x0000000000001540      0x3a8 SetMem.obj (symbol from plugin)

.hii
 *(.hii)

.build-id       0x00000000000018e8       0x24
 *(.note.gnu.build-id)
 .note.gnu.build-id
                0x00000000000018e8       0x24 SetMem.obj (symbol from plugin)

/DISCARD/
 *(.note.GNU-stack)
 *(.gnu_debuglink)
 *(.interp)
 *(.dynsym)
 *(.dynstr)
 *(.dynamic)
 *(.hash .gnu.hash)
 *(.comment)
 *(COMMON)
OUTPUT(/home/totsugekitai/workspace/mywork/minos/edk2/Build/MyPkgX64/RELEASE_GCC5/X64/AppPkg/Applications/Hello/Hello/DEBUG/Hello.dll elf64-x86-64)

.debug_info     0x0000000000000000    0x35222
 .debug_info    0x0000000000000000    0x3439b /tmp/ccBV89iPdebugobj
                0x0000000000000000                SetMem.c.01571cf8
                0x000000000000028d                ScanMem64Wrapper.c.592340ad
                0x00000000000004d0                ScanMem32Wrapper.c.d08e445b
                0x0000000000000713                ScanMem16Wrapper.c.6bac4402
                0x0000000000000956                ScanMem8Wrapper.c.bd6dde61
                0x0000000000000bca                ZeroMemWrapper.c.33242e86
                0x0000000000000df6                CompareMemWrapper.c.d2a072d4
                0x000000000000104f                SetMem64Wrapper.c.01deee22
                0x0000000000001287                SetMem32Wrapper.c.1433f6a7
                0x00000000000014bf                SetMem16Wrapper.c.99997343
                0x00000000000016f7                SetMemWrapper.c.c96087a5
                0x0000000000001964                CopyMemWrapper.c.37159588
                0x0000000000001ba7                IsZeroBufferWrapper.c.00bfb5d7
                0x0000000000001ddc                MemLibGeneric.c.170eca3b
                0x000000000000227d                MemLibGuid.c.553b3ef0
                0x0000000000002594                CopyMem.c.7907aeaf
                0x0000000000002861                PcdLib.c.583b9267
                0x000000000000349c                CheckSum.c.7f5a30f7
                0x00000000000039a5                SwitchStack.c.7244b68d
                0x0000000000003c8f                SwapBytes64.c.ab190c88
                0x0000000000003f04                SwapBytes32.c.bb4f9940
                0x0000000000004191                SwapBytes16.c.0eb34b4c
                0x0000000000004406                LongJump.c.73675136
                0x0000000000004769                SetJump.c.b0cc294d
                0x0000000000004ac0                RShiftU64.c.f2d9b785
                0x0000000000004d4d                RRotU64.c.7092e946
                0x0000000000004fda                RRotU32.c.11d4624c
                0x0000000000005267                MultU64x64.c.f48c2207
                0x00000000000054f4                MultU64x32.c.b9a7971f
                0x0000000000005781                MultS64x64.c.b26eb923
                0x0000000000005a0e                ModU64x32.c.eb877e49
                0x0000000000005c8f                LShiftU64.c.f83219e8
                0x0000000000005f1c                LRotU64.c.18420251
                0x00000000000061a9                LRotU32.c.448fc0c8
                0x0000000000006436                LowBitSet64.c.252806a8
                0x00000000000066cf                LowBitSet32.c.7d24f0bb
                0x0000000000006968                HighBitSet64.c.c229e229
                0x0000000000006bf5                HighBitSet32.c.569b5b65
                0x0000000000006e9a                GetPowerOfTwo64.c.1882e630
                0x000000000000711b                GetPowerOfTwo32.c.d27b6143
                0x0000000000007390                DivU64x64Remainder.c.ef69c21b
                0x0000000000007627                DivU64x32Remainder.c.5c17cc7d
                0x00000000000078be                DivU64x32.c.5f693e94
                0x0000000000007b3f                DivS64x64Remainder.c.1da3937b
                0x0000000000007de2                ARShiftU64.c.ebfaf0fd
                0x000000000000806f                BitField.c.ab8052a7
                0x00000000000089c0                CpuDeadLoop.c.8141ba1c
                0x0000000000008c42                Cpu.c.08a28abf
                0x0000000000008ed4                LinkedList.c.d9a18524
                0x00000000000093af                SafeString.c.ac501842
                0x000000000000a22f                String.c.9428b4df
                0x000000000000ad38                FilePaths.c.d1fdca68
                0x000000000000b000                Non_existing.c.30615f5f
                0x000000000000b33f                Math64.c.85c00fe6
                0x000000000000b82d                Unaligned.c.285defe7
                0x000000000000bbcf                X86WriteIdtr.c.4ca68d1b
                0x000000000000be8f                X86WriteGdtr.c.2601acef
                0x000000000000c14f                X86Thunk.c.c11cacad
                0x000000000000cab9                X86ReadIdtr.c.f41894a5
                0x000000000000cd74                X86ReadGdtr.c.33fe137c
                0x000000000000d02f                X86Msr.c.10d46cc9
                0x000000000000d6a3                X86GetInterruptState.c.49470cfd
                0x000000000000dac9                X86FxSave.c.bde96147
                0x000000000000dd88                X86FxRestore.c.9207fd4e
                0x000000000000e04c                X86EnablePaging64.c.26990f9d
                0x000000000000e2ec                X86EnablePaging32.c.00ebb341
                0x000000000000e5a6                X86DisablePaging64.c.9b62dd87
                0x000000000000e846                X86DisablePaging32.c.4b62fac3
                0x000000000000eb00                X86RdRand.c.b6128300
                0x000000000000edc5                X86PatchInstruction.c.aae99305
                0x000000000000f072                X86SpeculationBarrier.c.1d737975
                0x000000000000f2d6                GccInline.c.f560cb7e
                0x000000000000fded                ChkStkGcc.c.8355fd1c
                0x0000000000010051                DebugLib.c.e6f4eaa5
                0x00000000000103bd                UefiBootServicesTableLib.c.3d292330
                0x0000000000011d4f                MemoryAllocationLib.c.d4cf91a0
                0x0000000000013be0                PrintLibInternal.c.13977831
                0x00000000000143cd                PrintLib.c.49279d69
                0x0000000000014b63                UefiRuntimeServicesTableLib.c.39e83e3b
                0x00000000000164c6                DevicePathUtilities.c.4b365889
                0x0000000000018345                DevicePathToText.c.dccc11ca
                0x000000000001c117                DevicePathFromText.c.aa6afee4
                0x00000000000207a2                UefiDevicePathLib.c.28a315f3
                0x0000000000022351                UefiLibPrint.c.2c38231a
                0x0000000000024b22                UefiNotTiano.c.6b31d83a
                0x00000000000267d9                UefiDriverModel.c.19d49509
                0x0000000000028b91                Console.c.543f21e9
                0x000000000002a8e7                UefiLib.c.0b11cb83
                0x000000000002d148                Acpi.c.fd3e9159
                0x000000000002f2c6                ApplicationEntryPoint.c.12bbe122
                0x0000000000030ca0                Hello.c.d77171c7
                0x00000000000326cf                AutoGen.c.958f4408
 .debug_info    0x000000000003439b      0xe87 /tmp/cc9rOBO3.ltrans0.ltrans.o

.debug_abbrev   0x0000000000000000     0x66a9
 .debug_abbrev  0x0000000000000000     0x6544 /tmp/ccBV89iPdebugobj
 .debug_abbrev  0x0000000000006544      0x165 /tmp/cc9rOBO3.ltrans0.ltrans.o

.debug_line     0x0000000000000000     0xd1c2
 .debug_line    0x0000000000000000     0xc4c1 /tmp/ccBV89iPdebugobj
 .debug_line    0x000000000000c4c1      0xd01 /tmp/cc9rOBO3.ltrans0.ltrans.o

.debug_str      0x0000000000000000     0x9cb4
 .debug_str     0x0000000000000000     0x9b43 /tmp/ccBV89iPdebugobj
                                      0x38134 (緩和前のサイズ)
 .debug_str     0x0000000000009b43      0x171 /tmp/cc9rOBO3.ltrans0.ltrans.o
                                        0x1e0 (緩和前のサイズ)

.debug_loc      0x0000000000000000     0x1c34
 .debug_loc     0x0000000000000000     0x1c34 /tmp/cc9rOBO3.ltrans0.ltrans.o

.debug_aranges  0x0000000000000000       0xa0
 .debug_aranges
                0x0000000000000000       0xa0 /tmp/cc9rOBO3.ltrans0.ltrans.o

.debug_ranges   0x0000000000000000      0x320
 .debug_ranges  0x0000000000000000      0x320 /tmp/cc9rOBO3.ltrans0.ltrans.o

.debug_frame    0x0000000000000000      0x248
 .debug_frame   0x0000000000000000      0x248 /tmp/cc9rOBO3.ltrans0.ltrans.o
