./kernel/kernel.bin:     file format binary
       0:	55                   	push   rbp
       1:	48 89 e5             	mov    rbp,rsp
       4:	48 83 ec 10          	sub    rsp,0x10
       8:	48 89 7d f8          	mov    QWORD PTR [rbp-0x8],rdi
       c:	e8 90 1a 00 00       	call   0x1aa1
      11:	e8 9e 41 00 00       	call   0x41b4
      16:	48 8b 45 f8          	mov    rax,QWORD PTR [rbp-0x8]
      1a:	48 89 c7             	mov    rdi,rax
      1d:	e8 d7 1a 00 00       	call   0x1af9
      22:	e8 28 1b 00 00       	call   0x1b4f
      27:	90                   	nop
      28:	c9                   	leave  
      29:	c3                   	ret    
0x000000000011002a: main_routine
      2a:	55                   	push   rbp
      2b:	48 89 e5             	mov    rbp,rsp
      2e:	48 81 ec f0 00 00 00 	sub    rsp,0xf0
      35:	e8 a6 1b 00 00       	call   0x1be0
      3a:	e8 68 1c 00 00       	call   0x1ca7
      3f:	e8 d2 1b 00 00       	call   0x1c16
      44:	e8 67 23 00 00       	call   0x23b0
      49:	48 8b 05 18 7b 00 00 	mov    rax,QWORD PTR [rip+0x7b18]        # 0x7b68
      50:	41 b9 b8 5e 11 00    	mov    r9d,0x115eb8
      56:	49 89 c0             	mov    r8,rax
      59:	8b 0d d1 7a 00 00    	mov    ecx,DWORD PTR [rip+0x7ad1]        # 0x7b30
      5f:	8b 15 37 7b 00 00    	mov    edx,DWORD PTR [rip+0x7b37]        # 0x7b9c
      65:	be 0a 00 00 00       	mov    esi,0xa
      6a:	bf 58 02 00 00       	mov    edi,0x258
      6f:	e8 77 08 00 00       	call   0x8eb
      74:	e8 6f 22 00 00       	call   0x22e8
      79:	48 89 c2             	mov    rdx,rax
      7c:	48 8b 05 e5 7a 00 00 	mov    rax,QWORD PTR [rip+0x7ae5]        # 0x7b68
      83:	49 89 d1             	mov    r9,rdx
      86:	49 89 c0             	mov    r8,rax
      89:	8b 0d a1 7a 00 00    	mov    ecx,DWORD PTR [rip+0x7aa1]        # 0x7b30
      8f:	8b 15 07 7b 00 00    	mov    edx,DWORD PTR [rip+0x7b07]        # 0x7b9c
      95:	be 0a 00 00 00       	mov    esi,0xa
      9a:	bf 8a 02 00 00       	mov    edi,0x28a
      9f:	e8 c3 08 00 00       	call   0x967
      a4:	48 8b 05 bd 7a 00 00 	mov    rax,QWORD PTR [rip+0x7abd]        # 0x7b68
      ab:	41 b9 be 5e 11 00    	mov    r9d,0x115ebe
      b1:	49 89 c0             	mov    r8,rax
      b4:	8b 0d 76 7a 00 00    	mov    ecx,DWORD PTR [rip+0x7a76]        # 0x7b30
      ba:	8b 15 dc 7a 00 00    	mov    edx,DWORD PTR [rip+0x7adc]        # 0x7b9c
      c0:	be 1e 00 00 00       	mov    esi,0x1e
      c5:	bf 58 02 00 00       	mov    edi,0x258
      ca:	e8 1c 08 00 00       	call   0x8eb
      cf:	e8 18 22 00 00       	call   0x22ec
      d4:	48 89 c2             	mov    rdx,rax
      d7:	48 8b 05 8a 7a 00 00 	mov    rax,QWORD PTR [rip+0x7a8a]        # 0x7b68
      de:	49 89 d1             	mov    r9,rdx
      e1:	49 89 c0             	mov    r8,rax
      e4:	8b 0d 46 7a 00 00    	mov    ecx,DWORD PTR [rip+0x7a46]        # 0x7b30
      ea:	8b 15 ac 7a 00 00    	mov    edx,DWORD PTR [rip+0x7aac]        # 0x7b9c
      f0:	be 1e 00 00 00       	mov    esi,0x1e
      f5:	bf 8a 02 00 00       	mov    edi,0x28a
      fa:	e8 68 08 00 00       	call   0x967
      ff:	48 8b 05 62 7a 00 00 	mov    rax,QWORD PTR [rip+0x7a62]        # 0x7b68
     106:	41 b9 c4 5e 11 00    	mov    r9d,0x115ec4
     10c:	49 89 c0             	mov    r8,rax
     10f:	8b 0d 1b 7a 00 00    	mov    ecx,DWORD PTR [rip+0x7a1b]        # 0x7b30
     115:	8b 15 81 7a 00 00    	mov    edx,DWORD PTR [rip+0x7a81]        # 0x7b9c
     11b:	be 32 00 00 00       	mov    esi,0x32
     120:	bf 58 02 00 00       	mov    edi,0x258
     125:	e8 c1 07 00 00       	call   0x8eb
     12a:	e8 c1 21 00 00       	call   0x22f0
     12f:	48 89 c2             	mov    rdx,rax
     132:	48 8b 05 2f 7a 00 00 	mov    rax,QWORD PTR [rip+0x7a2f]        # 0x7b68
     139:	49 89 d1             	mov    r9,rdx
     13c:	49 89 c0             	mov    r8,rax
     13f:	8b 0d eb 79 00 00    	mov    ecx,DWORD PTR [rip+0x79eb]        # 0x7b30
     145:	8b 15 51 7a 00 00    	mov    edx,DWORD PTR [rip+0x7a51]        # 0x7b9c
     14b:	be 32 00 00 00       	mov    esi,0x32
     150:	bf 8a 02 00 00       	mov    edi,0x28a
     155:	e8 0d 08 00 00       	call   0x967
     15a:	48 8b 05 07 7a 00 00 	mov    rax,QWORD PTR [rip+0x7a07]        # 0x7b68
     161:	41 b9 d0 5e 11 00    	mov    r9d,0x115ed0
     167:	49 89 c0             	mov    r8,rax
     16a:	8b 0d c0 79 00 00    	mov    ecx,DWORD PTR [rip+0x79c0]        # 0x7b30
     170:	8b 15 26 7a 00 00    	mov    edx,DWORD PTR [rip+0x7a26]        # 0x7b9c
     176:	be 30 02 00 00       	mov    esi,0x230
     17b:	bf 03 02 00 00       	mov    edi,0x203
     180:	e8 66 07 00 00       	call   0x8eb
     185:	48 8b 05 dc 79 00 00 	mov    rax,QWORD PTR [rip+0x79dc]        # 0x7b68
     18c:	41 b9 f8 5e 11 00    	mov    r9d,0x115ef8
     192:	49 89 c0             	mov    r8,rax
     195:	8b 0d 95 79 00 00    	mov    ecx,DWORD PTR [rip+0x7995]        # 0x7b30
     19b:	8b 15 fb 79 00 00    	mov    edx,DWORD PTR [rip+0x79fb]        # 0x7b9c
     1a1:	be 44 02 00 00       	mov    esi,0x244
     1a6:	bf f4 01 00 00       	mov    edi,0x1f4
     1ab:	e8 3b 07 00 00       	call   0x8eb
     1b0:	c7 45 fc 03 00 00 00 	mov    DWORD PTR [rbp-0x4],0x3
     1b7:	bf 1e 5f 11 00       	mov    edi,0x115f1e
     1bc:	e8 42 41 00 00       	call   0x4303
     1c1:	8b 45 fc             	mov    eax,DWORD PTR [rbp-0x4]
     1c4:	48 98                	cdqe   
     1c6:	48 89 c7             	mov    rdi,rax
     1c9:	e8 88 41 00 00       	call   0x4356
     1ce:	bf 2c 5f 11 00       	mov    edi,0x115f2c
     1d3:	e8 2b 41 00 00       	call   0x4303
     1d8:	8b 45 fc             	mov    eax,DWORD PTR [rbp-0x4]
     1db:	48 98                	cdqe   
     1dd:	48 89 c7             	mov    rdi,rax
     1e0:	e8 77 5a 00 00       	call   0x5c5c
     1e5:	e8 f4 59 00 00       	call   0x5bde
     1ea:	48 8d 45 c0          	lea    rax,[rbp-0x40]
     1ee:	41 b8 00 00 00 00    	mov    r8d,0x0
     1f4:	b9 00 00 00 00       	mov    ecx,0x0
     1f9:	ba 19 54 11 00       	mov    edx,0x115419
     1fe:	be 00 82 11 00       	mov    esi,0x118200
     203:	48 89 c7             	mov    rdi,rax
     206:	e8 ff 57 00 00       	call   0x5a0a
     20b:	48 8d 45 88          	lea    rax,[rbp-0x78]
     20f:	41 b8 00 00 00 00    	mov    r8d,0x0
     215:	b9 00 00 00 00       	mov    ecx,0x0
     21a:	ba b5 03 11 00       	mov    edx,0x1103b5
     21f:	be 00 02 12 00       	mov    esi,0x120200
     224:	48 89 c7             	mov    rdi,rax
     227:	e8 de 57 00 00       	call   0x5a0a
     22c:	48 8d 85 50 ff ff ff 	lea    rax,[rbp-0xb0]
     233:	41 b8 00 00 00 00    	mov    r8d,0x0
     239:	b9 00 00 00 00       	mov    ecx,0x0
     23e:	ba 6b 04 11 00       	mov    edx,0x11046b
     243:	be 00 82 12 00       	mov    esi,0x128200
     248:	48 89 c7             	mov    rdi,rax
     24b:	e8 ba 57 00 00       	call   0x5a0a
     250:	48 8d 85 18 ff ff ff 	lea    rax,[rbp-0xe8]
     257:	41 b8 00 00 00 00    	mov    r8d,0x0
     25d:	b9 00 00 00 00       	mov    ecx,0x0
     262:	ba 21 05 11 00       	mov    edx,0x110521
     267:	be 00 02 13 00       	mov    esi,0x130200
     26c:	48 89 c7             	mov    rdi,rax
     26f:	e8 96 57 00 00       	call   0x5a0a
     274:	48 83 ec 08          	sub    rsp,0x8
     278:	ff 75 f0             	push   QWORD PTR [rbp-0x10]
     27b:	ff 75 e8             	push   QWORD PTR [rbp-0x18]
     27e:	ff 75 e0             	push   QWORD PTR [rbp-0x20]
     281:	ff 75 d8             	push   QWORD PTR [rbp-0x28]
     284:	ff 75 d0             	push   QWORD PTR [rbp-0x30]
     287:	ff 75 c8             	push   QWORD PTR [rbp-0x38]
     28a:	ff 75 c0             	push   QWORD PTR [rbp-0x40]
     28d:	e8 65 58 00 00       	call   0x5af7
     292:	48 83 c4 40          	add    rsp,0x40
     296:	48 83 ec 08          	sub    rsp,0x8
     29a:	ff 75 b8             	push   QWORD PTR [rbp-0x48]
     29d:	ff 75 b0             	push   QWORD PTR [rbp-0x50]
     2a0:	ff 75 a8             	push   QWORD PTR [rbp-0x58]
     2a3:	ff 75 a0             	push   QWORD PTR [rbp-0x60]
     2a6:	ff 75 98             	push   QWORD PTR [rbp-0x68]
     2a9:	ff 75 90             	push   QWORD PTR [rbp-0x70]
     2ac:	ff 75 88             	push   QWORD PTR [rbp-0x78]
     2af:	e8 43 58 00 00       	call   0x5af7
     2b4:	48 83 c4 40          	add    rsp,0x40
     2b8:	48 83 ec 08          	sub    rsp,0x8
     2bc:	ff 75 80             	push   QWORD PTR [rbp-0x80]
     2bf:	ff b5 78 ff ff ff    	push   QWORD PTR [rbp-0x88]
     2c5:	ff b5 70 ff ff ff    	push   QWORD PTR [rbp-0x90]
     2cb:	ff b5 68 ff ff ff    	push   QWORD PTR [rbp-0x98]
     2d1:	ff b5 60 ff ff ff    	push   QWORD PTR [rbp-0xa0]
     2d7:	ff b5 58 ff ff ff    	push   QWORD PTR [rbp-0xa8]
     2dd:	ff b5 50 ff ff ff    	push   QWORD PTR [rbp-0xb0]
     2e3:	e8 0f 58 00 00       	call   0x5af7
     2e8:	48 83 c4 40          	add    rsp,0x40
     2ec:	48 83 ec 08          	sub    rsp,0x8
     2f0:	ff b5 48 ff ff ff    	push   QWORD PTR [rbp-0xb8]
     2f6:	ff b5 40 ff ff ff    	push   QWORD PTR [rbp-0xc0]
     2fc:	ff b5 38 ff ff ff    	push   QWORD PTR [rbp-0xc8]
     302:	ff b5 30 ff ff ff    	push   QWORD PTR [rbp-0xd0]
     308:	ff b5 28 ff ff ff    	push   QWORD PTR [rbp-0xd8]
     30e:	ff b5 20 ff ff ff    	push   QWORD PTR [rbp-0xe0]
     314:	ff b5 18 ff ff ff    	push   QWORD PTR [rbp-0xe8]
     31a:	e8 d8 57 00 00       	call   0x5af7
     31f:	48 83 c4 40          	add    rsp,0x40
     323:	bf 2e 5f 11 00       	mov    edi,0x115f2e
     328:	e8 d6 3f 00 00       	call   0x4303
     32d:	bf 3c 5f 11 00       	mov    edi,0x115f3c
     332:	e8 cc 3f 00 00       	call   0x4303
     337:	48 8b 45 c8          	mov    rax,QWORD PTR [rbp-0x38]
     33b:	48 89 c7             	mov    rdi,rax
     33e:	e8 13 40 00 00       	call   0x4356
     343:	bf 2c 5f 11 00       	mov    edi,0x115f2c
     348:	e8 b6 3f 00 00       	call   0x4303
     34d:	bf 4d 5f 11 00       	mov    edi,0x115f4d
     352:	e8 ac 3f 00 00       	call   0x4303
     357:	48 8b 45 d8          	mov    rax,QWORD PTR [rbp-0x28]
     35b:	48 89 c7             	mov    rdi,rax
     35e:	e8 f3 3f 00 00       	call   0x4356
     363:	bf 2c 5f 11 00       	mov    edi,0x115f2c
     368:	e8 96 3f 00 00       	call   0x4303
     36d:	bf 67 5f 11 00       	mov    edi,0x115f67
     372:	e8 8c 3f 00 00       	call   0x4303
     377:	48 8b 45 d0          	mov    rax,QWORD PTR [rbp-0x30]
     37b:	48 89 c7             	mov    rdi,rax
     37e:	e8 d3 3f 00 00       	call   0x4356
     383:	bf 79 5f 11 00       	mov    edi,0x115f79
     388:	e8 76 3f 00 00       	call   0x4303
     38d:	bf 7c 5f 11 00       	mov    edi,0x115f7c
     392:	e8 6c 3f 00 00       	call   0x4303
     397:	48 8b 45 c8          	mov    rax,QWORD PTR [rbp-0x38]
     39b:	48 89 c6             	mov    rsi,rax
     39e:	bf 00 00 00 00       	mov    edi,0x0
     3a3:	e8 e8 5a 00 00       	call   0x5e90
     3a8:	bf 93 5f 11 00       	mov    edi,0x115f93
     3ad:	e8 51 3f 00 00       	call   0x4303
     3b2:	f4                   	hlt    
     3b3:	eb fd                	jmp    0x3b2
0x00000000001103b5: task_a
     3b5:	55                   	push   rbp
     3b6:	48 89 e5             	mov    rbp,rsp
     3b9:	48 8b 35 a8 77 00 00 	mov    rsi,QWORD PTR [rip+0x77a8]        # 0x7b68
     3c0:	8b 05 ca 77 00 00    	mov    eax,DWORD PTR [rip+0x77ca]        # 0x7b90
     3c6:	8d 48 f8             	lea    ecx,[rax-0x8]
     3c9:	ba 1f 85 eb 51       	mov    edx,0x51eb851f
     3ce:	89 c8                	mov    eax,ecx
     3d0:	f7 ea                	imul   edx
     3d2:	c1 fa 08             	sar    edx,0x8
     3d5:	89 c8                	mov    eax,ecx
     3d7:	c1 f8 1f             	sar    eax,0x1f
     3da:	29 c2                	sub    edx,eax
     3dc:	89 d0                	mov    eax,edx
     3de:	69 c0 20 03 00 00    	imul   eax,eax,0x320
     3e4:	29 c1                	sub    ecx,eax
     3e6:	89 c8                	mov    eax,ecx
     3e8:	41 b9 20 00 00 00    	mov    r9d,0x20
     3ee:	49 89 f0             	mov    r8,rsi
     3f1:	8b 0d 39 77 00 00    	mov    ecx,DWORD PTR [rip+0x7739]        # 0x7b30
     3f7:	8b 15 33 77 00 00    	mov    edx,DWORD PTR [rip+0x7733]        # 0x7b30
     3fd:	be 50 00 00 00       	mov    esi,0x50
     402:	89 c7                	mov    edi,eax
     404:	e8 e3 02 00 00       	call   0x6ec
     409:	48 8b 35 58 77 00 00 	mov    rsi,QWORD PTR [rip+0x7758]        # 0x7b68
     410:	8b 0d 7a 77 00 00    	mov    ecx,DWORD PTR [rip+0x777a]        # 0x7b90
     416:	ba 1f 85 eb 51       	mov    edx,0x51eb851f
     41b:	89 c8                	mov    eax,ecx
     41d:	f7 ea                	imul   edx
     41f:	c1 fa 08             	sar    edx,0x8
     422:	89 c8                	mov    eax,ecx
     424:	c1 f8 1f             	sar    eax,0x1f
     427:	29 c2                	sub    edx,eax
     429:	89 d0                	mov    eax,edx
     42b:	69 c0 20 03 00 00    	imul   eax,eax,0x320
     431:	29 c1                	sub    ecx,eax
     433:	89 c8                	mov    eax,ecx
     435:	41 b9 20 00 00 00    	mov    r9d,0x20
     43b:	49 89 f0             	mov    r8,rsi
     43e:	8b 0d f0 76 00 00    	mov    ecx,DWORD PTR [rip+0x76f0]        # 0x7b34
     444:	8b 15 e6 76 00 00    	mov    edx,DWORD PTR [rip+0x76e6]        # 0x7b30
     44a:	be 50 00 00 00       	mov    esi,0x50
     44f:	89 c7                	mov    edi,eax
     451:	e8 96 02 00 00       	call   0x6ec
     456:	f4                   	hlt    
     457:	8b 05 33 77 00 00    	mov    eax,DWORD PTR [rip+0x7733]        # 0x7b90
     45d:	83 c0 01             	add    eax,0x1
     460:	89 05 2a 77 00 00    	mov    DWORD PTR [rip+0x772a],eax        # 0x7b90
     466:	e9 4e ff ff ff       	jmp    0x3b9
0x000000000011046b: task_b
     46b:	55                   	push   rbp
     46c:	48 89 e5             	mov    rbp,rsp
     46f:	48 8b 35 f2 76 00 00 	mov    rsi,QWORD PTR [rip+0x76f2]        # 0x7b68
     476:	8b 05 18 77 00 00    	mov    eax,DWORD PTR [rip+0x7718]        # 0x7b94
     47c:	8d 48 f8             	lea    ecx,[rax-0x8]
     47f:	ba 1f 85 eb 51       	mov    edx,0x51eb851f
     484:	89 c8                	mov    eax,ecx
     486:	f7 ea                	imul   edx
     488:	c1 fa 08             	sar    edx,0x8
     48b:	89 c8                	mov    eax,ecx
     48d:	c1 f8 1f             	sar    eax,0x1f
     490:	29 c2                	sub    edx,eax
     492:	89 d0                	mov    eax,edx
     494:	69 c0 20 03 00 00    	imul   eax,eax,0x320
     49a:	29 c1                	sub    ecx,eax
     49c:	89 c8                	mov    eax,ecx
     49e:	41 b9 20 00 00 00    	mov    r9d,0x20
     4a4:	49 89 f0             	mov    r8,rsi
     4a7:	8b 0d 83 76 00 00    	mov    ecx,DWORD PTR [rip+0x7683]        # 0x7b30
     4ad:	8b 15 7d 76 00 00    	mov    edx,DWORD PTR [rip+0x767d]        # 0x7b30
     4b3:	be 60 00 00 00       	mov    esi,0x60
     4b8:	89 c7                	mov    edi,eax
     4ba:	e8 2d 02 00 00       	call   0x6ec
     4bf:	48 8b 35 a2 76 00 00 	mov    rsi,QWORD PTR [rip+0x76a2]        # 0x7b68
     4c6:	8b 0d c8 76 00 00    	mov    ecx,DWORD PTR [rip+0x76c8]        # 0x7b94
     4cc:	ba 1f 85 eb 51       	mov    edx,0x51eb851f
     4d1:	89 c8                	mov    eax,ecx
     4d3:	f7 ea                	imul   edx
     4d5:	c1 fa 08             	sar    edx,0x8
     4d8:	89 c8                	mov    eax,ecx
     4da:	c1 f8 1f             	sar    eax,0x1f
     4dd:	29 c2                	sub    edx,eax
     4df:	89 d0                	mov    eax,edx
     4e1:	69 c0 20 03 00 00    	imul   eax,eax,0x320
     4e7:	29 c1                	sub    ecx,eax
     4e9:	89 c8                	mov    eax,ecx
     4eb:	41 b9 20 00 00 00    	mov    r9d,0x20
     4f1:	49 89 f0             	mov    r8,rsi
     4f4:	8b 0d 42 76 00 00    	mov    ecx,DWORD PTR [rip+0x7642]        # 0x7b3c
     4fa:	8b 15 30 76 00 00    	mov    edx,DWORD PTR [rip+0x7630]        # 0x7b30
     500:	be 60 00 00 00       	mov    esi,0x60
     505:	89 c7                	mov    edi,eax
     507:	e8 e0 01 00 00       	call   0x6ec
     50c:	f4                   	hlt    
     50d:	8b 05 81 76 00 00    	mov    eax,DWORD PTR [rip+0x7681]        # 0x7b94
     513:	83 c0 02             	add    eax,0x2
     516:	89 05 78 76 00 00    	mov    DWORD PTR [rip+0x7678],eax        # 0x7b94
     51c:	e9 4e ff ff ff       	jmp    0x46f
0x0000000000110521: task_c
     521:	55                   	push   rbp
     522:	48 89 e5             	mov    rbp,rsp
     525:	48 8b 35 3c 76 00 00 	mov    rsi,QWORD PTR [rip+0x763c]        # 0x7b68
     52c:	8b 05 66 76 00 00    	mov    eax,DWORD PTR [rip+0x7666]        # 0x7b98
     532:	8d 48 f8             	lea    ecx,[rax-0x8]
     535:	ba 1f 85 eb 51       	mov    edx,0x51eb851f
     53a:	89 c8                	mov    eax,ecx
     53c:	f7 ea                	imul   edx
     53e:	c1 fa 08             	sar    edx,0x8
     541:	89 c8                	mov    eax,ecx
     543:	c1 f8 1f             	sar    eax,0x1f
     546:	29 c2                	sub    edx,eax
     548:	89 d0                	mov    eax,edx
     54a:	69 c0 20 03 00 00    	imul   eax,eax,0x320
     550:	29 c1                	sub    ecx,eax
     552:	89 c8                	mov    eax,ecx
     554:	41 b9 20 00 00 00    	mov    r9d,0x20
     55a:	49 89 f0             	mov    r8,rsi
     55d:	8b 0d cd 75 00 00    	mov    ecx,DWORD PTR [rip+0x75cd]        # 0x7b30
     563:	8b 15 c7 75 00 00    	mov    edx,DWORD PTR [rip+0x75c7]        # 0x7b30
     569:	be 70 00 00 00       	mov    esi,0x70
     56e:	89 c7                	mov    edi,eax
     570:	e8 77 01 00 00       	call   0x6ec
     575:	48 8b 35 ec 75 00 00 	mov    rsi,QWORD PTR [rip+0x75ec]        # 0x7b68
     57c:	8b 0d 16 76 00 00    	mov    ecx,DWORD PTR [rip+0x7616]        # 0x7b98
     582:	ba 1f 85 eb 51       	mov    edx,0x51eb851f
     587:	89 c8                	mov    eax,ecx
     589:	f7 ea                	imul   edx
     58b:	c1 fa 08             	sar    edx,0x8
     58e:	89 c8                	mov    eax,ecx
     590:	c1 f8 1f             	sar    eax,0x1f
     593:	29 c2                	sub    edx,eax
     595:	89 d0                	mov    eax,edx
     597:	69 c0 20 03 00 00    	imul   eax,eax,0x320
     59d:	29 c1                	sub    ecx,eax
     59f:	89 c8                	mov    eax,ecx
     5a1:	41 b9 20 00 00 00    	mov    r9d,0x20
     5a7:	49 89 f0             	mov    r8,rsi
     5aa:	8b 0d 88 75 00 00    	mov    ecx,DWORD PTR [rip+0x7588]        # 0x7b38
     5b0:	8b 15 7a 75 00 00    	mov    edx,DWORD PTR [rip+0x757a]        # 0x7b30
     5b6:	be 70 00 00 00       	mov    esi,0x70
     5bb:	89 c7                	mov    edi,eax
     5bd:	e8 2a 01 00 00       	call   0x6ec
     5c2:	f4                   	hlt    
     5c3:	8b 05 cf 75 00 00    	mov    eax,DWORD PTR [rip+0x75cf]        # 0x7b98
     5c9:	83 c0 03             	add    eax,0x3
     5cc:	89 05 c6 75 00 00    	mov    DWORD PTR [rip+0x75c6],eax        # 0x7b98
     5d2:	e9 4e ff ff ff       	jmp    0x525
0x00000000001105d7: _draw_dot
     5d7:	55                   	push   rbp
     5d8:	48 89 e5             	mov    rbp,rsp
     5db:	48 83 ec 38          	sub    rsp,0x38
     5df:	89 7d dc             	mov    DWORD PTR [rbp-0x24],edi
     5e2:	89 75 d8             	mov    DWORD PTR [rbp-0x28],esi
     5e5:	89 55 d4             	mov    DWORD PTR [rbp-0x2c],edx
     5e8:	48 89 4d c8          	mov    QWORD PTR [rbp-0x38],rcx
     5ec:	48 8b 45 c8          	mov    rax,QWORD PTR [rbp-0x38]
     5f0:	48 8b 00             	mov    rax,QWORD PTR [rax]
     5f3:	48 89 45 f8          	mov    QWORD PTR [rbp-0x8],rax
     5f7:	48 8b 45 c8          	mov    rax,QWORD PTR [rbp-0x38]
     5fb:	8b 40 10             	mov    eax,DWORD PTR [rax+0x10]
     5fe:	89 45 f4             	mov    DWORD PTR [rbp-0xc],eax
     601:	48 8b 45 c8          	mov    rax,QWORD PTR [rbp-0x38]
     605:	8b 40 14             	mov    eax,DWORD PTR [rax+0x14]
     608:	89 45 f0             	mov    DWORD PTR [rbp-0x10],eax
     60b:	48 8b 45 c8          	mov    rax,QWORD PTR [rbp-0x38]
     60f:	8b 40 18             	mov    eax,DWORD PTR [rax+0x18]
     612:	89 45 ec             	mov    DWORD PTR [rbp-0x14],eax
     615:	8b 45 dc             	mov    eax,DWORD PTR [rbp-0x24]
     618:	3b 45 f4             	cmp    eax,DWORD PTR [rbp-0xc]
     61b:	73 2f                	jae    0x64c
     61d:	8b 45 d8             	mov    eax,DWORD PTR [rbp-0x28]
     620:	3b 45 f0             	cmp    eax,DWORD PTR [rbp-0x10]
     623:	73 27                	jae    0x64c
     625:	8b 45 d8             	mov    eax,DWORD PTR [rbp-0x28]
     628:	0f af 45 ec          	imul   eax,DWORD PTR [rbp-0x14]
     62c:	89 c2                	mov    edx,eax
     62e:	8b 45 dc             	mov    eax,DWORD PTR [rbp-0x24]
     631:	01 d0                	add    eax,edx
     633:	89 c0                	mov    eax,eax
     635:	48 8d 14 85 00 00 00 	lea    rdx,[rax*4+0x0]
     63c:	00 
     63d:	48 8b 45 f8          	mov    rax,QWORD PTR [rbp-0x8]
     641:	48 01 c2             	add    rdx,rax
     644:	8b 45 d4             	mov    eax,DWORD PTR [rbp-0x2c]
     647:	89 02                	mov    DWORD PTR [rdx],eax
     649:	90                   	nop
     64a:	eb 01                	jmp    0x64d
     64c:	90                   	nop
     64d:	c9                   	leave  
     64e:	c3                   	ret    
0x000000000011064f: draw_square
     64f:	55                   	push   rbp
     650:	48 89 e5             	mov    rbp,rsp
     653:	48 83 ec 30          	sub    rsp,0x30
     657:	89 7d ec             	mov    DWORD PTR [rbp-0x14],edi
     65a:	89 75 e8             	mov    DWORD PTR [rbp-0x18],esi
     65d:	89 55 e4             	mov    DWORD PTR [rbp-0x1c],edx
     660:	89 4d e0             	mov    DWORD PTR [rbp-0x20],ecx
     663:	44 89 45 dc          	mov    DWORD PTR [rbp-0x24],r8d
     667:	4c 89 4d d0          	mov    QWORD PTR [rbp-0x30],r9
     66b:	48 8b 45 d0          	mov    rax,QWORD PTR [rbp-0x30]
     66f:	8b 40 10             	mov    eax,DWORD PTR [rax+0x10]
     672:	89 45 f4             	mov    DWORD PTR [rbp-0xc],eax
     675:	48 8b 45 d0          	mov    rax,QWORD PTR [rbp-0x30]
     679:	8b 40 14             	mov    eax,DWORD PTR [rax+0x14]
     67c:	89 45 f0             	mov    DWORD PTR [rbp-0x10],eax
     67f:	8b 55 ec             	mov    edx,DWORD PTR [rbp-0x14]
     682:	8b 45 e0             	mov    eax,DWORD PTR [rbp-0x20]
     685:	01 d0                	add    eax,edx
     687:	39 45 f4             	cmp    DWORD PTR [rbp-0xc],eax
     68a:	76 5d                	jbe    0x6e9
     68c:	8b 55 e8             	mov    edx,DWORD PTR [rbp-0x18]
     68f:	8b 45 dc             	mov    eax,DWORD PTR [rbp-0x24]
     692:	01 d0                	add    eax,edx
     694:	39 45 f0             	cmp    DWORD PTR [rbp-0x10],eax
     697:	76 50                	jbe    0x6e9
     699:	c7 45 fc 00 00 00 00 	mov    DWORD PTR [rbp-0x4],0x0
     6a0:	eb 3c                	jmp    0x6de
     6a2:	c7 45 f8 00 00 00 00 	mov    DWORD PTR [rbp-0x8],0x0
     6a9:	eb 27                	jmp    0x6d2
     6ab:	8b 55 e8             	mov    edx,DWORD PTR [rbp-0x18]
     6ae:	8b 45 fc             	mov    eax,DWORD PTR [rbp-0x4]
     6b1:	8d 34 02             	lea    esi,[rdx+rax*1]
     6b4:	8b 55 ec             	mov    edx,DWORD PTR [rbp-0x14]
     6b7:	8b 45 f8             	mov    eax,DWORD PTR [rbp-0x8]
     6ba:	8d 3c 02             	lea    edi,[rdx+rax*1]
     6bd:	48 8b 55 d0          	mov    rdx,QWORD PTR [rbp-0x30]
     6c1:	8b 45 e4             	mov    eax,DWORD PTR [rbp-0x1c]
     6c4:	48 89 d1             	mov    rcx,rdx
     6c7:	89 c2                	mov    edx,eax
     6c9:	e8 09 ff ff ff       	call   0x5d7
     6ce:	83 45 f8 01          	add    DWORD PTR [rbp-0x8],0x1
     6d2:	8b 45 f8             	mov    eax,DWORD PTR [rbp-0x8]
     6d5:	3b 45 e0             	cmp    eax,DWORD PTR [rbp-0x20]
     6d8:	72 d1                	jb     0x6ab
     6da:	83 45 fc 01          	add    DWORD PTR [rbp-0x4],0x1
     6de:	8b 45 fc             	mov    eax,DWORD PTR [rbp-0x4]
     6e1:	3b 45 dc             	cmp    eax,DWORD PTR [rbp-0x24]
     6e4:	72 bc                	jb     0x6a2
     6e6:	90                   	nop
     6e7:	eb 01                	jmp    0x6ea
     6e9:	90                   	nop
     6ea:	c9                   	leave  
     6eb:	c3                   	ret    
0x00000000001106ec: putchar
     6ec:	55                   	push   rbp
     6ed:	48 89 e5             	mov    rbp,rsp
     6f0:	48 83 ec 30          	sub    rsp,0x30
     6f4:	89 7d ec             	mov    DWORD PTR [rbp-0x14],edi
     6f7:	89 75 e8             	mov    DWORD PTR [rbp-0x18],esi
     6fa:	89 55 e4             	mov    DWORD PTR [rbp-0x1c],edx
     6fd:	89 4d e0             	mov    DWORD PTR [rbp-0x20],ecx
     700:	4c 89 45 d8          	mov    QWORD PTR [rbp-0x28],r8
     704:	44 89 c8             	mov    eax,r9d
     707:	88 45 d4             	mov    BYTE PTR [rbp-0x2c],al
     70a:	0f b6 45 d4          	movzx  eax,BYTE PTR [rbp-0x2c]
     70e:	83 e8 20             	sub    eax,0x20
     711:	88 45 f7             	mov    BYTE PTR [rbp-0x9],al
     714:	e8 25 13 00 00       	call   0x1a3e
     719:	c7 45 fc 00 00 00 00 	mov    DWORD PTR [rbp-0x4],0x0
     720:	eb 3a                	jmp    0x75c
     722:	c7 45 f8 00 00 00 00 	mov    DWORD PTR [rbp-0x8],0x0
     729:	eb 27                	jmp    0x752
     72b:	8b 55 fc             	mov    edx,DWORD PTR [rbp-0x4]
     72e:	8b 45 e8             	mov    eax,DWORD PTR [rbp-0x18]
     731:	8d 34 02             	lea    esi,[rdx+rax*1]
     734:	8b 55 f8             	mov    edx,DWORD PTR [rbp-0x8]
     737:	8b 45 ec             	mov    eax,DWORD PTR [rbp-0x14]
     73a:	8d 3c 02             	lea    edi,[rdx+rax*1]
     73d:	48 8b 55 d8          	mov    rdx,QWORD PTR [rbp-0x28]
     741:	8b 45 e0             	mov    eax,DWORD PTR [rbp-0x20]
     744:	48 89 d1             	mov    rcx,rdx
     747:	89 c2                	mov    edx,eax
     749:	e8 89 fe ff ff       	call   0x5d7
     74e:	83 45 f8 01          	add    DWORD PTR [rbp-0x8],0x1
     752:	83 7d f8 07          	cmp    DWORD PTR [rbp-0x8],0x7
     756:	7e d3                	jle    0x72b
     758:	83 45 fc 01          	add    DWORD PTR [rbp-0x4],0x1
     75c:	83 7d fc 0f          	cmp    DWORD PTR [rbp-0x4],0xf
     760:	7e c0                	jle    0x722
     762:	c7 45 fc 00 00 00 00 	mov    DWORD PTR [rbp-0x4],0x0
     769:	e9 6b 01 00 00       	jmp    0x8d9
     76e:	0f be 45 f7          	movsx  eax,BYTE PTR [rbp-0x9]
     772:	c1 e0 04             	shl    eax,0x4
     775:	89 c2                	mov    edx,eax
     777:	8b 45 fc             	mov    eax,DWORD PTR [rbp-0x4]
     77a:	01 d0                	add    eax,edx
     77c:	48 98                	cdqe   
     77e:	0f b6 80 40 75 11 00 	movzx  eax,BYTE PTR [rax+0x117540]
     785:	88 45 f6             	mov    BYTE PTR [rbp-0xa],al
     788:	80 7d f6 00          	cmp    BYTE PTR [rbp-0xa],0x0
     78c:	79 1a                	jns    0x7a8
     78e:	8b 55 fc             	mov    edx,DWORD PTR [rbp-0x4]
     791:	8b 45 e8             	mov    eax,DWORD PTR [rbp-0x18]
     794:	8d 34 02             	lea    esi,[rdx+rax*1]
     797:	48 8b 4d d8          	mov    rcx,QWORD PTR [rbp-0x28]
     79b:	8b 55 e4             	mov    edx,DWORD PTR [rbp-0x1c]
     79e:	8b 45 ec             	mov    eax,DWORD PTR [rbp-0x14]
     7a1:	89 c7                	mov    edi,eax
     7a3:	e8 2f fe ff ff       	call   0x5d7
     7a8:	0f be 45 f6          	movsx  eax,BYTE PTR [rbp-0xa]
     7ac:	83 e0 40             	and    eax,0x40
     7af:	85 c0                	test   eax,eax
     7b1:	74 20                	je     0x7d3
     7b3:	8b 55 fc             	mov    edx,DWORD PTR [rbp-0x4]
     7b6:	8b 45 e8             	mov    eax,DWORD PTR [rbp-0x18]
     7b9:	8d 34 02             	lea    esi,[rdx+rax*1]
     7bc:	8b 45 ec             	mov    eax,DWORD PTR [rbp-0x14]
     7bf:	8d 78 01             	lea    edi,[rax+0x1]
     7c2:	48 8b 55 d8          	mov    rdx,QWORD PTR [rbp-0x28]
     7c6:	8b 45 e4             	mov    eax,DWORD PTR [rbp-0x1c]
     7c9:	48 89 d1             	mov    rcx,rdx
     7cc:	89 c2                	mov    edx,eax
     7ce:	e8 04 fe ff ff       	call   0x5d7
     7d3:	0f be 45 f6          	movsx  eax,BYTE PTR [rbp-0xa]
     7d7:	83 e0 20             	and    eax,0x20
     7da:	85 c0                	test   eax,eax
     7dc:	74 20                	je     0x7fe
     7de:	8b 55 fc             	mov    edx,DWORD PTR [rbp-0x4]
     7e1:	8b 45 e8             	mov    eax,DWORD PTR [rbp-0x18]
     7e4:	8d 34 02             	lea    esi,[rdx+rax*1]
     7e7:	8b 45 ec             	mov    eax,DWORD PTR [rbp-0x14]
     7ea:	8d 78 02             	lea    edi,[rax+0x2]
     7ed:	48 8b 55 d8          	mov    rdx,QWORD PTR [rbp-0x28]
     7f1:	8b 45 e4             	mov    eax,DWORD PTR [rbp-0x1c]
     7f4:	48 89 d1             	mov    rcx,rdx
     7f7:	89 c2                	mov    edx,eax
     7f9:	e8 d9 fd ff ff       	call   0x5d7
     7fe:	0f be 45 f6          	movsx  eax,BYTE PTR [rbp-0xa]
     802:	83 e0 10             	and    eax,0x10
     805:	85 c0                	test   eax,eax
     807:	74 20                	je     0x829
     809:	8b 55 fc             	mov    edx,DWORD PTR [rbp-0x4]
     80c:	8b 45 e8             	mov    eax,DWORD PTR [rbp-0x18]
     80f:	8d 34 02             	lea    esi,[rdx+rax*1]
     812:	8b 45 ec             	mov    eax,DWORD PTR [rbp-0x14]
     815:	8d 78 03             	lea    edi,[rax+0x3]
     818:	48 8b 55 d8          	mov    rdx,QWORD PTR [rbp-0x28]
     81c:	8b 45 e4             	mov    eax,DWORD PTR [rbp-0x1c]
     81f:	48 89 d1             	mov    rcx,rdx
     822:	89 c2                	mov    edx,eax
     824:	e8 ae fd ff ff       	call   0x5d7
     829:	0f be 45 f6          	movsx  eax,BYTE PTR [rbp-0xa]
     82d:	83 e0 08             	and    eax,0x8
     830:	85 c0                	test   eax,eax
     832:	74 20                	je     0x854
     834:	8b 55 fc             	mov    edx,DWORD PTR [rbp-0x4]
     837:	8b 45 e8             	mov    eax,DWORD PTR [rbp-0x18]
     83a:	8d 34 02             	lea    esi,[rdx+rax*1]
     83d:	8b 45 ec             	mov    eax,DWORD PTR [rbp-0x14]
     840:	8d 78 04             	lea    edi,[rax+0x4]
     843:	48 8b 55 d8          	mov    rdx,QWORD PTR [rbp-0x28]
     847:	8b 45 e4             	mov    eax,DWORD PTR [rbp-0x1c]
     84a:	48 89 d1             	mov    rcx,rdx
     84d:	89 c2                	mov    edx,eax
     84f:	e8 83 fd ff ff       	call   0x5d7
     854:	0f be 45 f6          	movsx  eax,BYTE PTR [rbp-0xa]
     858:	83 e0 04             	and    eax,0x4
     85b:	85 c0                	test   eax,eax
     85d:	74 20                	je     0x87f
     85f:	8b 55 fc             	mov    edx,DWORD PTR [rbp-0x4]
     862:	8b 45 e8             	mov    eax,DWORD PTR [rbp-0x18]
     865:	8d 34 02             	lea    esi,[rdx+rax*1]
     868:	8b 45 ec             	mov    eax,DWORD PTR [rbp-0x14]
     86b:	8d 78 05             	lea    edi,[rax+0x5]
     86e:	48 8b 55 d8          	mov    rdx,QWORD PTR [rbp-0x28]
     872:	8b 45 e4             	mov    eax,DWORD PTR [rbp-0x1c]
     875:	48 89 d1             	mov    rcx,rdx
     878:	89 c2                	mov    edx,eax
     87a:	e8 58 fd ff ff       	call   0x5d7
     87f:	0f be 45 f6          	movsx  eax,BYTE PTR [rbp-0xa]
     883:	83 e0 02             	and    eax,0x2
     886:	85 c0                	test   eax,eax
     888:	74 20                	je     0x8aa
     88a:	8b 55 fc             	mov    edx,DWORD PTR [rbp-0x4]
     88d:	8b 45 e8             	mov    eax,DWORD PTR [rbp-0x18]
     890:	8d 34 02             	lea    esi,[rdx+rax*1]
     893:	8b 45 ec             	mov    eax,DWORD PTR [rbp-0x14]
     896:	8d 78 06             	lea    edi,[rax+0x6]
     899:	48 8b 55 d8          	mov    rdx,QWORD PTR [rbp-0x28]
     89d:	8b 45 e4             	mov    eax,DWORD PTR [rbp-0x1c]
     8a0:	48 89 d1             	mov    rcx,rdx
     8a3:	89 c2                	mov    edx,eax
     8a5:	e8 2d fd ff ff       	call   0x5d7
     8aa:	0f be 45 f6          	movsx  eax,BYTE PTR [rbp-0xa]
     8ae:	83 e0 01             	and    eax,0x1
     8b1:	85 c0                	test   eax,eax
     8b3:	74 20                	je     0x8d5
     8b5:	8b 55 fc             	mov    edx,DWORD PTR [rbp-0x4]
     8b8:	8b 45 e8             	mov    eax,DWORD PTR [rbp-0x18]
     8bb:	8d 34 02             	lea    esi,[rdx+rax*1]
     8be:	8b 45 ec             	mov    eax,DWORD PTR [rbp-0x14]
     8c1:	8d 78 07             	lea    edi,[rax+0x7]
     8c4:	48 8b 55 d8          	mov    rdx,QWORD PTR [rbp-0x28]
     8c8:	8b 45 e4             	mov    eax,DWORD PTR [rbp-0x1c]
     8cb:	48 89 d1             	mov    rcx,rdx
     8ce:	89 c2                	mov    edx,eax
     8d0:	e8 02 fd ff ff       	call   0x5d7
     8d5:	83 45 fc 01          	add    DWORD PTR [rbp-0x4],0x1
     8d9:	83 7d fc 0f          	cmp    DWORD PTR [rbp-0x4],0xf
     8dd:	0f 8e 8b fe ff ff    	jle    0x76e
     8e3:	e8 58 11 00 00       	call   0x1a40
     8e8:	90                   	nop
     8e9:	c9                   	leave  
     8ea:	c3                   	ret    
0x00000000001108eb: putstr
     8eb:	55                   	push   rbp
     8ec:	48 89 e5             	mov    rbp,rsp
     8ef:	48 83 ec 30          	sub    rsp,0x30
     8f3:	89 7d ec             	mov    DWORD PTR [rbp-0x14],edi
     8f6:	89 75 e8             	mov    DWORD PTR [rbp-0x18],esi
     8f9:	89 55 e4             	mov    DWORD PTR [rbp-0x1c],edx
     8fc:	89 4d e0             	mov    DWORD PTR [rbp-0x20],ecx
     8ff:	4c 89 45 d8          	mov    QWORD PTR [rbp-0x28],r8
     903:	4c 89 4d d0          	mov    QWORD PTR [rbp-0x30],r9
     907:	c7 45 fc 00 00 00 00 	mov    DWORD PTR [rbp-0x4],0x0
     90e:	eb 40                	jmp    0x950
     910:	8b 45 fc             	mov    eax,DWORD PTR [rbp-0x4]
     913:	48 63 d0             	movsxd rdx,eax
     916:	48 8b 45 d0          	mov    rax,QWORD PTR [rbp-0x30]
     91a:	48 01 d0             	add    rax,rdx
     91d:	0f b6 00             	movzx  eax,BYTE PTR [rax]
     920:	44 0f be c0          	movsx  r8d,al
     924:	8b 45 fc             	mov    eax,DWORD PTR [rbp-0x4]
     927:	c1 e0 03             	shl    eax,0x3
     92a:	89 c2                	mov    edx,eax
     92c:	8b 45 ec             	mov    eax,DWORD PTR [rbp-0x14]
     92f:	8d 3c 02             	lea    edi,[rdx+rax*1]
     932:	48 8b 75 d8          	mov    rsi,QWORD PTR [rbp-0x28]
     936:	8b 4d e0             	mov    ecx,DWORD PTR [rbp-0x20]
     939:	8b 55 e4             	mov    edx,DWORD PTR [rbp-0x1c]
     93c:	8b 45 e8             	mov    eax,DWORD PTR [rbp-0x18]
     93f:	45 89 c1             	mov    r9d,r8d
     942:	49 89 f0             	mov    r8,rsi
     945:	89 c6                	mov    esi,eax
     947:	e8 a0 fd ff ff       	call   0x6ec
     94c:	83 45 fc 01          	add    DWORD PTR [rbp-0x4],0x1
     950:	8b 45 fc             	mov    eax,DWORD PTR [rbp-0x4]
     953:	48 63 d0             	movsxd rdx,eax
     956:	48 8b 45 d0          	mov    rax,QWORD PTR [rbp-0x30]
     95a:	48 01 d0             	add    rax,rdx
     95d:	0f b6 00             	movzx  eax,BYTE PTR [rax]
     960:	84 c0                	test   al,al
     962:	75 ac                	jne    0x910
     964:	90                   	nop
     965:	c9                   	leave  
     966:	c3                   	ret    
0x0000000000110967: putnum
     967:	55                   	push   rbp
     968:	48 89 e5             	mov    rbp,rsp
     96b:	53                   	push   rbx
     96c:	48 81 ec c8 00 00 00 	sub    rsp,0xc8
     973:	89 bd 4c ff ff ff    	mov    DWORD PTR [rbp-0xb4],edi
     979:	89 b5 48 ff ff ff    	mov    DWORD PTR [rbp-0xb8],esi
     97f:	89 95 44 ff ff ff    	mov    DWORD PTR [rbp-0xbc],edx
     985:	89 8d 40 ff ff ff    	mov    DWORD PTR [rbp-0xc0],ecx
     98b:	4c 89 85 38 ff ff ff 	mov    QWORD PTR [rbp-0xc8],r8
     992:	4c 89 8d 30 ff ff ff 	mov    QWORD PTR [rbp-0xd0],r9
     999:	48 c7 45 e8 00 00 00 	mov    QWORD PTR [rbp-0x18],0x0
     9a0:	00 
     9a1:	e9 93 00 00 00       	jmp    0xa39
     9a6:	48 8b 45 e8          	mov    rax,QWORD PTR [rbp-0x18]
     9aa:	48 c1 e0 02          	shl    rax,0x2
     9ae:	48 89 c6             	mov    rsi,rax
     9b1:	bf 02 00 00 00       	mov    edi,0x2
     9b6:	e8 d3 03 00 00       	call   0xd8e
     9bb:	48 89 c3             	mov    rbx,rax
     9be:	48 8b 45 e8          	mov    rax,QWORD PTR [rbp-0x18]
     9c2:	48 c1 e0 02          	shl    rax,0x2
     9c6:	48 83 c0 01          	add    rax,0x1
     9ca:	48 89 c6             	mov    rsi,rax
     9cd:	bf 02 00 00 00       	mov    edi,0x2
     9d2:	e8 b7 03 00 00       	call   0xd8e
     9d7:	48 01 c3             	add    rbx,rax
     9da:	48 8b 45 e8          	mov    rax,QWORD PTR [rbp-0x18]
     9de:	48 c1 e0 02          	shl    rax,0x2
     9e2:	48 83 c0 02          	add    rax,0x2
     9e6:	48 89 c6             	mov    rsi,rax
     9e9:	bf 02 00 00 00       	mov    edi,0x2
     9ee:	e8 9b 03 00 00       	call   0xd8e
     9f3:	48 01 c3             	add    rbx,rax
     9f6:	48 8b 45 e8          	mov    rax,QWORD PTR [rbp-0x18]
     9fa:	48 c1 e0 02          	shl    rax,0x2
     9fe:	48 83 c0 03          	add    rax,0x3
     a02:	48 89 c6             	mov    rsi,rax
     a05:	bf 02 00 00 00       	mov    edi,0x2
     a0a:	e8 7f 03 00 00       	call   0xd8e
     a0f:	48 01 d8             	add    rax,rbx
     a12:	48 23 85 30 ff ff ff 	and    rax,QWORD PTR [rbp-0xd0]
     a19:	48 89 c2             	mov    rdx,rax
     a1c:	48 8b 45 e8          	mov    rax,QWORD PTR [rbp-0x18]
     a20:	c1 e0 02             	shl    eax,0x2
     a23:	89 c1                	mov    ecx,eax
     a25:	48 d3 ea             	shr    rdx,cl
     a28:	48 8b 45 e8          	mov    rax,QWORD PTR [rbp-0x18]
     a2c:	48 89 94 c5 68 ff ff 	mov    QWORD PTR [rbp+rax*8-0x98],rdx
     a33:	ff 
     a34:	48 83 45 e8 01       	add    QWORD PTR [rbp-0x18],0x1
     a39:	48 83 7d e8 0f       	cmp    QWORD PTR [rbp-0x18],0xf
     a3e:	0f 86 62 ff ff ff    	jbe    0x9a6
     a44:	c6 85 55 ff ff ff 30 	mov    BYTE PTR [rbp-0xab],0x30
     a4b:	c6 85 56 ff ff ff 78 	mov    BYTE PTR [rbp-0xaa],0x78
     a52:	c6 85 67 ff ff ff 00 	mov    BYTE PTR [rbp-0x99],0x0
     a59:	48 c7 45 e8 00 00 00 	mov    QWORD PTR [rbp-0x18],0x0
     a60:	00 
     a61:	e9 34 02 00 00       	jmp    0xc9a
     a66:	48 8b 45 e8          	mov    rax,QWORD PTR [rbp-0x18]
     a6a:	48 8b 84 c5 68 ff ff 	mov    rax,QWORD PTR [rbp+rax*8-0x98]
     a71:	ff 
     a72:	48 85 c0             	test   rax,rax
     a75:	75 11                	jne    0xa88
     a77:	b8 11 00 00 00       	mov    eax,0x11
     a7c:	48 2b 45 e8          	sub    rax,QWORD PTR [rbp-0x18]
     a80:	c6 84 05 55 ff ff ff 	mov    BYTE PTR [rbp+rax*1-0xab],0x30
     a87:	30 
     a88:	48 8b 45 e8          	mov    rax,QWORD PTR [rbp-0x18]
     a8c:	48 8b 84 c5 68 ff ff 	mov    rax,QWORD PTR [rbp+rax*8-0x98]
     a93:	ff 
     a94:	48 83 f8 01          	cmp    rax,0x1
     a98:	75 11                	jne    0xaab
     a9a:	b8 11 00 00 00       	mov    eax,0x11
     a9f:	48 2b 45 e8          	sub    rax,QWORD PTR [rbp-0x18]
     aa3:	c6 84 05 55 ff ff ff 	mov    BYTE PTR [rbp+rax*1-0xab],0x31
     aaa:	31 
     aab:	48 8b 45 e8          	mov    rax,QWORD PTR [rbp-0x18]
     aaf:	48 8b 84 c5 68 ff ff 	mov    rax,QWORD PTR [rbp+rax*8-0x98]
     ab6:	ff 
     ab7:	48 83 f8 02          	cmp    rax,0x2
     abb:	75 11                	jne    0xace
     abd:	b8 11 00 00 00       	mov    eax,0x11
     ac2:	48 2b 45 e8          	sub    rax,QWORD PTR [rbp-0x18]
     ac6:	c6 84 05 55 ff ff ff 	mov    BYTE PTR [rbp+rax*1-0xab],0x32
     acd:	32 
     ace:	48 8b 45 e8          	mov    rax,QWORD PTR [rbp-0x18]
     ad2:	48 8b 84 c5 68 ff ff 	mov    rax,QWORD PTR [rbp+rax*8-0x98]
     ad9:	ff 
     ada:	48 83 f8 03          	cmp    rax,0x3
     ade:	75 11                	jne    0xaf1
     ae0:	b8 11 00 00 00       	mov    eax,0x11
     ae5:	48 2b 45 e8          	sub    rax,QWORD PTR [rbp-0x18]
     ae9:	c6 84 05 55 ff ff ff 	mov    BYTE PTR [rbp+rax*1-0xab],0x33
     af0:	33 
     af1:	48 8b 45 e8          	mov    rax,QWORD PTR [rbp-0x18]
     af5:	48 8b 84 c5 68 ff ff 	mov    rax,QWORD PTR [rbp+rax*8-0x98]
     afc:	ff 
     afd:	48 83 f8 04          	cmp    rax,0x4
     b01:	75 11                	jne    0xb14
     b03:	b8 11 00 00 00       	mov    eax,0x11
     b08:	48 2b 45 e8          	sub    rax,QWORD PTR [rbp-0x18]
     b0c:	c6 84 05 55 ff ff ff 	mov    BYTE PTR [rbp+rax*1-0xab],0x34
     b13:	34 
     b14:	48 8b 45 e8          	mov    rax,QWORD PTR [rbp-0x18]
     b18:	48 8b 84 c5 68 ff ff 	mov    rax,QWORD PTR [rbp+rax*8-0x98]
     b1f:	ff 
     b20:	48 83 f8 05          	cmp    rax,0x5
     b24:	75 11                	jne    0xb37
     b26:	b8 11 00 00 00       	mov    eax,0x11
     b2b:	48 2b 45 e8          	sub    rax,QWORD PTR [rbp-0x18]
     b2f:	c6 84 05 55 ff ff ff 	mov    BYTE PTR [rbp+rax*1-0xab],0x35
     b36:	35 
     b37:	48 8b 45 e8          	mov    rax,QWORD PTR [rbp-0x18]
     b3b:	48 8b 84 c5 68 ff ff 	mov    rax,QWORD PTR [rbp+rax*8-0x98]
     b42:	ff 
     b43:	48 83 f8 06          	cmp    rax,0x6
     b47:	75 11                	jne    0xb5a
     b49:	b8 11 00 00 00       	mov    eax,0x11
     b4e:	48 2b 45 e8          	sub    rax,QWORD PTR [rbp-0x18]
     b52:	c6 84 05 55 ff ff ff 	mov    BYTE PTR [rbp+rax*1-0xab],0x36
     b59:	36 
     b5a:	48 8b 45 e8          	mov    rax,QWORD PTR [rbp-0x18]
     b5e:	48 8b 84 c5 68 ff ff 	mov    rax,QWORD PTR [rbp+rax*8-0x98]
     b65:	ff 
     b66:	48 83 f8 07          	cmp    rax,0x7
     b6a:	75 11                	jne    0xb7d
     b6c:	b8 11 00 00 00       	mov    eax,0x11
     b71:	48 2b 45 e8          	sub    rax,QWORD PTR [rbp-0x18]
     b75:	c6 84 05 55 ff ff ff 	mov    BYTE PTR [rbp+rax*1-0xab],0x37
     b7c:	37 
     b7d:	48 8b 45 e8          	mov    rax,QWORD PTR [rbp-0x18]
     b81:	48 8b 84 c5 68 ff ff 	mov    rax,QWORD PTR [rbp+rax*8-0x98]
     b88:	ff 
     b89:	48 83 f8 08          	cmp    rax,0x8
     b8d:	75 11                	jne    0xba0
     b8f:	b8 11 00 00 00       	mov    eax,0x11
     b94:	48 2b 45 e8          	sub    rax,QWORD PTR [rbp-0x18]
     b98:	c6 84 05 55 ff ff ff 	mov    BYTE PTR [rbp+rax*1-0xab],0x38
     b9f:	38 
     ba0:	48 8b 45 e8          	mov    rax,QWORD PTR [rbp-0x18]
     ba4:	48 8b 84 c5 68 ff ff 	mov    rax,QWORD PTR [rbp+rax*8-0x98]
     bab:	ff 
     bac:	48 83 f8 09          	cmp    rax,0x9
     bb0:	75 11                	jne    0xbc3
     bb2:	b8 11 00 00 00       	mov    eax,0x11
     bb7:	48 2b 45 e8          	sub    rax,QWORD PTR [rbp-0x18]
     bbb:	c6 84 05 55 ff ff ff 	mov    BYTE PTR [rbp+rax*1-0xab],0x39
     bc2:	39 
     bc3:	48 8b 45 e8          	mov    rax,QWORD PTR [rbp-0x18]
     bc7:	48 8b 84 c5 68 ff ff 	mov    rax,QWORD PTR [rbp+rax*8-0x98]
     bce:	ff 
     bcf:	48 83 f8 0a          	cmp    rax,0xa
     bd3:	75 11                	jne    0xbe6
     bd5:	b8 11 00 00 00       	mov    eax,0x11
     bda:	48 2b 45 e8          	sub    rax,QWORD PTR [rbp-0x18]
     bde:	c6 84 05 55 ff ff ff 	mov    BYTE PTR [rbp+rax*1-0xab],0x61
     be5:	61 
     be6:	48 8b 45 e8          	mov    rax,QWORD PTR [rbp-0x18]
     bea:	48 8b 84 c5 68 ff ff 	mov    rax,QWORD PTR [rbp+rax*8-0x98]
     bf1:	ff 
     bf2:	48 83 f8 0b          	cmp    rax,0xb
     bf6:	75 11                	jne    0xc09
     bf8:	b8 11 00 00 00       	mov    eax,0x11
     bfd:	48 2b 45 e8          	sub    rax,QWORD PTR [rbp-0x18]
     c01:	c6 84 05 55 ff ff ff 	mov    BYTE PTR [rbp+rax*1-0xab],0x62
     c08:	62 
     c09:	48 8b 45 e8          	mov    rax,QWORD PTR [rbp-0x18]
     c0d:	48 8b 84 c5 68 ff ff 	mov    rax,QWORD PTR [rbp+rax*8-0x98]
     c14:	ff 
     c15:	48 83 f8 0c          	cmp    rax,0xc
     c19:	75 11                	jne    0xc2c
     c1b:	b8 11 00 00 00       	mov    eax,0x11
     c20:	48 2b 45 e8          	sub    rax,QWORD PTR [rbp-0x18]
     c24:	c6 84 05 55 ff ff ff 	mov    BYTE PTR [rbp+rax*1-0xab],0x63
     c2b:	63 
     c2c:	48 8b 45 e8          	mov    rax,QWORD PTR [rbp-0x18]
     c30:	48 8b 84 c5 68 ff ff 	mov    rax,QWORD PTR [rbp+rax*8-0x98]
     c37:	ff 
     c38:	48 83 f8 0d          	cmp    rax,0xd
     c3c:	75 11                	jne    0xc4f
     c3e:	b8 11 00 00 00       	mov    eax,0x11
     c43:	48 2b 45 e8          	sub    rax,QWORD PTR [rbp-0x18]
     c47:	c6 84 05 55 ff ff ff 	mov    BYTE PTR [rbp+rax*1-0xab],0x64
     c4e:	64 
     c4f:	48 8b 45 e8          	mov    rax,QWORD PTR [rbp-0x18]
     c53:	48 8b 84 c5 68 ff ff 	mov    rax,QWORD PTR [rbp+rax*8-0x98]
     c5a:	ff 
     c5b:	48 83 f8 0e          	cmp    rax,0xe
     c5f:	75 11                	jne    0xc72
     c61:	b8 11 00 00 00       	mov    eax,0x11
     c66:	48 2b 45 e8          	sub    rax,QWORD PTR [rbp-0x18]
     c6a:	c6 84 05 55 ff ff ff 	mov    BYTE PTR [rbp+rax*1-0xab],0x65
     c71:	65 
     c72:	48 8b 45 e8          	mov    rax,QWORD PTR [rbp-0x18]
     c76:	48 8b 84 c5 68 ff ff 	mov    rax,QWORD PTR [rbp+rax*8-0x98]
     c7d:	ff 
     c7e:	48 83 f8 0f          	cmp    rax,0xf
     c82:	75 11                	jne    0xc95
     c84:	b8 11 00 00 00       	mov    eax,0x11
     c89:	48 2b 45 e8          	sub    rax,QWORD PTR [rbp-0x18]
     c8d:	c6 84 05 55 ff ff ff 	mov    BYTE PTR [rbp+rax*1-0xab],0x66
     c94:	66 
     c95:	48 83 45 e8 01       	add    QWORD PTR [rbp-0x18],0x1
     c9a:	48 83 7d e8 0f       	cmp    QWORD PTR [rbp-0x18],0xf
     c9f:	0f 86 c1 fd ff ff    	jbe    0xa66
     ca5:	4c 8d 85 55 ff ff ff 	lea    r8,[rbp-0xab]
     cac:	48 8b bd 38 ff ff ff 	mov    rdi,QWORD PTR [rbp-0xc8]
     cb3:	8b 8d 40 ff ff ff    	mov    ecx,DWORD PTR [rbp-0xc0]
     cb9:	8b 95 44 ff ff ff    	mov    edx,DWORD PTR [rbp-0xbc]
     cbf:	8b b5 48 ff ff ff    	mov    esi,DWORD PTR [rbp-0xb8]
     cc5:	8b 85 4c ff ff ff    	mov    eax,DWORD PTR [rbp-0xb4]
     ccb:	4d 89 c1             	mov    r9,r8
     cce:	49 89 f8             	mov    r8,rdi
     cd1:	89 c7                	mov    edi,eax
     cd3:	e8 13 fc ff ff       	call   0x8eb
     cd8:	90                   	nop
     cd9:	48 81 c4 c8 00 00 00 	add    rsp,0xc8
     ce0:	5b                   	pop    rbx
     ce1:	5d                   	pop    rbp
     ce2:	c3                   	ret    
0x0000000000110ce3: memset
     ce3:	55                   	push   rbp
     ce4:	48 89 e5             	mov    rbp,rsp
     ce7:	48 83 ec 30          	sub    rsp,0x30
     ceb:	48 89 7d d8          	mov    QWORD PTR [rbp-0x28],rdi
     cef:	89 75 d4             	mov    DWORD PTR [rbp-0x2c],esi
     cf2:	89 55 d0             	mov    DWORD PTR [rbp-0x30],edx
     cf5:	48 8b 45 d8          	mov    rax,QWORD PTR [rbp-0x28]
     cf9:	48 89 45 f0          	mov    QWORD PTR [rbp-0x10],rax
     cfd:	8b 45 d4             	mov    eax,DWORD PTR [rbp-0x2c]
     d00:	88 45 ef             	mov    BYTE PTR [rbp-0x11],al
     d03:	c7 45 fc 00 00 00 00 	mov    DWORD PTR [rbp-0x4],0x0
     d0a:	eb 17                	jmp    0xd23
     d0c:	8b 45 fc             	mov    eax,DWORD PTR [rbp-0x4]
     d0f:	48 63 d0             	movsxd rdx,eax
     d12:	48 8b 45 f0          	mov    rax,QWORD PTR [rbp-0x10]
     d16:	48 01 c2             	add    rdx,rax
     d19:	0f b6 45 ef          	movzx  eax,BYTE PTR [rbp-0x11]
     d1d:	88 02                	mov    BYTE PTR [rdx],al
     d1f:	83 45 fc 01          	add    DWORD PTR [rbp-0x4],0x1
     d23:	8b 45 fc             	mov    eax,DWORD PTR [rbp-0x4]
     d26:	3b 45 d0             	cmp    eax,DWORD PTR [rbp-0x30]
     d29:	7c e1                	jl     0xd0c
     d2b:	48 8b 45 d8          	mov    rax,QWORD PTR [rbp-0x28]
     d2f:	c9                   	leave  
     d30:	c3                   	ret    
0x0000000000110d31: memcpy
     d31:	55                   	push   rbp
     d32:	48 89 e5             	mov    rbp,rsp
     d35:	48 83 ec 38          	sub    rsp,0x38
     d39:	48 89 7d d8          	mov    QWORD PTR [rbp-0x28],rdi
     d3d:	48 89 75 d0          	mov    QWORD PTR [rbp-0x30],rsi
     d41:	89 55 cc             	mov    DWORD PTR [rbp-0x34],edx
     d44:	48 8b 45 d8          	mov    rax,QWORD PTR [rbp-0x28]
     d48:	48 89 45 f0          	mov    QWORD PTR [rbp-0x10],rax
     d4c:	48 8b 45 d0          	mov    rax,QWORD PTR [rbp-0x30]
     d50:	48 89 45 e8          	mov    QWORD PTR [rbp-0x18],rax
     d54:	c7 45 fc 00 00 00 00 	mov    DWORD PTR [rbp-0x4],0x0
     d5b:	eb 23                	jmp    0xd80
     d5d:	8b 45 fc             	mov    eax,DWORD PTR [rbp-0x4]
     d60:	48 63 d0             	movsxd rdx,eax
     d63:	48 8b 45 e8          	mov    rax,QWORD PTR [rbp-0x18]
     d67:	48 01 d0             	add    rax,rdx
     d6a:	8b 55 fc             	mov    edx,DWORD PTR [rbp-0x4]
     d6d:	48 63 ca             	movsxd rcx,edx
     d70:	48 8b 55 f0          	mov    rdx,QWORD PTR [rbp-0x10]
     d74:	48 01 ca             	add    rdx,rcx
     d77:	0f b6 00             	movzx  eax,BYTE PTR [rax]
     d7a:	88 02                	mov    BYTE PTR [rdx],al
     d7c:	83 45 fc 01          	add    DWORD PTR [rbp-0x4],0x1
     d80:	8b 45 fc             	mov    eax,DWORD PTR [rbp-0x4]
     d83:	3b 45 cc             	cmp    eax,DWORD PTR [rbp-0x34]
     d86:	7c d5                	jl     0xd5d
     d88:	48 8b 45 d8          	mov    rax,QWORD PTR [rbp-0x28]
     d8c:	c9                   	leave  
     d8d:	c3                   	ret    
0x0000000000110d8e: pow
     d8e:	55                   	push   rbp
     d8f:	48 89 e5             	mov    rbp,rsp
     d92:	48 83 ec 20          	sub    rsp,0x20
     d96:	48 89 7d e8          	mov    QWORD PTR [rbp-0x18],rdi
     d9a:	48 89 75 e0          	mov    QWORD PTR [rbp-0x20],rsi
     d9e:	48 c7 45 f8 01 00 00 	mov    QWORD PTR [rbp-0x8],0x1
     da5:	00 
     da6:	48 c7 45 f0 00 00 00 	mov    QWORD PTR [rbp-0x10],0x0
     dad:	00 
     dae:	eb 12                	jmp    0xdc2
     db0:	48 8b 45 f8          	mov    rax,QWORD PTR [rbp-0x8]
     db4:	48 0f af 45 e8       	imul   rax,QWORD PTR [rbp-0x18]
     db9:	48 89 45 f8          	mov    QWORD PTR [rbp-0x8],rax
     dbd:	48 83 45 f0 01       	add    QWORD PTR [rbp-0x10],0x1
     dc2:	48 8b 45 f0          	mov    rax,QWORD PTR [rbp-0x10]
     dc6:	48 3b 45 e0          	cmp    rax,QWORD PTR [rbp-0x20]
     dca:	72 e4                	jb     0xdb0
     dcc:	48 8b 45 f8          	mov    rax,QWORD PTR [rbp-0x8]
     dd0:	c9                   	leave  
     dd1:	c3                   	ret    
0x0000000000110dd2: gen_buf_u64
     dd2:	55                   	push   rbp
     dd3:	48 89 e5             	mov    rbp,rsp
     dd6:	48 81 ec 18 02 00 00 	sub    rsp,0x218
     ddd:	48 89 bd e8 fd ff ff 	mov    QWORD PTR [rbp-0x218],rdi
     de4:	c7 45 fc 00 00 00 00 	mov    DWORD PTR [rbp-0x4],0x0
     deb:	eb 15                	jmp    0xe02
     ded:	8b 45 fc             	mov    eax,DWORD PTR [rbp-0x4]
     df0:	48 98                	cdqe   
     df2:	48 c7 84 c5 f0 fd ff 	mov    QWORD PTR [rbp+rax*8-0x210],0x0
     df9:	ff 00 00 00 00 
     dfe:	83 45 fc 01          	add    DWORD PTR [rbp-0x4],0x1
     e02:	83 7d fc 3f          	cmp    DWORD PTR [rbp-0x4],0x3f
     e06:	7e e5                	jle    0xded
     e08:	c6 45 f0 00          	mov    BYTE PTR [rbp-0x10],0x0
     e0c:	c6 45 f1 00          	mov    BYTE PTR [rbp-0xf],0x0
     e10:	48 8b 85 e8 fd ff ff 	mov    rax,QWORD PTR [rbp-0x218]
     e17:	48 89 c7             	mov    rdi,rax
     e1a:	48 8d 85 f0 fd ff ff 	lea    rax,[rbp-0x210]
     e21:	ba 41 00 00 00       	mov    edx,0x41
     e26:	48 89 c6             	mov    rsi,rax
     e29:	48 89 d1             	mov    rcx,rdx
     e2c:	f3 48 a5             	rep movs QWORD PTR es:[rdi],QWORD PTR ds:[rsi]
     e2f:	48 8b 85 e8 fd ff ff 	mov    rax,QWORD PTR [rbp-0x218]
     e36:	c9                   	leave  
     e37:	c3                   	ret    
0x0000000000110e38: buf_u64_isempty
     e38:	55                   	push   rbp
     e39:	48 89 e5             	mov    rbp,rsp
     e3c:	48 83 ec 08          	sub    rsp,0x8
     e40:	48 89 7d f8          	mov    QWORD PTR [rbp-0x8],rdi
     e44:	48 8b 45 f8          	mov    rax,QWORD PTR [rbp-0x8]
     e48:	0f b6 90 00 02 00 00 	movzx  edx,BYTE PTR [rax+0x200]
     e4f:	48 8b 45 f8          	mov    rax,QWORD PTR [rbp-0x8]
     e53:	0f b6 80 01 02 00 00 	movzx  eax,BYTE PTR [rax+0x201]
     e5a:	38 c2                	cmp    dl,al
     e5c:	0f 94 c0             	sete   al
     e5f:	c9                   	leave  
     e60:	c3                   	ret    
0x0000000000110e61: buf_u64_isfull
     e61:	55                   	push   rbp
     e62:	48 89 e5             	mov    rbp,rsp
     e65:	48 83 ec 08          	sub    rsp,0x8
     e69:	48 89 7d f8          	mov    QWORD PTR [rbp-0x8],rdi
     e6d:	48 8b 45 f8          	mov    rax,QWORD PTR [rbp-0x8]
     e71:	0f b6 80 01 02 00 00 	movzx  eax,BYTE PTR [rax+0x201]
     e78:	0f b6 c0             	movzx  eax,al
     e7b:	8d 50 01             	lea    edx,[rax+0x1]
     e7e:	89 d0                	mov    eax,edx
     e80:	c1 f8 1f             	sar    eax,0x1f
     e83:	c1 e8 1a             	shr    eax,0x1a
     e86:	01 c2                	add    edx,eax
     e88:	83 e2 3f             	and    edx,0x3f
     e8b:	29 c2                	sub    edx,eax
     e8d:	89 d0                	mov    eax,edx
     e8f:	89 c2                	mov    edx,eax
     e91:	48 8b 45 f8          	mov    rax,QWORD PTR [rbp-0x8]
     e95:	0f b6 80 00 02 00 00 	movzx  eax,BYTE PTR [rax+0x200]
     e9c:	0f b6 c0             	movzx  eax,al
     e9f:	39 c2                	cmp    edx,eax
     ea1:	0f 94 c0             	sete   al
     ea4:	c9                   	leave  
     ea5:	c3                   	ret    
0x0000000000110ea6: enqueue_u64
     ea6:	55                   	push   rbp
     ea7:	48 89 e5             	mov    rbp,rsp
     eaa:	48 83 ec 10          	sub    rsp,0x10
     eae:	48 89 7d f8          	mov    QWORD PTR [rbp-0x8],rdi
     eb2:	48 89 75 f0          	mov    QWORD PTR [rbp-0x10],rsi
     eb6:	48 8b 45 f8          	mov    rax,QWORD PTR [rbp-0x8]
     eba:	48 89 c7             	mov    rdi,rax
     ebd:	e8 9f ff ff ff       	call   0xe61
     ec2:	84 c0                	test   al,al
     ec4:	74 07                	je     0xecd
     ec6:	b8 00 00 00 00       	mov    eax,0x0
     ecb:	eb 50                	jmp    0xf1d
     ecd:	48 8b 45 f8          	mov    rax,QWORD PTR [rbp-0x8]
     ed1:	0f b6 80 01 02 00 00 	movzx  eax,BYTE PTR [rax+0x201]
     ed8:	0f b6 d0             	movzx  edx,al
     edb:	48 8b 45 f8          	mov    rax,QWORD PTR [rbp-0x8]
     edf:	48 63 d2             	movsxd rdx,edx
     ee2:	48 8b 4d f0          	mov    rcx,QWORD PTR [rbp-0x10]
     ee6:	48 89 0c d0          	mov    QWORD PTR [rax+rdx*8],rcx
     eea:	48 8b 45 f8          	mov    rax,QWORD PTR [rbp-0x8]
     eee:	0f b6 80 01 02 00 00 	movzx  eax,BYTE PTR [rax+0x201]
     ef5:	0f b6 c0             	movzx  eax,al
     ef8:	8d 50 01             	lea    edx,[rax+0x1]
     efb:	89 d0                	mov    eax,edx
     efd:	c1 f8 1f             	sar    eax,0x1f
     f00:	c1 e8 1a             	shr    eax,0x1a
     f03:	01 c2                	add    edx,eax
     f05:	83 e2 3f             	and    edx,0x3f
     f08:	29 c2                	sub    edx,eax
     f0a:	89 d0                	mov    eax,edx
     f0c:	89 c2                	mov    edx,eax
     f0e:	48 8b 45 f8          	mov    rax,QWORD PTR [rbp-0x8]
     f12:	88 90 01 02 00 00    	mov    BYTE PTR [rax+0x201],dl
     f18:	b8 01 00 00 00       	mov    eax,0x1
     f1d:	c9                   	leave  
     f1e:	c3                   	ret    
0x0000000000110f1f: dequeue_u64
     f1f:	55                   	push   rbp
     f20:	48 89 e5             	mov    rbp,rsp
     f23:	48 83 ec 10          	sub    rsp,0x10
     f27:	48 89 7d f8          	mov    QWORD PTR [rbp-0x8],rdi
     f2b:	48 89 75 f0          	mov    QWORD PTR [rbp-0x10],rsi
     f2f:	48 8b 45 f8          	mov    rax,QWORD PTR [rbp-0x8]
     f33:	48 89 c7             	mov    rdi,rax
     f36:	e8 fd fe ff ff       	call   0xe38
     f3b:	84 c0                	test   al,al
     f3d:	74 07                	je     0xf46
     f3f:	b8 00 00 00 00       	mov    eax,0x0
     f44:	eb 53                	jmp    0xf99
     f46:	48 8b 45 f8          	mov    rax,QWORD PTR [rbp-0x8]
     f4a:	0f b6 80 00 02 00 00 	movzx  eax,BYTE PTR [rax+0x200]
     f51:	0f b6 d0             	movzx  edx,al
     f54:	48 8b 45 f8          	mov    rax,QWORD PTR [rbp-0x8]
     f58:	48 63 d2             	movsxd rdx,edx
     f5b:	48 8b 14 d0          	mov    rdx,QWORD PTR [rax+rdx*8]
     f5f:	48 8b 45 f0          	mov    rax,QWORD PTR [rbp-0x10]
     f63:	48 89 10             	mov    QWORD PTR [rax],rdx
     f66:	48 8b 45 f8          	mov    rax,QWORD PTR [rbp-0x8]
     f6a:	0f b6 80 00 02 00 00 	movzx  eax,BYTE PTR [rax+0x200]
     f71:	0f b6 c0             	movzx  eax,al
     f74:	8d 50 01             	lea    edx,[rax+0x1]
     f77:	89 d0                	mov    eax,edx
     f79:	c1 f8 1f             	sar    eax,0x1f
     f7c:	c1 e8 1a             	shr    eax,0x1a
     f7f:	01 c2                	add    edx,eax
     f81:	83 e2 3f             	and    edx,0x3f
     f84:	29 c2                	sub    edx,eax
     f86:	89 d0                	mov    eax,edx
     f88:	89 c2                	mov    edx,eax
     f8a:	48 8b 45 f8          	mov    rax,QWORD PTR [rbp-0x8]
     f8e:	88 90 00 02 00 00    	mov    BYTE PTR [rax+0x200],dl
     f94:	b8 01 00 00 00       	mov    eax,0x1
     f99:	c9                   	leave  
     f9a:	c3                   	ret    
0x0000000000110f9b: flush_buf_u64
     f9b:	55                   	push   rbp
     f9c:	48 89 e5             	mov    rbp,rsp
     f9f:	48 83 ec 18          	sub    rsp,0x18
     fa3:	48 89 7d e8          	mov    QWORD PTR [rbp-0x18],rdi
     fa7:	c7 45 fc 00 00 00 00 	mov    DWORD PTR [rbp-0x4],0x0
     fae:	eb 16                	jmp    0xfc6
     fb0:	48 8b 45 e8          	mov    rax,QWORD PTR [rbp-0x18]
     fb4:	8b 55 fc             	mov    edx,DWORD PTR [rbp-0x4]
     fb7:	48 63 d2             	movsxd rdx,edx
     fba:	48 c7 04 d0 00 00 00 	mov    QWORD PTR [rax+rdx*8],0x0
     fc1:	00 
     fc2:	83 45 fc 01          	add    DWORD PTR [rbp-0x4],0x1
     fc6:	83 7d fc 3f          	cmp    DWORD PTR [rbp-0x4],0x3f
     fca:	7e e4                	jle    0xfb0
     fcc:	48 8b 45 e8          	mov    rax,QWORD PTR [rbp-0x18]
     fd0:	c6 80 00 02 00 00 00 	mov    BYTE PTR [rax+0x200],0x0
     fd7:	48 8b 45 e8          	mov    rax,QWORD PTR [rbp-0x18]
     fdb:	c6 80 01 02 00 00 00 	mov    BYTE PTR [rax+0x201],0x0
     fe2:	90                   	nop
     fe3:	c9                   	leave  
     fe4:	c3                   	ret    
0x0000000000110fe5: gen_buf_char
     fe5:	55                   	push   rbp
     fe6:	48 89 e5             	mov    rbp,rsp
     fe9:	48 83 ec 58          	sub    rsp,0x58
     fed:	48 89 7d a8          	mov    QWORD PTR [rbp-0x58],rdi
     ff1:	c7 45 fc 00 00 00 00 	mov    DWORD PTR [rbp-0x4],0x0
     ff8:	eb 0e                	jmp    0x1008
     ffa:	8b 45 fc             	mov    eax,DWORD PTR [rbp-0x4]
     ffd:	48 98                	cdqe   
     fff:	c6 44 05 ba 00       	mov    BYTE PTR [rbp+rax*1-0x46],0x0
    1004:	83 45 fc 01          	add    DWORD PTR [rbp-0x4],0x1
    1008:	83 7d fc 3f          	cmp    DWORD PTR [rbp-0x4],0x3f
    100c:	7e ec                	jle    0xffa
    100e:	c6 45 fa 00          	mov    BYTE PTR [rbp-0x6],0x0
    1012:	c6 45 fb 00          	mov    BYTE PTR [rbp-0x5],0x0
    1016:	48 8b 45 a8          	mov    rax,QWORD PTR [rbp-0x58]
    101a:	48 8b 55 ba          	mov    rdx,QWORD PTR [rbp-0x46]
    101e:	48 89 10             	mov    QWORD PTR [rax],rdx
    1021:	48 8b 55 c2          	mov    rdx,QWORD PTR [rbp-0x3e]
    1025:	48 89 50 08          	mov    QWORD PTR [rax+0x8],rdx
    1029:	48 8b 55 ca          	mov    rdx,QWORD PTR [rbp-0x36]
    102d:	48 89 50 10          	mov    QWORD PTR [rax+0x10],rdx
    1031:	48 8b 55 d2          	mov    rdx,QWORD PTR [rbp-0x2e]
    1035:	48 89 50 18          	mov    QWORD PTR [rax+0x18],rdx
    1039:	48 8b 55 da          	mov    rdx,QWORD PTR [rbp-0x26]
    103d:	48 89 50 20          	mov    QWORD PTR [rax+0x20],rdx
    1041:	48 8b 55 e2          	mov    rdx,QWORD PTR [rbp-0x1e]
    1045:	48 89 50 28          	mov    QWORD PTR [rax+0x28],rdx
    1049:	48 8b 55 ea          	mov    rdx,QWORD PTR [rbp-0x16]
    104d:	48 89 50 30          	mov    QWORD PTR [rax+0x30],rdx
    1051:	48 8b 55 f2          	mov    rdx,QWORD PTR [rbp-0xe]
    1055:	48 89 50 38          	mov    QWORD PTR [rax+0x38],rdx
    1059:	0f b7 55 fa          	movzx  edx,WORD PTR [rbp-0x6]
    105d:	66 89 50 40          	mov    WORD PTR [rax+0x40],dx
    1061:	48 8b 45 a8          	mov    rax,QWORD PTR [rbp-0x58]
    1065:	c9                   	leave  
    1066:	c3                   	ret    
0x0000000000111067: buf_char_isempty
    1067:	55                   	push   rbp
    1068:	48 89 e5             	mov    rbp,rsp
    106b:	48 83 ec 08          	sub    rsp,0x8
    106f:	48 89 7d f8          	mov    QWORD PTR [rbp-0x8],rdi
    1073:	48 8b 45 f8          	mov    rax,QWORD PTR [rbp-0x8]
    1077:	0f b6 50 40          	movzx  edx,BYTE PTR [rax+0x40]
    107b:	48 8b 45 f8          	mov    rax,QWORD PTR [rbp-0x8]
    107f:	0f b6 40 41          	movzx  eax,BYTE PTR [rax+0x41]
    1083:	38 c2                	cmp    dl,al
    1085:	0f 94 c0             	sete   al
    1088:	c9                   	leave  
    1089:	c3                   	ret    
0x000000000011108a: buf_char_isfull
    108a:	55                   	push   rbp
    108b:	48 89 e5             	mov    rbp,rsp
    108e:	48 83 ec 08          	sub    rsp,0x8
    1092:	48 89 7d f8          	mov    QWORD PTR [rbp-0x8],rdi
    1096:	48 8b 45 f8          	mov    rax,QWORD PTR [rbp-0x8]
    109a:	0f b6 40 41          	movzx  eax,BYTE PTR [rax+0x41]
    109e:	0f b6 c0             	movzx  eax,al
    10a1:	8d 50 01             	lea    edx,[rax+0x1]
    10a4:	89 d0                	mov    eax,edx
    10a6:	c1 f8 1f             	sar    eax,0x1f
    10a9:	c1 e8 1a             	shr    eax,0x1a
    10ac:	01 c2                	add    edx,eax
    10ae:	83 e2 3f             	and    edx,0x3f
    10b1:	29 c2                	sub    edx,eax
    10b3:	89 d0                	mov    eax,edx
    10b5:	89 c2                	mov    edx,eax
    10b7:	48 8b 45 f8          	mov    rax,QWORD PTR [rbp-0x8]
    10bb:	0f b6 40 40          	movzx  eax,BYTE PTR [rax+0x40]
    10bf:	0f b6 c0             	movzx  eax,al
    10c2:	39 c2                	cmp    edx,eax
    10c4:	0f 94 c0             	sete   al
    10c7:	c9                   	leave  
    10c8:	c3                   	ret    
0x00000000001110c9: enqueue_char
    10c9:	55                   	push   rbp
    10ca:	48 89 e5             	mov    rbp,rsp
    10cd:	48 83 ec 10          	sub    rsp,0x10
    10d1:	48 89 7d f8          	mov    QWORD PTR [rbp-0x8],rdi
    10d5:	89 f0                	mov    eax,esi
    10d7:	88 45 f4             	mov    BYTE PTR [rbp-0xc],al
    10da:	48 8b 45 f8          	mov    rax,QWORD PTR [rbp-0x8]
    10de:	48 89 c7             	mov    rdi,rax
    10e1:	e8 a4 ff ff ff       	call   0x108a
    10e6:	84 c0                	test   al,al
    10e8:	74 07                	je     0x10f1
    10ea:	b8 00 00 00 00       	mov    eax,0x0
    10ef:	eb 45                	jmp    0x1136
    10f1:	48 8b 45 f8          	mov    rax,QWORD PTR [rbp-0x8]
    10f5:	0f b6 40 41          	movzx  eax,BYTE PTR [rax+0x41]
    10f9:	0f b6 c0             	movzx  eax,al
    10fc:	48 8b 55 f8          	mov    rdx,QWORD PTR [rbp-0x8]
    1100:	48 98                	cdqe   
    1102:	0f b6 4d f4          	movzx  ecx,BYTE PTR [rbp-0xc]
    1106:	88 0c 02             	mov    BYTE PTR [rdx+rax*1],cl
    1109:	48 8b 45 f8          	mov    rax,QWORD PTR [rbp-0x8]
    110d:	0f b6 40 41          	movzx  eax,BYTE PTR [rax+0x41]
    1111:	0f b6 c0             	movzx  eax,al
    1114:	8d 50 01             	lea    edx,[rax+0x1]
    1117:	89 d0                	mov    eax,edx
    1119:	c1 f8 1f             	sar    eax,0x1f
    111c:	c1 e8 1a             	shr    eax,0x1a
    111f:	01 c2                	add    edx,eax
    1121:	83 e2 3f             	and    edx,0x3f
    1124:	29 c2                	sub    edx,eax
    1126:	89 d0                	mov    eax,edx
    1128:	89 c2                	mov    edx,eax
    112a:	48 8b 45 f8          	mov    rax,QWORD PTR [rbp-0x8]
    112e:	88 50 41             	mov    BYTE PTR [rax+0x41],dl
    1131:	b8 01 00 00 00       	mov    eax,0x1
    1136:	c9                   	leave  
    1137:	c3                   	ret    
0x0000000000111138: dequeue_char
    1138:	55                   	push   rbp
    1139:	48 89 e5             	mov    rbp,rsp
    113c:	48 83 ec 10          	sub    rsp,0x10
    1140:	48 89 7d f8          	mov    QWORD PTR [rbp-0x8],rdi
    1144:	48 89 75 f0          	mov    QWORD PTR [rbp-0x10],rsi
    1148:	48 8b 45 f8          	mov    rax,QWORD PTR [rbp-0x8]
    114c:	48 89 c7             	mov    rdi,rax
    114f:	e8 13 ff ff ff       	call   0x1067
    1154:	84 c0                	test   al,al
    1156:	74 07                	je     0x115f
    1158:	b8 00 00 00 00       	mov    eax,0x0
    115d:	eb 48                	jmp    0x11a7
    115f:	48 8b 45 f8          	mov    rax,QWORD PTR [rbp-0x8]
    1163:	0f b6 40 40          	movzx  eax,BYTE PTR [rax+0x40]
    1167:	0f b6 c0             	movzx  eax,al
    116a:	48 8b 55 f8          	mov    rdx,QWORD PTR [rbp-0x8]
    116e:	48 98                	cdqe   
    1170:	0f b6 14 02          	movzx  edx,BYTE PTR [rdx+rax*1]
    1174:	48 8b 45 f0          	mov    rax,QWORD PTR [rbp-0x10]
    1178:	88 10                	mov    BYTE PTR [rax],dl
    117a:	48 8b 45 f8          	mov    rax,QWORD PTR [rbp-0x8]
    117e:	0f b6 40 40          	movzx  eax,BYTE PTR [rax+0x40]
    1182:	0f b6 c0             	movzx  eax,al
    1185:	8d 50 01             	lea    edx,[rax+0x1]
    1188:	89 d0                	mov    eax,edx
    118a:	c1 f8 1f             	sar    eax,0x1f
    118d:	c1 e8 1a             	shr    eax,0x1a
    1190:	01 c2                	add    edx,eax
    1192:	83 e2 3f             	and    edx,0x3f
    1195:	29 c2                	sub    edx,eax
    1197:	89 d0                	mov    eax,edx
    1199:	89 c2                	mov    edx,eax
    119b:	48 8b 45 f8          	mov    rax,QWORD PTR [rbp-0x8]
    119f:	88 50 40             	mov    BYTE PTR [rax+0x40],dl
    11a2:	b8 01 00 00 00       	mov    eax,0x1
    11a7:	c9                   	leave  
    11a8:	c3                   	ret    
0x00000000001111a9: flush_buf_char
    11a9:	55                   	push   rbp
    11aa:	48 89 e5             	mov    rbp,rsp
    11ad:	48 83 ec 18          	sub    rsp,0x18
    11b1:	48 89 7d e8          	mov    QWORD PTR [rbp-0x18],rdi
    11b5:	c7 45 fc 00 00 00 00 	mov    DWORD PTR [rbp-0x4],0x0
    11bc:	eb 11                	jmp    0x11cf
    11be:	48 8b 55 e8          	mov    rdx,QWORD PTR [rbp-0x18]
    11c2:	8b 45 fc             	mov    eax,DWORD PTR [rbp-0x4]
    11c5:	48 98                	cdqe   
    11c7:	c6 04 02 00          	mov    BYTE PTR [rdx+rax*1],0x0
    11cb:	83 45 fc 01          	add    DWORD PTR [rbp-0x4],0x1
    11cf:	83 7d fc 3f          	cmp    DWORD PTR [rbp-0x4],0x3f
    11d3:	7e e9                	jle    0x11be
    11d5:	48 8b 45 e8          	mov    rax,QWORD PTR [rbp-0x18]
    11d9:	c6 40 40 00          	mov    BYTE PTR [rax+0x40],0x0
    11dd:	48 8b 45 e8          	mov    rax,QWORD PTR [rbp-0x18]
    11e1:	c6 40 41 00          	mov    BYTE PTR [rax+0x41],0x0
    11e5:	90                   	nop
    11e6:	c9                   	leave  
    11e7:	c3                   	ret    
0x00000000001111e8: flush_array_char
    11e8:	55                   	push   rbp
    11e9:	48 89 e5             	mov    rbp,rsp
    11ec:	48 83 ec 18          	sub    rsp,0x18
    11f0:	48 89 7d e8          	mov    QWORD PTR [rbp-0x18],rdi
    11f4:	c7 45 fc 00 00 00 00 	mov    DWORD PTR [rbp-0x4],0x0
    11fb:	eb 14                	jmp    0x1211
    11fd:	8b 45 fc             	mov    eax,DWORD PTR [rbp-0x4]
    1200:	48 63 d0             	movsxd rdx,eax
    1203:	48 8b 45 e8          	mov    rax,QWORD PTR [rbp-0x18]
    1207:	48 01 d0             	add    rax,rdx
    120a:	c6 00 00             	mov    BYTE PTR [rax],0x0
    120d:	83 45 fc 01          	add    DWORD PTR [rbp-0x4],0x1
    1211:	8b 45 fc             	mov    eax,DWORD PTR [rbp-0x4]
    1214:	48 63 d0             	movsxd rdx,eax
    1217:	48 8b 45 e8          	mov    rax,QWORD PTR [rbp-0x18]
    121b:	48 01 d0             	add    rax,rdx
    121e:	0f b6 00             	movzx  eax,BYTE PTR [rax]
    1221:	84 c0                	test   al,al
    1223:	75 d8                	jne    0x11fd
    1225:	8b 45 fc             	mov    eax,DWORD PTR [rbp-0x4]
    1228:	48 98                	cdqe   
    122a:	48 8d 50 01          	lea    rdx,[rax+0x1]
    122e:	48 8b 45 e8          	mov    rax,QWORD PTR [rbp-0x18]
    1232:	48 01 d0             	add    rax,rdx
    1235:	0f b6 00             	movzx  eax,BYTE PTR [rax]
    1238:	84 c0                	test   al,al
    123a:	75 c1                	jne    0x11fd
    123c:	90                   	nop
    123d:	c9                   	leave  
    123e:	c3                   	ret    
0x000000000011123f: flush_argv
    123f:	55                   	push   rbp
    1240:	48 89 e5             	mov    rbp,rsp
    1243:	48 83 ec 18          	sub    rsp,0x18
    1247:	48 89 7d e8          	mov    QWORD PTR [rbp-0x18],rdi
    124b:	c7 45 fc 00 00 00 00 	mov    DWORD PTR [rbp-0x4],0x0
    1252:	c7 45 f8 00 00 00 00 	mov    DWORD PTR [rbp-0x8],0x0
    1259:	eb 50                	jmp    0x12ab
    125b:	8b 45 fc             	mov    eax,DWORD PTR [rbp-0x4]
    125e:	48 98                	cdqe   
    1260:	48 8d 14 c5 00 00 00 	lea    rdx,[rax*8+0x0]
    1267:	00 
    1268:	48 8b 45 e8          	mov    rax,QWORD PTR [rbp-0x18]
    126c:	48 01 d0             	add    rax,rdx
    126f:	48 8b 10             	mov    rdx,QWORD PTR [rax]
    1272:	8b 45 f8             	mov    eax,DWORD PTR [rbp-0x8]
    1275:	48 98                	cdqe   
    1277:	48 01 d0             	add    rax,rdx
    127a:	c6 00 00             	mov    BYTE PTR [rax],0x0
    127d:	83 45 f8 01          	add    DWORD PTR [rbp-0x8],0x1
    1281:	8b 45 fc             	mov    eax,DWORD PTR [rbp-0x4]
    1284:	48 98                	cdqe   
    1286:	48 8d 14 c5 00 00 00 	lea    rdx,[rax*8+0x0]
    128d:	00 
    128e:	48 8b 45 e8          	mov    rax,QWORD PTR [rbp-0x18]
    1292:	48 01 d0             	add    rax,rdx
    1295:	48 8b 10             	mov    rdx,QWORD PTR [rax]
    1298:	8b 45 f8             	mov    eax,DWORD PTR [rbp-0x8]
    129b:	48 98                	cdqe   
    129d:	48 01 d0             	add    rax,rdx
    12a0:	0f b6 00             	movzx  eax,BYTE PTR [rax]
    12a3:	84 c0                	test   al,al
    12a5:	75 b4                	jne    0x125b
    12a7:	83 45 fc 01          	add    DWORD PTR [rbp-0x4],0x1
    12ab:	8b 45 fc             	mov    eax,DWORD PTR [rbp-0x4]
    12ae:	48 98                	cdqe   
    12b0:	48 8d 14 c5 00 00 00 	lea    rdx,[rax*8+0x0]
    12b7:	00 
    12b8:	48 8b 45 e8          	mov    rax,QWORD PTR [rbp-0x18]
    12bc:	48 01 d0             	add    rax,rdx
    12bf:	48 8b 00             	mov    rax,QWORD PTR [rax]
    12c2:	48 85 c0             	test   rax,rax
    12c5:	75 ba                	jne    0x1281
    12c7:	90                   	nop
    12c8:	c9                   	leave  
    12c9:	c3                   	ret    
0x00000000001112ca: comptext
    12ca:	55                   	push   rbp
    12cb:	48 89 e5             	mov    rbp,rsp
    12ce:	48 83 ec 20          	sub    rsp,0x20
    12d2:	48 89 7d e8          	mov    QWORD PTR [rbp-0x18],rdi
    12d6:	48 89 75 e0          	mov    QWORD PTR [rbp-0x20],rsi
    12da:	c7 45 fc 00 00 00 00 	mov    DWORD PTR [rbp-0x4],0x0
    12e1:	c7 45 f8 00 00 00 00 	mov    DWORD PTR [rbp-0x8],0x0
    12e8:	eb 04                	jmp    0x12ee
    12ea:	83 45 fc 01          	add    DWORD PTR [rbp-0x4],0x1
    12ee:	8b 45 fc             	mov    eax,DWORD PTR [rbp-0x4]
    12f1:	48 63 d0             	movsxd rdx,eax
    12f4:	48 8b 45 e8          	mov    rax,QWORD PTR [rbp-0x18]
    12f8:	48 01 d0             	add    rax,rdx
    12fb:	0f b6 00             	movzx  eax,BYTE PTR [rax]
    12fe:	84 c0                	test   al,al
    1300:	75 e8                	jne    0x12ea
    1302:	eb 04                	jmp    0x1308
    1304:	83 45 f8 01          	add    DWORD PTR [rbp-0x8],0x1
    1308:	8b 45 f8             	mov    eax,DWORD PTR [rbp-0x8]
    130b:	48 63 d0             	movsxd rdx,eax
    130e:	48 8b 45 e0          	mov    rax,QWORD PTR [rbp-0x20]
    1312:	48 01 d0             	add    rax,rdx
    1315:	0f b6 00             	movzx  eax,BYTE PTR [rax]
    1318:	84 c0                	test   al,al
    131a:	75 e8                	jne    0x1304
    131c:	8b 45 fc             	mov    eax,DWORD PTR [rbp-0x4]
    131f:	3b 45 f8             	cmp    eax,DWORD PTR [rbp-0x8]
    1322:	75 07                	jne    0x132b
    1324:	b8 00 00 00 00       	mov    eax,0x0
    1329:	eb 45                	jmp    0x1370
    132b:	c7 45 fc 00 00 00 00 	mov    DWORD PTR [rbp-0x4],0x0
    1332:	eb 2f                	jmp    0x1363
    1334:	8b 45 fc             	mov    eax,DWORD PTR [rbp-0x4]
    1337:	48 63 d0             	movsxd rdx,eax
    133a:	48 8b 45 e8          	mov    rax,QWORD PTR [rbp-0x18]
    133e:	48 01 d0             	add    rax,rdx
    1341:	0f b6 10             	movzx  edx,BYTE PTR [rax]
    1344:	8b 45 fc             	mov    eax,DWORD PTR [rbp-0x4]
    1347:	48 63 c8             	movsxd rcx,eax
    134a:	48 8b 45 e0          	mov    rax,QWORD PTR [rbp-0x20]
    134e:	48 01 c8             	add    rax,rcx
    1351:	0f b6 00             	movzx  eax,BYTE PTR [rax]
    1354:	38 c2                	cmp    dl,al
    1356:	74 07                	je     0x135f
    1358:	b8 00 00 00 00       	mov    eax,0x0
    135d:	eb 11                	jmp    0x1370
    135f:	83 45 fc 01          	add    DWORD PTR [rbp-0x4],0x1
    1363:	8b 45 fc             	mov    eax,DWORD PTR [rbp-0x4]
    1366:	3b 45 f8             	cmp    eax,DWORD PTR [rbp-0x8]
    1369:	7c c9                	jl     0x1334
    136b:	b8 01 00 00 00       	mov    eax,0x1
    1370:	c9                   	leave  
    1371:	c3                   	ret    
0x0000000000111372: strncmp
    1372:	55                   	push   rbp
    1373:	48 89 e5             	mov    rbp,rsp
    1376:	48 83 ec 28          	sub    rsp,0x28
    137a:	48 89 7d e8          	mov    QWORD PTR [rbp-0x18],rdi
    137e:	48 89 75 e0          	mov    QWORD PTR [rbp-0x20],rsi
    1382:	89 55 dc             	mov    DWORD PTR [rbp-0x24],edx
    1385:	c7 45 fc 00 00 00 00 	mov    DWORD PTR [rbp-0x4],0x0
    138c:	eb 5a                	jmp    0x13e8
    138e:	8b 45 fc             	mov    eax,DWORD PTR [rbp-0x4]
    1391:	48 63 d0             	movsxd rdx,eax
    1394:	48 8b 45 e8          	mov    rax,QWORD PTR [rbp-0x18]
    1398:	48 01 d0             	add    rax,rdx
    139b:	0f b6 10             	movzx  edx,BYTE PTR [rax]
    139e:	8b 45 fc             	mov    eax,DWORD PTR [rbp-0x4]
    13a1:	48 63 c8             	movsxd rcx,eax
    13a4:	48 8b 45 e0          	mov    rax,QWORD PTR [rbp-0x20]
    13a8:	48 01 c8             	add    rax,rcx
    13ab:	0f b6 00             	movzx  eax,BYTE PTR [rax]
    13ae:	38 c2                	cmp    dl,al
    13b0:	7e 07                	jle    0x13b9
    13b2:	b8 01 00 00 00       	mov    eax,0x1
    13b7:	eb 3c                	jmp    0x13f5
    13b9:	8b 45 fc             	mov    eax,DWORD PTR [rbp-0x4]
    13bc:	48 63 d0             	movsxd rdx,eax
    13bf:	48 8b 45 e8          	mov    rax,QWORD PTR [rbp-0x18]
    13c3:	48 01 d0             	add    rax,rdx
    13c6:	0f b6 10             	movzx  edx,BYTE PTR [rax]
    13c9:	8b 45 fc             	mov    eax,DWORD PTR [rbp-0x4]
    13cc:	48 63 c8             	movsxd rcx,eax
    13cf:	48 8b 45 e0          	mov    rax,QWORD PTR [rbp-0x20]
    13d3:	48 01 c8             	add    rax,rcx
    13d6:	0f b6 00             	movzx  eax,BYTE PTR [rax]
    13d9:	38 c2                	cmp    dl,al
    13db:	7d 07                	jge    0x13e4
    13dd:	b8 ff ff ff ff       	mov    eax,0xffffffff
    13e2:	eb 11                	jmp    0x13f5
    13e4:	83 45 fc 01          	add    DWORD PTR [rbp-0x4],0x1
    13e8:	8b 45 fc             	mov    eax,DWORD PTR [rbp-0x4]
    13eb:	3b 45 dc             	cmp    eax,DWORD PTR [rbp-0x24]
    13ee:	7c 9e                	jl     0x138e
    13f0:	b8 00 00 00 00       	mov    eax,0x0
    13f5:	c9                   	leave  
    13f6:	c3                   	ret    
0x00000000001113f7: sprintf
    13f7:	55                   	push   rbp
    13f8:	48 89 e5             	mov    rbp,rsp
    13fb:	48 83 ec 20          	sub    rsp,0x20
    13ff:	48 89 7d e8          	mov    QWORD PTR [rbp-0x18],rdi
    1403:	48 89 75 e0          	mov    QWORD PTR [rbp-0x20],rsi
    1407:	c6 45 ff 00          	mov    BYTE PTR [rbp-0x1],0x0
    140b:	eb 25                	jmp    0x1432
    140d:	0f b6 55 ff          	movzx  edx,BYTE PTR [rbp-0x1]
    1411:	48 8b 45 e8          	mov    rax,QWORD PTR [rbp-0x18]
    1415:	48 01 d0             	add    rax,rdx
    1418:	0f b6 4d ff          	movzx  ecx,BYTE PTR [rbp-0x1]
    141c:	48 8b 55 e0          	mov    rdx,QWORD PTR [rbp-0x20]
    1420:	48 01 ca             	add    rdx,rcx
    1423:	0f b6 00             	movzx  eax,BYTE PTR [rax]
    1426:	88 02                	mov    BYTE PTR [rdx],al
    1428:	0f b6 45 ff          	movzx  eax,BYTE PTR [rbp-0x1]
    142c:	83 c0 01             	add    eax,0x1
    142f:	88 45 ff             	mov    BYTE PTR [rbp-0x1],al
    1432:	0f b6 55 ff          	movzx  edx,BYTE PTR [rbp-0x1]
    1436:	48 8b 45 e8          	mov    rax,QWORD PTR [rbp-0x18]
    143a:	48 01 d0             	add    rax,rdx
    143d:	0f b6 00             	movzx  eax,BYTE PTR [rax]
    1440:	84 c0                	test   al,al
    1442:	75 c9                	jne    0x140d
    1444:	0f b6 55 ff          	movzx  edx,BYTE PTR [rbp-0x1]
    1448:	48 8b 45 e8          	mov    rax,QWORD PTR [rbp-0x18]
    144c:	48 01 d0             	add    rax,rdx
    144f:	0f b6 4d ff          	movzx  ecx,BYTE PTR [rbp-0x1]
    1453:	48 8b 55 e0          	mov    rdx,QWORD PTR [rbp-0x20]
    1457:	48 01 ca             	add    rdx,rcx
    145a:	0f b6 00             	movzx  eax,BYTE PTR [rax]
    145d:	88 02                	mov    BYTE PTR [rdx],al
    145f:	90                   	nop
    1460:	c9                   	leave  
    1461:	c3                   	ret    
0x0000000000111462: u64_to_hexstr
    1462:	55                   	push   rbp
    1463:	48 89 e5             	mov    rbp,rsp
    1466:	53                   	push   rbx
    1467:	48 81 ec a0 00 00 00 	sub    rsp,0xa0
    146e:	48 89 bd 60 ff ff ff 	mov    QWORD PTR [rbp-0xa0],rdi
    1475:	48 89 b5 58 ff ff ff 	mov    QWORD PTR [rbp-0xa8],rsi
    147c:	48 c7 45 f0 00 00 00 	mov    QWORD PTR [rbp-0x10],0x0
    1483:	00 
    1484:	e9 93 00 00 00       	jmp    0x151c
    1489:	48 8b 45 f0          	mov    rax,QWORD PTR [rbp-0x10]
    148d:	48 c1 e0 02          	shl    rax,0x2
    1491:	48 89 c6             	mov    rsi,rax
    1494:	bf 02 00 00 00       	mov    edi,0x2
    1499:	e8 f0 f8 ff ff       	call   0xd8e
    149e:	48 89 c3             	mov    rbx,rax
    14a1:	48 8b 45 f0          	mov    rax,QWORD PTR [rbp-0x10]
    14a5:	48 c1 e0 02          	shl    rax,0x2
    14a9:	48 83 c0 01          	add    rax,0x1
    14ad:	48 89 c6             	mov    rsi,rax
    14b0:	bf 02 00 00 00       	mov    edi,0x2
    14b5:	e8 d4 f8 ff ff       	call   0xd8e
    14ba:	48 01 c3             	add    rbx,rax
    14bd:	48 8b 45 f0          	mov    rax,QWORD PTR [rbp-0x10]
    14c1:	48 c1 e0 02          	shl    rax,0x2
    14c5:	48 83 c0 02          	add    rax,0x2
    14c9:	48 89 c6             	mov    rsi,rax
    14cc:	bf 02 00 00 00       	mov    edi,0x2
    14d1:	e8 b8 f8 ff ff       	call   0xd8e
    14d6:	48 01 c3             	add    rbx,rax
    14d9:	48 8b 45 f0          	mov    rax,QWORD PTR [rbp-0x10]
    14dd:	48 c1 e0 02          	shl    rax,0x2
    14e1:	48 83 c0 03          	add    rax,0x3
    14e5:	48 89 c6             	mov    rsi,rax
    14e8:	bf 02 00 00 00       	mov    edi,0x2
    14ed:	e8 9c f8 ff ff       	call   0xd8e
    14f2:	48 01 d8             	add    rax,rbx
    14f5:	48 23 85 58 ff ff ff 	and    rax,QWORD PTR [rbp-0xa8]
    14fc:	48 89 c2             	mov    rdx,rax
    14ff:	48 8b 45 f0          	mov    rax,QWORD PTR [rbp-0x10]
    1503:	c1 e0 02             	shl    eax,0x2
    1506:	89 c1                	mov    ecx,eax
    1508:	48 d3 ea             	shr    rdx,cl
    150b:	48 8b 45 f0          	mov    rax,QWORD PTR [rbp-0x10]
    150f:	48 89 94 c5 70 ff ff 	mov    QWORD PTR [rbp+rax*8-0x90],rdx
    1516:	ff 
    1517:	48 83 45 f0 01       	add    QWORD PTR [rbp-0x10],0x1
    151c:	48 83 7d f0 0f       	cmp    QWORD PTR [rbp-0x10],0xf
    1521:	0f 86 62 ff ff ff    	jbe    0x1489
    1527:	48 8b 85 60 ff ff ff 	mov    rax,QWORD PTR [rbp-0xa0]
    152e:	c6 00 30             	mov    BYTE PTR [rax],0x30
    1531:	48 8b 85 60 ff ff ff 	mov    rax,QWORD PTR [rbp-0xa0]
    1538:	48 83 c0 01          	add    rax,0x1
    153c:	c6 00 78             	mov    BYTE PTR [rax],0x78
    153f:	48 8b 85 60 ff ff ff 	mov    rax,QWORD PTR [rbp-0xa0]
    1546:	48 83 c0 12          	add    rax,0x12
    154a:	c6 00 00             	mov    BYTE PTR [rax],0x0
    154d:	48 c7 45 f0 00 00 00 	mov    QWORD PTR [rbp-0x10],0x0
    1554:	00 
    1555:	e9 b4 02 00 00       	jmp    0x180e
    155a:	48 8b 45 f0          	mov    rax,QWORD PTR [rbp-0x10]
    155e:	48 8b 84 c5 70 ff ff 	mov    rax,QWORD PTR [rbp+rax*8-0x90]
    1565:	ff 
    1566:	48 85 c0             	test   rax,rax
    1569:	75 19                	jne    0x1584
    156b:	b8 11 00 00 00       	mov    eax,0x11
    1570:	48 2b 45 f0          	sub    rax,QWORD PTR [rbp-0x10]
    1574:	48 89 c2             	mov    rdx,rax
    1577:	48 8b 85 60 ff ff ff 	mov    rax,QWORD PTR [rbp-0xa0]
    157e:	48 01 d0             	add    rax,rdx
    1581:	c6 00 30             	mov    BYTE PTR [rax],0x30
    1584:	48 8b 45 f0          	mov    rax,QWORD PTR [rbp-0x10]
    1588:	48 8b 84 c5 70 ff ff 	mov    rax,QWORD PTR [rbp+rax*8-0x90]
    158f:	ff 
    1590:	48 83 f8 01          	cmp    rax,0x1
    1594:	75 19                	jne    0x15af
    1596:	b8 11 00 00 00       	mov    eax,0x11
    159b:	48 2b 45 f0          	sub    rax,QWORD PTR [rbp-0x10]
    159f:	48 89 c2             	mov    rdx,rax
    15a2:	48 8b 85 60 ff ff ff 	mov    rax,QWORD PTR [rbp-0xa0]
    15a9:	48 01 d0             	add    rax,rdx
    15ac:	c6 00 31             	mov    BYTE PTR [rax],0x31
    15af:	48 8b 45 f0          	mov    rax,QWORD PTR [rbp-0x10]
    15b3:	48 8b 84 c5 70 ff ff 	mov    rax,QWORD PTR [rbp+rax*8-0x90]
    15ba:	ff 
    15bb:	48 83 f8 02          	cmp    rax,0x2
    15bf:	75 19                	jne    0x15da
    15c1:	b8 11 00 00 00       	mov    eax,0x11
    15c6:	48 2b 45 f0          	sub    rax,QWORD PTR [rbp-0x10]
    15ca:	48 89 c2             	mov    rdx,rax
    15cd:	48 8b 85 60 ff ff ff 	mov    rax,QWORD PTR [rbp-0xa0]
    15d4:	48 01 d0             	add    rax,rdx
    15d7:	c6 00 32             	mov    BYTE PTR [rax],0x32
    15da:	48 8b 45 f0          	mov    rax,QWORD PTR [rbp-0x10]
    15de:	48 8b 84 c5 70 ff ff 	mov    rax,QWORD PTR [rbp+rax*8-0x90]
    15e5:	ff 
    15e6:	48 83 f8 03          	cmp    rax,0x3
    15ea:	75 19                	jne    0x1605
    15ec:	b8 11 00 00 00       	mov    eax,0x11
    15f1:	48 2b 45 f0          	sub    rax,QWORD PTR [rbp-0x10]
    15f5:	48 89 c2             	mov    rdx,rax
    15f8:	48 8b 85 60 ff ff ff 	mov    rax,QWORD PTR [rbp-0xa0]
    15ff:	48 01 d0             	add    rax,rdx
    1602:	c6 00 33             	mov    BYTE PTR [rax],0x33
    1605:	48 8b 45 f0          	mov    rax,QWORD PTR [rbp-0x10]
    1609:	48 8b 84 c5 70 ff ff 	mov    rax,QWORD PTR [rbp+rax*8-0x90]
    1610:	ff 
    1611:	48 83 f8 04          	cmp    rax,0x4
    1615:	75 19                	jne    0x1630
    1617:	b8 11 00 00 00       	mov    eax,0x11
    161c:	48 2b 45 f0          	sub    rax,QWORD PTR [rbp-0x10]
    1620:	48 89 c2             	mov    rdx,rax
    1623:	48 8b 85 60 ff ff ff 	mov    rax,QWORD PTR [rbp-0xa0]
    162a:	48 01 d0             	add    rax,rdx
    162d:	c6 00 34             	mov    BYTE PTR [rax],0x34
    1630:	48 8b 45 f0          	mov    rax,QWORD PTR [rbp-0x10]
    1634:	48 8b 84 c5 70 ff ff 	mov    rax,QWORD PTR [rbp+rax*8-0x90]
    163b:	ff 
    163c:	48 83 f8 05          	cmp    rax,0x5
    1640:	75 19                	jne    0x165b
    1642:	b8 11 00 00 00       	mov    eax,0x11
    1647:	48 2b 45 f0          	sub    rax,QWORD PTR [rbp-0x10]
    164b:	48 89 c2             	mov    rdx,rax
    164e:	48 8b 85 60 ff ff ff 	mov    rax,QWORD PTR [rbp-0xa0]
    1655:	48 01 d0             	add    rax,rdx
    1658:	c6 00 35             	mov    BYTE PTR [rax],0x35
    165b:	48 8b 45 f0          	mov    rax,QWORD PTR [rbp-0x10]
    165f:	48 8b 84 c5 70 ff ff 	mov    rax,QWORD PTR [rbp+rax*8-0x90]
    1666:	ff 
    1667:	48 83 f8 06          	cmp    rax,0x6
    166b:	75 19                	jne    0x1686
    166d:	b8 11 00 00 00       	mov    eax,0x11
    1672:	48 2b 45 f0          	sub    rax,QWORD PTR [rbp-0x10]
    1676:	48 89 c2             	mov    rdx,rax
    1679:	48 8b 85 60 ff ff ff 	mov    rax,QWORD PTR [rbp-0xa0]
    1680:	48 01 d0             	add    rax,rdx
    1683:	c6 00 36             	mov    BYTE PTR [rax],0x36
    1686:	48 8b 45 f0          	mov    rax,QWORD PTR [rbp-0x10]
    168a:	48 8b 84 c5 70 ff ff 	mov    rax,QWORD PTR [rbp+rax*8-0x90]
    1691:	ff 
    1692:	48 83 f8 07          	cmp    rax,0x7
    1696:	75 19                	jne    0x16b1
    1698:	b8 11 00 00 00       	mov    eax,0x11
    169d:	48 2b 45 f0          	sub    rax,QWORD PTR [rbp-0x10]
    16a1:	48 89 c2             	mov    rdx,rax
    16a4:	48 8b 85 60 ff ff ff 	mov    rax,QWORD PTR [rbp-0xa0]
    16ab:	48 01 d0             	add    rax,rdx
    16ae:	c6 00 37             	mov    BYTE PTR [rax],0x37
    16b1:	48 8b 45 f0          	mov    rax,QWORD PTR [rbp-0x10]
    16b5:	48 8b 84 c5 70 ff ff 	mov    rax,QWORD PTR [rbp+rax*8-0x90]
    16bc:	ff 
    16bd:	48 83 f8 08          	cmp    rax,0x8
    16c1:	75 19                	jne    0x16dc
    16c3:	b8 11 00 00 00       	mov    eax,0x11
    16c8:	48 2b 45 f0          	sub    rax,QWORD PTR [rbp-0x10]
    16cc:	48 89 c2             	mov    rdx,rax
    16cf:	48 8b 85 60 ff ff ff 	mov    rax,QWORD PTR [rbp-0xa0]
    16d6:	48 01 d0             	add    rax,rdx
    16d9:	c6 00 38             	mov    BYTE PTR [rax],0x38
    16dc:	48 8b 45 f0          	mov    rax,QWORD PTR [rbp-0x10]
    16e0:	48 8b 84 c5 70 ff ff 	mov    rax,QWORD PTR [rbp+rax*8-0x90]
    16e7:	ff 
    16e8:	48 83 f8 09          	cmp    rax,0x9
    16ec:	75 19                	jne    0x1707
    16ee:	b8 11 00 00 00       	mov    eax,0x11
    16f3:	48 2b 45 f0          	sub    rax,QWORD PTR [rbp-0x10]
    16f7:	48 89 c2             	mov    rdx,rax
    16fa:	48 8b 85 60 ff ff ff 	mov    rax,QWORD PTR [rbp-0xa0]
    1701:	48 01 d0             	add    rax,rdx
    1704:	c6 00 39             	mov    BYTE PTR [rax],0x39
    1707:	48 8b 45 f0          	mov    rax,QWORD PTR [rbp-0x10]
    170b:	48 8b 84 c5 70 ff ff 	mov    rax,QWORD PTR [rbp+rax*8-0x90]
    1712:	ff 
    1713:	48 83 f8 0a          	cmp    rax,0xa
    1717:	75 19                	jne    0x1732
    1719:	b8 11 00 00 00       	mov    eax,0x11
    171e:	48 2b 45 f0          	sub    rax,QWORD PTR [rbp-0x10]
    1722:	48 89 c2             	mov    rdx,rax
    1725:	48 8b 85 60 ff ff ff 	mov    rax,QWORD PTR [rbp-0xa0]
    172c:	48 01 d0             	add    rax,rdx
    172f:	c6 00 61             	mov    BYTE PTR [rax],0x61
    1732:	48 8b 45 f0          	mov    rax,QWORD PTR [rbp-0x10]
    1736:	48 8b 84 c5 70 ff ff 	mov    rax,QWORD PTR [rbp+rax*8-0x90]
    173d:	ff 
    173e:	48 83 f8 0b          	cmp    rax,0xb
    1742:	75 19                	jne    0x175d
    1744:	b8 11 00 00 00       	mov    eax,0x11
    1749:	48 2b 45 f0          	sub    rax,QWORD PTR [rbp-0x10]
    174d:	48 89 c2             	mov    rdx,rax
    1750:	48 8b 85 60 ff ff ff 	mov    rax,QWORD PTR [rbp-0xa0]
    1757:	48 01 d0             	add    rax,rdx
    175a:	c6 00 62             	mov    BYTE PTR [rax],0x62
    175d:	48 8b 45 f0          	mov    rax,QWORD PTR [rbp-0x10]
    1761:	48 8b 84 c5 70 ff ff 	mov    rax,QWORD PTR [rbp+rax*8-0x90]
    1768:	ff 
    1769:	48 83 f8 0c          	cmp    rax,0xc
    176d:	75 19                	jne    0x1788
    176f:	b8 11 00 00 00       	mov    eax,0x11
    1774:	48 2b 45 f0          	sub    rax,QWORD PTR [rbp-0x10]
    1778:	48 89 c2             	mov    rdx,rax
    177b:	48 8b 85 60 ff ff ff 	mov    rax,QWORD PTR [rbp-0xa0]
    1782:	48 01 d0             	add    rax,rdx
    1785:	c6 00 63             	mov    BYTE PTR [rax],0x63
    1788:	48 8b 45 f0          	mov    rax,QWORD PTR [rbp-0x10]
    178c:	48 8b 84 c5 70 ff ff 	mov    rax,QWORD PTR [rbp+rax*8-0x90]
    1793:	ff 
    1794:	48 83 f8 0d          	cmp    rax,0xd
    1798:	75 19                	jne    0x17b3
    179a:	b8 11 00 00 00       	mov    eax,0x11
    179f:	48 2b 45 f0          	sub    rax,QWORD PTR [rbp-0x10]
    17a3:	48 89 c2             	mov    rdx,rax
    17a6:	48 8b 85 60 ff ff ff 	mov    rax,QWORD PTR [rbp-0xa0]
    17ad:	48 01 d0             	add    rax,rdx
    17b0:	c6 00 64             	mov    BYTE PTR [rax],0x64
    17b3:	48 8b 45 f0          	mov    rax,QWORD PTR [rbp-0x10]
    17b7:	48 8b 84 c5 70 ff ff 	mov    rax,QWORD PTR [rbp+rax*8-0x90]
    17be:	ff 
    17bf:	48 83 f8 0e          	cmp    rax,0xe
    17c3:	75 19                	jne    0x17de
    17c5:	b8 11 00 00 00       	mov    eax,0x11
    17ca:	48 2b 45 f0          	sub    rax,QWORD PTR [rbp-0x10]
    17ce:	48 89 c2             	mov    rdx,rax
    17d1:	48 8b 85 60 ff ff ff 	mov    rax,QWORD PTR [rbp-0xa0]
    17d8:	48 01 d0             	add    rax,rdx
    17db:	c6 00 65             	mov    BYTE PTR [rax],0x65
    17de:	48 8b 45 f0          	mov    rax,QWORD PTR [rbp-0x10]
    17e2:	48 8b 84 c5 70 ff ff 	mov    rax,QWORD PTR [rbp+rax*8-0x90]
    17e9:	ff 
    17ea:	48 83 f8 0f          	cmp    rax,0xf
    17ee:	75 19                	jne    0x1809
    17f0:	b8 11 00 00 00       	mov    eax,0x11
    17f5:	48 2b 45 f0          	sub    rax,QWORD PTR [rbp-0x10]
    17f9:	48 89 c2             	mov    rdx,rax
    17fc:	48 8b 85 60 ff ff ff 	mov    rax,QWORD PTR [rbp-0xa0]
    1803:	48 01 d0             	add    rax,rdx
    1806:	c6 00 66             	mov    BYTE PTR [rax],0x66
    1809:	48 83 45 f0 01       	add    QWORD PTR [rbp-0x10],0x1
    180e:	48 83 7d f0 0f       	cmp    QWORD PTR [rbp-0x10],0xf
    1813:	0f 86 41 fd ff ff    	jbe    0x155a
    1819:	90                   	nop
    181a:	48 81 c4 a0 00 00 00 	add    rsp,0xa0
    1821:	5b                   	pop    rbx
    1822:	5d                   	pop    rbp
    1823:	c3                   	ret    
0x0000000000111824: demchar_to_u64
    1824:	55                   	push   rbp
    1825:	48 89 e5             	mov    rbp,rsp
    1828:	48 83 ec 08          	sub    rsp,0x8
    182c:	89 f8                	mov    eax,edi
    182e:	88 45 fc             	mov    BYTE PTR [rbp-0x4],al
    1831:	80 7d fc 30          	cmp    BYTE PTR [rbp-0x4],0x30
    1835:	75 07                	jne    0x183e
    1837:	b8 00 00 00 00       	mov    eax,0x0
    183c:	eb 7a                	jmp    0x18b8
    183e:	80 7d fc 31          	cmp    BYTE PTR [rbp-0x4],0x31
    1842:	75 07                	jne    0x184b
    1844:	b8 01 00 00 00       	mov    eax,0x1
    1849:	eb 6d                	jmp    0x18b8
    184b:	80 7d fc 32          	cmp    BYTE PTR [rbp-0x4],0x32
    184f:	75 07                	jne    0x1858
    1851:	b8 02 00 00 00       	mov    eax,0x2
    1856:	eb 60                	jmp    0x18b8
    1858:	80 7d fc 33          	cmp    BYTE PTR [rbp-0x4],0x33
    185c:	75 07                	jne    0x1865
    185e:	b8 03 00 00 00       	mov    eax,0x3
    1863:	eb 53                	jmp    0x18b8
    1865:	80 7d fc 34          	cmp    BYTE PTR [rbp-0x4],0x34
    1869:	75 07                	jne    0x1872
    186b:	b8 04 00 00 00       	mov    eax,0x4
    1870:	eb 46                	jmp    0x18b8
    1872:	80 7d fc 35          	cmp    BYTE PTR [rbp-0x4],0x35
    1876:	75 07                	jne    0x187f
    1878:	b8 05 00 00 00       	mov    eax,0x5
    187d:	eb 39                	jmp    0x18b8
    187f:	80 7d fc 36          	cmp    BYTE PTR [rbp-0x4],0x36
    1883:	75 07                	jne    0x188c
    1885:	b8 06 00 00 00       	mov    eax,0x6
    188a:	eb 2c                	jmp    0x18b8
    188c:	80 7d fc 37          	cmp    BYTE PTR [rbp-0x4],0x37
    1890:	75 07                	jne    0x1899
    1892:	b8 07 00 00 00       	mov    eax,0x7
    1897:	eb 1f                	jmp    0x18b8
    1899:	80 7d fc 38          	cmp    BYTE PTR [rbp-0x4],0x38
    189d:	75 07                	jne    0x18a6
    189f:	b8 08 00 00 00       	mov    eax,0x8
    18a4:	eb 12                	jmp    0x18b8
    18a6:	80 7d fc 39          	cmp    BYTE PTR [rbp-0x4],0x39
    18aa:	75 07                	jne    0x18b3
    18ac:	b8 09 00 00 00       	mov    eax,0x9
    18b1:	eb 05                	jmp    0x18b8
    18b3:	b8 00 00 00 00       	mov    eax,0x0
    18b8:	c9                   	leave  
    18b9:	c3                   	ret    
0x00000000001118ba: demstr_to_u64
    18ba:	55                   	push   rbp
    18bb:	48 89 e5             	mov    rbp,rsp
    18be:	41 54                	push   r12
    18c0:	53                   	push   rbx
    18c1:	48 83 ec 40          	sub    rsp,0x40
    18c5:	48 89 7d b8          	mov    QWORD PTR [rbp-0x48],rdi
    18c9:	c6 45 df 00          	mov    BYTE PTR [rbp-0x21],0x0
    18cd:	48 c7 45 e0 00 00 00 	mov    QWORD PTR [rbp-0x20],0x0
    18d4:	00 
    18d5:	eb 0a                	jmp    0x18e1
    18d7:	0f b6 45 df          	movzx  eax,BYTE PTR [rbp-0x21]
    18db:	83 c0 01             	add    eax,0x1
    18de:	88 45 df             	mov    BYTE PTR [rbp-0x21],al
    18e1:	0f b6 55 df          	movzx  edx,BYTE PTR [rbp-0x21]
    18e5:	48 8b 45 b8          	mov    rax,QWORD PTR [rbp-0x48]
    18e9:	48 01 d0             	add    rax,rdx
    18ec:	0f b6 00             	movzx  eax,BYTE PTR [rax]
    18ef:	84 c0                	test   al,al
    18f1:	75 e4                	jne    0x18d7
    18f3:	0f b6 45 df          	movzx  eax,BYTE PTR [rbp-0x21]
    18f7:	48 89 e2             	mov    rdx,rsp
    18fa:	49 89 d4             	mov    r12,rdx
    18fd:	0f b6 d0             	movzx  edx,al
    1900:	48 83 ea 01          	sub    rdx,0x1
    1904:	48 89 55 d0          	mov    QWORD PTR [rbp-0x30],rdx
    1908:	0f b6 d0             	movzx  edx,al
    190b:	49 89 d0             	mov    r8,rdx
    190e:	41 b9 00 00 00 00    	mov    r9d,0x0
    1914:	0f b6 d0             	movzx  edx,al
    1917:	48 89 d1             	mov    rcx,rdx
    191a:	bb 00 00 00 00       	mov    ebx,0x0
    191f:	0f b6 c0             	movzx  eax,al
    1922:	48 c1 e0 03          	shl    rax,0x3
    1926:	48 8d 50 07          	lea    rdx,[rax+0x7]
    192a:	b8 10 00 00 00       	mov    eax,0x10
    192f:	48 83 e8 01          	sub    rax,0x1
    1933:	48 01 d0             	add    rax,rdx
    1936:	be 10 00 00 00       	mov    esi,0x10
    193b:	ba 00 00 00 00       	mov    edx,0x0
    1940:	48 f7 f6             	div    rsi
    1943:	48 6b c0 10          	imul   rax,rax,0x10
    1947:	48 29 c4             	sub    rsp,rax
    194a:	48 89 e0             	mov    rax,rsp
    194d:	48 83 c0 07          	add    rax,0x7
    1951:	48 c1 e8 03          	shr    rax,0x3
    1955:	48 c1 e0 03          	shl    rax,0x3
    1959:	48 89 45 c8          	mov    QWORD PTR [rbp-0x38],rax
    195d:	c7 45 e8 00 00 00 00 	mov    DWORD PTR [rbp-0x18],0x0
    1964:	eb 36                	jmp    0x199c
    1966:	0f b6 45 df          	movzx  eax,BYTE PTR [rbp-0x21]
    196a:	83 e8 01             	sub    eax,0x1
    196d:	2b 45 e8             	sub    eax,DWORD PTR [rbp-0x18]
    1970:	48 63 d0             	movsxd rdx,eax
    1973:	48 8b 45 b8          	mov    rax,QWORD PTR [rbp-0x48]
    1977:	48 01 d0             	add    rax,rdx
    197a:	0f b6 00             	movzx  eax,BYTE PTR [rax]
    197d:	0f be c0             	movsx  eax,al
    1980:	89 c7                	mov    edi,eax
    1982:	e8 9d fe ff ff       	call   0x1824
    1987:	48 89 c1             	mov    rcx,rax
    198a:	48 8b 45 c8          	mov    rax,QWORD PTR [rbp-0x38]
    198e:	8b 55 e8             	mov    edx,DWORD PTR [rbp-0x18]
    1991:	48 63 d2             	movsxd rdx,edx
    1994:	48 89 0c d0          	mov    QWORD PTR [rax+rdx*8],rcx
    1998:	83 45 e8 01          	add    DWORD PTR [rbp-0x18],0x1
    199c:	0f b6 45 df          	movzx  eax,BYTE PTR [rbp-0x21]
    19a0:	39 45 e8             	cmp    DWORD PTR [rbp-0x18],eax
    19a3:	7c c1                	jl     0x1966
    19a5:	c7 45 ec 00 00 00 00 	mov    DWORD PTR [rbp-0x14],0x0
    19ac:	eb 2c                	jmp    0x19da
    19ae:	48 8b 45 c8          	mov    rax,QWORD PTR [rbp-0x38]
    19b2:	8b 55 ec             	mov    edx,DWORD PTR [rbp-0x14]
    19b5:	48 63 d2             	movsxd rdx,edx
    19b8:	48 8b 1c d0          	mov    rbx,QWORD PTR [rax+rdx*8]
    19bc:	8b 45 ec             	mov    eax,DWORD PTR [rbp-0x14]
    19bf:	48 98                	cdqe   
    19c1:	48 89 c6             	mov    rsi,rax
    19c4:	bf 0a 00 00 00       	mov    edi,0xa
    19c9:	e8 c0 f3 ff ff       	call   0xd8e
    19ce:	48 0f af c3          	imul   rax,rbx
    19d2:	48 01 45 e0          	add    QWORD PTR [rbp-0x20],rax
    19d6:	83 45 ec 01          	add    DWORD PTR [rbp-0x14],0x1
    19da:	0f b6 45 df          	movzx  eax,BYTE PTR [rbp-0x21]
    19de:	39 45 ec             	cmp    DWORD PTR [rbp-0x14],eax
    19e1:	7c cb                	jl     0x19ae
    19e3:	48 8b 45 e0          	mov    rax,QWORD PTR [rbp-0x20]
    19e7:	4c 89 e4             	mov    rsp,r12
    19ea:	48 8d 65 f0          	lea    rsp,[rbp-0x10]
    19ee:	5b                   	pop    rbx
    19ef:	41 5c                	pop    r12
    19f1:	5d                   	pop    rbp
    19f2:	c3                   	ret    
0x00000000001119f3: null_to_space
    19f3:	55                   	push   rbp
    19f4:	48 89 e5             	mov    rbp,rsp
    19f7:	48 83 ec 20          	sub    rsp,0x20
    19fb:	48 89 7d e8          	mov    QWORD PTR [rbp-0x18],rdi
    19ff:	89 75 e4             	mov    DWORD PTR [rbp-0x1c],esi
    1a02:	c7 45 fc 00 00 00 00 	mov    DWORD PTR [rbp-0x4],0x0
    1a09:	eb 28                	jmp    0x1a33
    1a0b:	8b 45 fc             	mov    eax,DWORD PTR [rbp-0x4]
    1a0e:	48 63 d0             	movsxd rdx,eax
    1a11:	48 8b 45 e8          	mov    rax,QWORD PTR [rbp-0x18]
    1a15:	48 01 d0             	add    rax,rdx
    1a18:	0f b6 00             	movzx  eax,BYTE PTR [rax]
    1a1b:	84 c0                	test   al,al
    1a1d:	75 10                	jne    0x1a2f
    1a1f:	8b 45 fc             	mov    eax,DWORD PTR [rbp-0x4]
    1a22:	48 63 d0             	movsxd rdx,eax
    1a25:	48 8b 45 e8          	mov    rax,QWORD PTR [rbp-0x18]
    1a29:	48 01 d0             	add    rax,rdx
    1a2c:	c6 00 20             	mov    BYTE PTR [rax],0x20
    1a2f:	83 45 fc 01          	add    DWORD PTR [rbp-0x4],0x1
    1a33:	8b 45 fc             	mov    eax,DWORD PTR [rbp-0x4]
    1a36:	3b 45 e4             	cmp    eax,DWORD PTR [rbp-0x1c]
    1a39:	7c d0                	jl     0x1a0b
    1a3b:	90                   	nop
    1a3c:	c9                   	leave  
    1a3d:	c3                   	ret    
0x0000000000111a3e: io_cli
    1a3e:	fa                   	cli    
    1a3f:	c3                   	ret    
0x0000000000111a40: io_sti
    1a40:	fb                   	sti    
    1a41:	c3                   	ret    
0x0000000000111a42: io_inb
    1a42:	48 89 fa             	mov    rdx,rdi
    1a45:	ec                   	in     al,dx
    1a46:	c3                   	ret    
0x0000000000111a47: io_in32
    1a47:	48 89 fa             	mov    rdx,rdi
    1a4a:	ed                   	in     eax,dx
    1a4b:	c3                   	ret    
0x0000000000111a4c: io_outb
    1a4c:	48 89 fa             	mov    rdx,rdi
    1a4f:	48 89 f0             	mov    rax,rsi
    1a52:	ee                   	out    dx,al
    1a53:	c3                   	ret    
0x0000000000111a54: io_out32
    1a54:	48 89 fa             	mov    rdx,rdi
    1a57:	48 89 f0             	mov    rax,rsi
    1a5a:	ef                   	out    dx,eax
    1a5b:	c3                   	ret    
0x0000000000111a5c: io_rdmsr
    1a5c:	48 89 f9             	mov    rcx,rdi
    1a5f:	0f 32                	rdmsr  
    1a61:	48 c1 ea 20          	shr    rdx,0x20
    1a65:	48 09 d0             	or     rax,rdx
    1a68:	c3                   	ret    
0x0000000000111a69: io_wrmsr
    1a69:	48 89 fa             	mov    rdx,rdi
    1a6c:	48 89 f0             	mov    rax,rsi
    1a6f:	0f 30                	wrmsr  
    1a71:	c3                   	ret    
0x0000000000111a72: init_irq
    1a72:	b0 11                	mov    al,0x11
    1a74:	e6 20                	out    0x20,al
    1a76:	b0 20                	mov    al,0x20
    1a78:	e6 21                	out    0x21,al
    1a7a:	b0 04                	mov    al,0x4
    1a7c:	e6 21                	out    0x21,al
    1a7e:	b0 11                	mov    al,0x11
    1a80:	e6 a0                	out    0xa0,al
    1a82:	b0 28                	mov    al,0x28
    1a84:	e6 a1                	out    0xa1,al
    1a86:	b0 02                	mov    al,0x2
    1a88:	e6 a1                	out    0xa1,al
    1a8a:	b0 04                	mov    al,0x4
    1a8c:	e6 21                	out    0x21,al
    1a8e:	b0 02                	mov    al,0x2
    1a90:	e6 a1                	out    0xa1,al
    1a92:	b0 01                	mov    al,0x1
    1a94:	e6 21                	out    0x21,al
    1a96:	e6 a1                	out    0xa1,al
    1a98:	c3                   	ret    
0x0000000000111a99: send_eoi
    1a99:	b0 20                	mov    al,0x20
    1a9b:	e6 20                	out    0x20,al
    1a9d:	c3                   	ret    
0x0000000000111a9e: set_rflags
    1a9e:	57                   	push   rdi
    1a9f:	9d                   	popf   
    1aa0:	c3                   	ret    
0x0000000000111aa1: init_bss
    1aa1:	55                   	push   rbp
    1aa2:	48 89 e5             	mov    rbp,rsp
    1aa5:	48 83 ec 10          	sub    rsp,0x10
    1aa9:	48 8b 05 60 67 03 00 	mov    rax,QWORD PTR [rip+0x36760]        # 0x38210
    1ab0:	48 89 c2             	mov    rdx,rax
    1ab3:	48 8b 05 ae 60 00 00 	mov    rax,QWORD PTR [rip+0x60ae]        # 0x7b68
    1aba:	48 29 c2             	sub    rdx,rax
    1abd:	48 89 d0             	mov    rax,rdx
    1ac0:	48 c1 f8 02          	sar    rax,0x2
    1ac4:	89 45 f8             	mov    DWORD PTR [rbp-0x8],eax
    1ac7:	c7 45 fc 00 00 00 00 	mov    DWORD PTR [rbp-0x4],0x0
    1ace:	eb 1e                	jmp    0x1aee
    1ad0:	48 8b 05 91 60 00 00 	mov    rax,QWORD PTR [rip+0x6091]        # 0x7b68
    1ad7:	8b 55 fc             	mov    edx,DWORD PTR [rbp-0x4]
    1ada:	48 63 d2             	movsxd rdx,edx
    1add:	48 c1 e2 02          	shl    rdx,0x2
    1ae1:	48 01 d0             	add    rax,rdx
    1ae4:	c7 00 00 00 00 00    	mov    DWORD PTR [rax],0x0
    1aea:	83 45 fc 01          	add    DWORD PTR [rbp-0x4],0x1
    1aee:	8b 45 fc             	mov    eax,DWORD PTR [rbp-0x4]
    1af1:	3b 45 f8             	cmp    eax,DWORD PTR [rbp-0x8]
    1af4:	7c da                	jl     0x1ad0
    1af6:	90                   	nop
    1af7:	c9                   	leave  
    1af8:	c3                   	ret    
0x0000000000111af9: init_global_variables
    1af9:	55                   	push   rbp
    1afa:	48 89 e5             	mov    rbp,rsp
    1afd:	48 83 ec 08          	sub    rsp,0x8
    1b01:	48 89 7d f8          	mov    QWORD PTR [rbp-0x8],rdi
    1b05:	48 8b 45 f8          	mov    rax,QWORD PTR [rbp-0x8]
    1b09:	48 8b 40 20          	mov    rax,QWORD PTR [rax+0x20]
    1b0d:	48 89 05 5c 60 00 00 	mov    QWORD PTR [rip+0x605c],rax        # 0x7b70
    1b14:	48 8b 45 f8          	mov    rax,QWORD PTR [rbp-0x8]
    1b18:	48 89 05 49 60 00 00 	mov    QWORD PTR [rip+0x6049],rax        # 0x7b68
    1b1f:	48 8b 45 f8          	mov    rax,QWORD PTR [rbp-0x8]
    1b23:	48 8b 40 28          	mov    rax,QWORD PTR [rax+0x28]
    1b27:	48 89 05 4a 60 00 00 	mov    QWORD PTR [rip+0x604a],rax        # 0x7b78
    1b2e:	48 8b 45 f8          	mov    rax,QWORD PTR [rbp-0x8]
    1b32:	48 8b 40 30          	mov    rax,QWORD PTR [rax+0x30]
    1b36:	48 89 05 43 60 00 00 	mov    QWORD PTR [rip+0x6043],rax        # 0x7b80
    1b3d:	48 8b 45 f8          	mov    rax,QWORD PTR [rbp-0x8]
    1b41:	48 8b 40 38          	mov    rax,QWORD PTR [rax+0x38]
    1b45:	48 89 05 3c 60 00 00 	mov    QWORD PTR [rip+0x603c],rax        # 0x7b88
    1b4c:	90                   	nop
    1b4d:	c9                   	leave  
    1b4e:	c3                   	ret    
0x0000000000111b4f: init_gdt
    1b4f:	55                   	push   rbp
    1b50:	48 89 e5             	mov    rbp,rsp
    1b53:	53                   	push   rbx
    1b54:	48 83 ec 08          	sub    rsp,0x8
    1b58:	48 8b 1d a9 59 00 00 	mov    rbx,QWORD PTR [rip+0x59a9]        # 0x7508
    1b5f:	ba 01 00 00 00       	mov    edx,0x1
    1b64:	be 00 00 00 00       	mov    esi,0x0
    1b69:	bf 00 00 00 00       	mov    edi,0x0
    1b6e:	e8 7f 05 00 00       	call   0x20f2
    1b73:	48 89 03             	mov    QWORD PTR [rbx],rax
    1b76:	48 8b 05 8b 59 00 00 	mov    rax,QWORD PTR [rip+0x598b]        # 0x7508
    1b7d:	48 8d 58 08          	lea    rbx,[rax+0x8]
    1b81:	ba 00 00 00 00       	mov    edx,0x0
    1b86:	be 00 00 00 00       	mov    esi,0x0
    1b8b:	bf 05 00 00 00       	mov    edi,0x5
    1b90:	e8 5d 05 00 00       	call   0x20f2
    1b95:	48 89 03             	mov    QWORD PTR [rbx],rax
    1b98:	48 8b 05 69 59 00 00 	mov    rax,QWORD PTR [rip+0x5969]        # 0x7508
    1b9f:	48 8d 58 10          	lea    rbx,[rax+0x10]
    1ba3:	ba 00 00 00 00       	mov    edx,0x0
    1ba8:	be 00 00 00 00       	mov    esi,0x0
    1bad:	bf 01 00 00 00       	mov    edi,0x1
    1bb2:	e8 3b 05 00 00       	call   0x20f2
    1bb7:	48 89 03             	mov    QWORD PTR [rbx],rax
    1bba:	48 8b 05 47 59 00 00 	mov    rax,QWORD PTR [rip+0x5947]        # 0x7508
    1bc1:	be 18 00 00 00       	mov    esi,0x18
    1bc6:	48 89 c7             	mov    rdi,rax
    1bc9:	e8 d6 06 00 00       	call   0x22a4
    1bce:	bf 08 00 00 00       	mov    edi,0x8
    1bd3:	e8 e4 06 00 00       	call   0x22bc
    1bd8:	90                   	nop
    1bd9:	48 83 c4 08          	add    rsp,0x8
    1bdd:	5b                   	pop    rbx
    1bde:	5d                   	pop    rbp
    1bdf:	c3                   	ret    
0x0000000000111be0: init_paging
    1be0:	55                   	push   rbp
    1be1:	48 89 e5             	mov    rbp,rsp
    1be4:	48 8b 15 35 59 00 00 	mov    rdx,QWORD PTR [rip+0x5935]        # 0x7520
    1beb:	48 8b 0d 26 59 00 00 	mov    rcx,QWORD PTR [rip+0x5926]        # 0x7518
    1bf2:	48 8b 05 17 59 00 00 	mov    rax,QWORD PTR [rip+0x5917]        # 0x7510
    1bf9:	48 89 ce             	mov    rsi,rcx
    1bfc:	48 89 c7             	mov    rdi,rax
    1bff:	e8 41 05 00 00       	call   0x2145
    1c04:	48 8b 05 05 59 00 00 	mov    rax,QWORD PTR [rip+0x5905]        # 0x7510
    1c0b:	48 89 c7             	mov    rdi,rax
    1c0e:	e8 86 06 00 00       	call   0x2299
    1c13:	90                   	nop
    1c14:	5d                   	pop    rbp
    1c15:	c3                   	ret    
0x0000000000111c16: init_graphics
    1c16:	55                   	push   rbp
    1c17:	48 89 e5             	mov    rbp,rsp
    1c1a:	48 83 ec 20          	sub    rsp,0x20
    1c1e:	48 8b 05 43 5f 00 00 	mov    rax,QWORD PTR [rip+0x5f43]        # 0x7b68
    1c25:	8b 40 10             	mov    eax,DWORD PTR [rax+0x10]
    1c28:	89 45 f4             	mov    DWORD PTR [rbp-0xc],eax
    1c2b:	48 8b 05 36 5f 00 00 	mov    rax,QWORD PTR [rip+0x5f36]        # 0x7b68
    1c32:	8b 40 14             	mov    eax,DWORD PTR [rax+0x14]
    1c35:	89 45 f0             	mov    DWORD PTR [rbp-0x10],eax
    1c38:	48 8b 05 29 5f 00 00 	mov    rax,QWORD PTR [rip+0x5f29]        # 0x7b68
    1c3f:	8b 40 18             	mov    eax,DWORD PTR [rax+0x18]
    1c42:	89 45 ec             	mov    DWORD PTR [rbp-0x14],eax
    1c45:	48 8b 05 1c 5f 00 00 	mov    rax,QWORD PTR [rip+0x5f1c]        # 0x7b68
    1c4c:	48 8b 00             	mov    rax,QWORD PTR [rax]
    1c4f:	48 89 45 e0          	mov    QWORD PTR [rbp-0x20],rax
    1c53:	c7 45 fc 00 00 00 00 	mov    DWORD PTR [rbp-0x4],0x0
    1c5a:	eb 40                	jmp    0x1c9c
    1c5c:	c7 45 f8 00 00 00 00 	mov    DWORD PTR [rbp-0x8],0x0
    1c63:	eb 2b                	jmp    0x1c90
    1c65:	8b 45 fc             	mov    eax,DWORD PTR [rbp-0x4]
    1c68:	0f af 45 ec          	imul   eax,DWORD PTR [rbp-0x14]
    1c6c:	89 c2                	mov    edx,eax
    1c6e:	8b 45 f8             	mov    eax,DWORD PTR [rbp-0x8]
    1c71:	01 d0                	add    eax,edx
    1c73:	89 c0                	mov    eax,eax
    1c75:	48 8d 14 85 00 00 00 	lea    rdx,[rax*4+0x0]
    1c7c:	00 
    1c7d:	48 8b 45 e0          	mov    rax,QWORD PTR [rbp-0x20]
    1c81:	48 01 c2             	add    rdx,rax
    1c84:	8b 05 a6 5e 00 00    	mov    eax,DWORD PTR [rip+0x5ea6]        # 0x7b30
    1c8a:	89 02                	mov    DWORD PTR [rdx],eax
    1c8c:	83 45 f8 01          	add    DWORD PTR [rbp-0x8],0x1
    1c90:	8b 45 f8             	mov    eax,DWORD PTR [rbp-0x8]
    1c93:	3b 45 f4             	cmp    eax,DWORD PTR [rbp-0xc]
    1c96:	72 cd                	jb     0x1c65
    1c98:	83 45 fc 01          	add    DWORD PTR [rbp-0x4],0x1
    1c9c:	8b 45 fc             	mov    eax,DWORD PTR [rbp-0x4]
    1c9f:	3b 45 f0             	cmp    eax,DWORD PTR [rbp-0x10]
    1ca2:	72 b8                	jb     0x1c5c
    1ca4:	90                   	nop
    1ca5:	c9                   	leave  
    1ca6:	c3                   	ret    
0x0000000000111ca7: init_interrupt
    1ca7:	55                   	push   rbp
    1ca8:	48 89 e5             	mov    rbp,rsp
    1cab:	53                   	push   rbx
    1cac:	48 83 ec 18          	sub    rsp,0x18
    1cb0:	c7 45 ec 00 00 00 00 	mov    DWORD PTR [rbp-0x14],0x0
    1cb7:	eb 39                	jmp    0x1cf2
    1cb9:	bf 83 41 11 00       	mov    edi,0x114183
    1cbe:	48 8b 05 63 58 00 00 	mov    rax,QWORD PTR [rip+0x5863]        # 0x7528
    1cc5:	8b 55 ec             	mov    edx,DWORD PTR [rbp-0x14]
    1cc8:	48 63 d2             	movsxd rdx,edx
    1ccb:	48 c1 e2 04          	shl    rdx,0x4
    1ccf:	48 8d 1c 10          	lea    rbx,[rax+rdx*1]
    1cd3:	b9 00 00 00 00       	mov    ecx,0x0
    1cd8:	ba 00 00 00 00       	mov    edx,0x0
    1cdd:	be 00 00 00 00       	mov    esi,0x0
    1ce2:	e8 6c 06 00 00       	call   0x2353
    1ce7:	48 89 03             	mov    QWORD PTR [rbx],rax
    1cea:	48 89 53 08          	mov    QWORD PTR [rbx+0x8],rdx
    1cee:	83 45 ec 01          	add    DWORD PTR [rbp-0x14],0x1
    1cf2:	81 7d ec ff 00 00 00 	cmp    DWORD PTR [rbp-0x14],0xff
    1cf9:	7e be                	jle    0x1cb9
    1cfb:	b8 89 24 11 00       	mov    eax,0x112489
    1d00:	48 8b 1d 21 58 00 00 	mov    rbx,QWORD PTR [rip+0x5821]        # 0x7528
    1d07:	b9 00 00 00 00       	mov    ecx,0x0
    1d0c:	ba 00 00 00 00       	mov    edx,0x0
    1d11:	be 00 00 00 00       	mov    esi,0x0
    1d16:	48 89 c7             	mov    rdi,rax
    1d19:	e8 35 06 00 00       	call   0x2353
    1d1e:	48 89 03             	mov    QWORD PTR [rbx],rax
    1d21:	48 89 53 08          	mov    QWORD PTR [rbx+0x8],rdx
    1d25:	bf 97 25 11 00       	mov    edi,0x112597
    1d2a:	48 8b 05 f7 57 00 00 	mov    rax,QWORD PTR [rip+0x57f7]        # 0x7528
    1d31:	48 8d 58 10          	lea    rbx,[rax+0x10]
    1d35:	b9 00 00 00 00       	mov    ecx,0x0
    1d3a:	ba 00 00 00 00       	mov    edx,0x0
    1d3f:	be 00 00 00 00       	mov    esi,0x0
    1d44:	e8 0a 06 00 00       	call   0x2353
    1d49:	48 89 03             	mov    QWORD PTR [rbx],rax
    1d4c:	48 89 53 08          	mov    QWORD PTR [rbx+0x8],rdx
    1d50:	bf a5 26 11 00       	mov    edi,0x1126a5
    1d55:	48 8b 05 cc 57 00 00 	mov    rax,QWORD PTR [rip+0x57cc]        # 0x7528
    1d5c:	48 8d 58 20          	lea    rbx,[rax+0x20]
    1d60:	b9 00 00 00 00       	mov    ecx,0x0
    1d65:	ba 00 00 00 00       	mov    edx,0x0
    1d6a:	be 00 00 00 00       	mov    esi,0x0
    1d6f:	e8 df 05 00 00       	call   0x2353
    1d74:	48 89 03             	mov    QWORD PTR [rbx],rax
    1d77:	48 89 53 08          	mov    QWORD PTR [rbx+0x8],rdx
    1d7b:	bf b3 27 11 00       	mov    edi,0x1127b3
    1d80:	48 8b 05 a1 57 00 00 	mov    rax,QWORD PTR [rip+0x57a1]        # 0x7528
    1d87:	48 8d 58 30          	lea    rbx,[rax+0x30]
    1d8b:	b9 00 00 00 00       	mov    ecx,0x0
    1d90:	ba 00 00 00 00       	mov    edx,0x0
    1d95:	be 00 00 00 00       	mov    esi,0x0
    1d9a:	e8 b4 05 00 00       	call   0x2353
    1d9f:	48 89 03             	mov    QWORD PTR [rbx],rax
    1da2:	48 89 53 08          	mov    QWORD PTR [rbx+0x8],rdx
    1da6:	bf 32 2b 11 00       	mov    edi,0x112b32
    1dab:	48 8b 05 76 57 00 00 	mov    rax,QWORD PTR [rip+0x5776]        # 0x7528
    1db2:	48 8d 58 40          	lea    rbx,[rax+0x40]
    1db6:	b9 00 00 00 00       	mov    ecx,0x0
    1dbb:	ba 00 00 00 00       	mov    edx,0x0
    1dc0:	be 00 00 00 00       	mov    esi,0x0
    1dc5:	e8 89 05 00 00       	call   0x2353
    1dca:	48 89 03             	mov    QWORD PTR [rbx],rax
    1dcd:	48 89 53 08          	mov    QWORD PTR [rbx+0x8],rdx
    1dd1:	bf 40 2c 11 00       	mov    edi,0x112c40
    1dd6:	48 8b 05 4b 57 00 00 	mov    rax,QWORD PTR [rip+0x574b]        # 0x7528
    1ddd:	48 8d 58 50          	lea    rbx,[rax+0x50]
    1de1:	b9 00 00 00 00       	mov    ecx,0x0
    1de6:	ba 00 00 00 00       	mov    edx,0x0
    1deb:	be 00 00 00 00       	mov    esi,0x0
    1df0:	e8 5e 05 00 00       	call   0x2353
    1df5:	48 89 03             	mov    QWORD PTR [rbx],rax
    1df8:	48 89 53 08          	mov    QWORD PTR [rbx+0x8],rdx
    1dfc:	bf 4e 2d 11 00       	mov    edi,0x112d4e
    1e01:	48 8b 05 20 57 00 00 	mov    rax,QWORD PTR [rip+0x5720]        # 0x7528
    1e08:	48 8d 58 60          	lea    rbx,[rax+0x60]
    1e0c:	b9 00 00 00 00       	mov    ecx,0x0
    1e11:	ba 00 00 00 00       	mov    edx,0x0
    1e16:	be 00 00 00 00       	mov    esi,0x0
    1e1b:	e8 33 05 00 00       	call   0x2353
    1e20:	48 89 03             	mov    QWORD PTR [rbx],rax
    1e23:	48 89 53 08          	mov    QWORD PTR [rbx+0x8],rdx
    1e27:	bf b8 30 11 00       	mov    edi,0x1130b8
    1e2c:	48 8b 05 f5 56 00 00 	mov    rax,QWORD PTR [rip+0x56f5]        # 0x7528
    1e33:	48 8d 58 70          	lea    rbx,[rax+0x70]
    1e37:	b9 00 00 00 00       	mov    ecx,0x0
    1e3c:	ba 00 00 00 00       	mov    edx,0x0
    1e41:	be 00 00 00 00       	mov    esi,0x0
    1e46:	e8 08 05 00 00       	call   0x2353
    1e4b:	48 89 03             	mov    QWORD PTR [rbx],rax
    1e4e:	48 89 53 08          	mov    QWORD PTR [rbx+0x8],rdx
    1e52:	bf c6 31 11 00       	mov    edi,0x1131c6
    1e57:	48 8b 05 ca 56 00 00 	mov    rax,QWORD PTR [rip+0x56ca]        # 0x7528
    1e5e:	48 8d 98 80 00 00 00 	lea    rbx,[rax+0x80]
    1e65:	b9 00 00 00 00       	mov    ecx,0x0
    1e6a:	ba 00 00 00 00       	mov    edx,0x0
    1e6f:	be 00 00 00 00       	mov    esi,0x0
    1e74:	e8 da 04 00 00       	call   0x2353
    1e79:	48 89 03             	mov    QWORD PTR [rbx],rax
    1e7c:	48 89 53 08          	mov    QWORD PTR [rbx+0x8],rdx
    1e80:	bf f2 32 11 00       	mov    edi,0x1132f2
    1e85:	48 8b 05 9c 56 00 00 	mov    rax,QWORD PTR [rip+0x569c]        # 0x7528
    1e8c:	48 8d 98 a0 00 00 00 	lea    rbx,[rax+0xa0]
    1e93:	b9 00 00 00 00       	mov    ecx,0x0
    1e98:	ba 00 00 00 00       	mov    edx,0x0
    1e9d:	be 00 00 00 00       	mov    esi,0x0
    1ea2:	e8 ac 04 00 00       	call   0x2353
    1ea7:	48 89 03             	mov    QWORD PTR [rbx],rax
    1eaa:	48 89 53 08          	mov    QWORD PTR [rbx+0x8],rdx
    1eae:	bf 1e 34 11 00       	mov    edi,0x11341e
    1eb3:	48 8b 05 6e 56 00 00 	mov    rax,QWORD PTR [rip+0x566e]        # 0x7528
    1eba:	48 8d 98 b0 00 00 00 	lea    rbx,[rax+0xb0]
    1ec1:	b9 00 00 00 00       	mov    ecx,0x0
    1ec6:	ba 00 00 00 00       	mov    edx,0x0
    1ecb:	be 00 00 00 00       	mov    esi,0x0
    1ed0:	e8 7e 04 00 00       	call   0x2353
    1ed5:	48 89 03             	mov    QWORD PTR [rbx],rax
    1ed8:	48 89 53 08          	mov    QWORD PTR [rbx+0x8],rdx
    1edc:	bf 4a 35 11 00       	mov    edi,0x11354a
    1ee1:	48 8b 05 40 56 00 00 	mov    rax,QWORD PTR [rip+0x5640]        # 0x7528
    1ee8:	48 8d 98 c0 00 00 00 	lea    rbx,[rax+0xc0]
    1eef:	b9 00 00 00 00       	mov    ecx,0x0
    1ef4:	ba 00 00 00 00       	mov    edx,0x0
    1ef9:	be 00 00 00 00       	mov    esi,0x0
    1efe:	e8 50 04 00 00       	call   0x2353
    1f03:	48 89 03             	mov    QWORD PTR [rbx],rax
    1f06:	48 89 53 08          	mov    QWORD PTR [rbx+0x8],rdx
    1f0a:	bf 76 36 11 00       	mov    edi,0x113676
    1f0f:	48 8b 05 12 56 00 00 	mov    rax,QWORD PTR [rip+0x5612]        # 0x7528
    1f16:	48 8d 98 d0 00 00 00 	lea    rbx,[rax+0xd0]
    1f1d:	b9 00 00 00 00       	mov    ecx,0x0
    1f22:	ba 00 00 00 00       	mov    edx,0x0
    1f27:	be 00 00 00 00       	mov    esi,0x0
    1f2c:	e8 22 04 00 00       	call   0x2353
    1f31:	48 89 03             	mov    QWORD PTR [rbx],rax
    1f34:	48 89 53 08          	mov    QWORD PTR [rbx+0x8],rdx
    1f38:	bf a2 37 11 00       	mov    edi,0x1137a2
    1f3d:	48 8b 05 e4 55 00 00 	mov    rax,QWORD PTR [rip+0x55e4]        # 0x7528
    1f44:	48 8d 98 e0 00 00 00 	lea    rbx,[rax+0xe0]
    1f4b:	b9 00 00 00 00       	mov    ecx,0x0
    1f50:	ba 00 00 00 00       	mov    edx,0x0
    1f55:	be 00 00 00 00       	mov    esi,0x0
    1f5a:	e8 f4 03 00 00       	call   0x2353
    1f5f:	48 89 03             	mov    QWORD PTR [rbx],rax
    1f62:	48 89 53 08          	mov    QWORD PTR [rbx+0x8],rdx
    1f66:	bf 20 3b 11 00       	mov    edi,0x113b20
    1f6b:	48 8b 05 b6 55 00 00 	mov    rax,QWORD PTR [rip+0x55b6]        # 0x7528
    1f72:	48 8d 98 00 01 00 00 	lea    rbx,[rax+0x100]
    1f79:	b9 00 00 00 00       	mov    ecx,0x0
    1f7e:	ba 00 00 00 00       	mov    edx,0x0
    1f83:	be 00 00 00 00       	mov    esi,0x0
    1f88:	e8 c6 03 00 00       	call   0x2353
    1f8d:	48 89 03             	mov    QWORD PTR [rbx],rax
    1f90:	48 89 53 08          	mov    QWORD PTR [rbx+0x8],rdx
    1f94:	bf 2e 3c 11 00       	mov    edi,0x113c2e
    1f99:	48 8b 05 88 55 00 00 	mov    rax,QWORD PTR [rip+0x5588]        # 0x7528
    1fa0:	48 8d 98 10 01 00 00 	lea    rbx,[rax+0x110]
    1fa7:	b9 00 00 00 00       	mov    ecx,0x0
    1fac:	ba 00 00 00 00       	mov    edx,0x0
    1fb1:	be 00 00 00 00       	mov    esi,0x0
    1fb6:	e8 98 03 00 00       	call   0x2353
    1fbb:	48 89 03             	mov    QWORD PTR [rbx],rax
    1fbe:	48 89 53 08          	mov    QWORD PTR [rbx+0x8],rdx
    1fc2:	bf 5a 3d 11 00       	mov    edi,0x113d5a
    1fc7:	48 8b 05 5a 55 00 00 	mov    rax,QWORD PTR [rip+0x555a]        # 0x7528
    1fce:	48 8d 98 20 01 00 00 	lea    rbx,[rax+0x120]
    1fd5:	b9 00 00 00 00       	mov    ecx,0x0
    1fda:	ba 00 00 00 00       	mov    edx,0x0
    1fdf:	be 00 00 00 00       	mov    esi,0x0
    1fe4:	e8 6a 03 00 00       	call   0x2353
    1fe9:	48 89 03             	mov    QWORD PTR [rbx],rax
    1fec:	48 89 53 08          	mov    QWORD PTR [rbx+0x8],rdx
    1ff0:	bf 68 3e 11 00       	mov    edi,0x113e68
    1ff5:	48 8b 05 2c 55 00 00 	mov    rax,QWORD PTR [rip+0x552c]        # 0x7528
    1ffc:	48 8d 98 30 01 00 00 	lea    rbx,[rax+0x130]
    2003:	b9 00 00 00 00       	mov    ecx,0x0
    2008:	ba 00 00 00 00       	mov    edx,0x0
    200d:	be 00 00 00 00       	mov    esi,0x0
    2012:	e8 3c 03 00 00       	call   0x2353
    2017:	48 89 03             	mov    QWORD PTR [rbx],rax
    201a:	48 89 53 08          	mov    QWORD PTR [rbx+0x8],rdx
    201e:	bf 76 3f 11 00       	mov    edi,0x113f76
    2023:	48 8b 05 fe 54 00 00 	mov    rax,QWORD PTR [rip+0x54fe]        # 0x7528
    202a:	48 8d 98 00 02 00 00 	lea    rbx,[rax+0x200]
    2031:	b9 00 00 00 00       	mov    ecx,0x0
    2036:	ba 00 00 00 00       	mov    edx,0x0
    203b:	be 00 00 00 00       	mov    esi,0x0
    2040:	e8 0e 03 00 00       	call   0x2353
    2045:	48 89 03             	mov    QWORD PTR [rbx],rax
    2048:	48 89 53 08          	mov    QWORD PTR [rbx+0x8],rdx
    204c:	bf 43 40 11 00       	mov    edi,0x114043
    2051:	48 8b 05 d0 54 00 00 	mov    rax,QWORD PTR [rip+0x54d0]        # 0x7528
    2058:	48 8d 98 10 02 00 00 	lea    rbx,[rax+0x210]
    205f:	b9 00 00 00 00       	mov    ecx,0x0
    2064:	ba 00 00 00 00       	mov    edx,0x0
    2069:	be 00 00 00 00       	mov    esi,0x0
    206e:	e8 e0 02 00 00       	call   0x2353
    2073:	48 89 03             	mov    QWORD PTR [rbx],rax
    2076:	48 89 53 08          	mov    QWORD PTR [rbx+0x8],rdx
    207a:	bf b3 40 11 00       	mov    edi,0x1140b3
    207f:	48 8b 05 a2 54 00 00 	mov    rax,QWORD PTR [rip+0x54a2]        # 0x7528
    2086:	48 8d 98 40 02 00 00 	lea    rbx,[rax+0x240]
    208d:	b9 00 00 00 00       	mov    ecx,0x0
    2092:	ba 00 00 00 00       	mov    edx,0x0
    2097:	be 00 00 00 00       	mov    esi,0x0
    209c:	e8 b2 02 00 00       	call   0x2353
    20a1:	48 89 03             	mov    QWORD PTR [rbx],rax
    20a4:	48 89 53 08          	mov    QWORD PTR [rbx+0x8],rdx
    20a8:	bf 28 41 11 00       	mov    edi,0x114128
    20ad:	48 8b 05 74 54 00 00 	mov    rax,QWORD PTR [rip+0x5474]        # 0x7528
    20b4:	48 8d 98 c0 02 00 00 	lea    rbx,[rax+0x2c0]
    20bb:	b9 00 00 00 00       	mov    ecx,0x0
    20c0:	ba 00 00 00 00       	mov    edx,0x0
    20c5:	be 00 00 00 00       	mov    esi,0x0
    20ca:	e8 84 02 00 00       	call   0x2353
    20cf:	48 89 03             	mov    QWORD PTR [rbx],rax
    20d2:	48 89 53 08          	mov    QWORD PTR [rbx+0x8],rdx
    20d6:	48 8b 05 4b 54 00 00 	mov    rax,QWORD PTR [rip+0x544b]        # 0x7528
    20dd:	be ff 0f 00 00       	mov    esi,0xfff
    20e2:	48 89 c7             	mov    rdi,rax
    20e5:	e8 51 02 00 00       	call   0x233b
    20ea:	90                   	nop
    20eb:	48 83 c4 18          	add    rsp,0x18
    20ef:	5b                   	pop    rbx
    20f0:	5d                   	pop    rbp
    20f1:	c3                   	ret    
0x00000000001120f2: make_segment_descriptor
    20f2:	55                   	push   rbp
    20f3:	48 89 e5             	mov    rbp,rsp
    20f6:	48 83 ec 20          	sub    rsp,0x20
    20fa:	89 7d ec             	mov    DWORD PTR [rbp-0x14],edi
    20fd:	89 75 e8             	mov    DWORD PTR [rbp-0x18],esi
    2100:	89 55 e4             	mov    DWORD PTR [rbp-0x1c],edx
    2103:	48 c7 45 f8 00 00 00 	mov    QWORD PTR [rbp-0x8],0x0
    210a:	00 
    210b:	8b 45 ec             	mov    eax,DWORD PTR [rbp-0x14]
    210e:	48 c1 e0 29          	shl    rax,0x29
    2112:	48 09 45 f8          	or     QWORD PTR [rbp-0x8],rax
    2116:	8b 45 e8             	mov    eax,DWORD PTR [rbp-0x18]
    2119:	48 c1 e0 2d          	shl    rax,0x2d
    211d:	48 09 45 f8          	or     QWORD PTR [rbp-0x8],rax
    2121:	83 7d e4 00          	cmp    DWORD PTR [rbp-0x1c],0x0
    2125:	75 10                	jne    0x2137
    2127:	48 b8 00 00 00 00 00 	movabs rax,0xa0900000000000
    212e:	90 a0 00 
    2131:	48 09 45 f8          	or     QWORD PTR [rbp-0x8],rax
    2135:	eb 08                	jmp    0x213f
    2137:	48 c7 45 f8 00 00 00 	mov    QWORD PTR [rbp-0x8],0x0
    213e:	00 
    213f:	48 8b 45 f8          	mov    rax,QWORD PTR [rbp-0x8]
    2143:	c9                   	leave  
    2144:	c3                   	ret    
0x0000000000112145: create_pgtable
    2145:	55                   	push   rbp
    2146:	48 89 e5             	mov    rbp,rsp
    2149:	48 83 ec 28          	sub    rsp,0x28
    214d:	48 89 7d e8          	mov    QWORD PTR [rbp-0x18],rdi
    2151:	48 89 75 e0          	mov    QWORD PTR [rbp-0x20],rsi
    2155:	48 89 55 d8          	mov    QWORD PTR [rbp-0x28],rdx
    2159:	c7 45 fc 00 00 00 00 	mov    DWORD PTR [rbp-0x4],0x0
    2160:	eb 3a                	jmp    0x219c
    2162:	8b 45 fc             	mov    eax,DWORD PTR [rbp-0x4]
    2165:	48 98                	cdqe   
    2167:	48 8d 14 c5 00 00 00 	lea    rdx,[rax*8+0x0]
    216e:	00 
    216f:	48 8b 45 e8          	mov    rax,QWORD PTR [rbp-0x18]
    2173:	48 01 d0             	add    rax,rdx
    2176:	48 c7 00 00 00 00 00 	mov    QWORD PTR [rax],0x0
    217d:	8b 45 fc             	mov    eax,DWORD PTR [rbp-0x4]
    2180:	48 98                	cdqe   
    2182:	48 8d 14 c5 00 00 00 	lea    rdx,[rax*8+0x0]
    2189:	00 
    218a:	48 8b 45 e0          	mov    rax,QWORD PTR [rbp-0x20]
    218e:	48 01 d0             	add    rax,rdx
    2191:	48 c7 00 00 00 00 00 	mov    QWORD PTR [rax],0x0
    2198:	83 45 fc 01          	add    DWORD PTR [rbp-0x4],0x1
    219c:	81 7d fc ff 01 00 00 	cmp    DWORD PTR [rbp-0x4],0x1ff
    21a3:	7e bd                	jle    0x2162
    21a5:	c7 45 fc 00 00 00 00 	mov    DWORD PTR [rbp-0x4],0x0
    21ac:	eb 1f                	jmp    0x21cd
    21ae:	8b 45 fc             	mov    eax,DWORD PTR [rbp-0x4]
    21b1:	48 98                	cdqe   
    21b3:	48 8d 14 c5 00 00 00 	lea    rdx,[rax*8+0x0]
    21ba:	00 
    21bb:	48 8b 45 d8          	mov    rax,QWORD PTR [rbp-0x28]
    21bf:	48 01 d0             	add    rax,rdx
    21c2:	48 c7 00 00 00 00 00 	mov    QWORD PTR [rax],0x0
    21c9:	83 45 fc 01          	add    DWORD PTR [rbp-0x4],0x1
    21cd:	81 7d fc ff 1f 00 00 	cmp    DWORD PTR [rbp-0x4],0x1fff
    21d4:	7e d8                	jle    0x21ae
    21d6:	c7 45 fc 00 00 00 00 	mov    DWORD PTR [rbp-0x4],0x0
    21dd:	eb 2a                	jmp    0x2209
    21df:	8b 45 fc             	mov    eax,DWORD PTR [rbp-0x4]
    21e2:	48 98                	cdqe   
    21e4:	48 c1 e0 15          	shl    rax,0x15
    21e8:	48 89 c2             	mov    rdx,rax
    21eb:	8b 45 fc             	mov    eax,DWORD PTR [rbp-0x4]
    21ee:	48 98                	cdqe   
    21f0:	48 8d 0c c5 00 00 00 	lea    rcx,[rax*8+0x0]
    21f7:	00 
    21f8:	48 8b 45 d8          	mov    rax,QWORD PTR [rbp-0x28]
    21fc:	48 01 c8             	add    rax,rcx
    21ff:	80 ca 83             	or     dl,0x83
    2202:	48 89 10             	mov    QWORD PTR [rax],rdx
    2205:	83 45 fc 01          	add    DWORD PTR [rbp-0x4],0x1
    2209:	81 7d fc ff 1f 00 00 	cmp    DWORD PTR [rbp-0x4],0x1fff
    2210:	7e cd                	jle    0x21df
    2212:	c7 45 fc 00 00 00 00 	mov    DWORD PTR [rbp-0x4],0x0
    2219:	eb 38                	jmp    0x2253
    221b:	8b 45 fc             	mov    eax,DWORD PTR [rbp-0x4]
    221e:	48 98                	cdqe   
    2220:	48 c1 e0 0c          	shl    rax,0xc
    2224:	48 89 c2             	mov    rdx,rax
    2227:	48 8b 45 d8          	mov    rax,QWORD PTR [rbp-0x28]
    222b:	48 01 d0             	add    rax,rdx
    222e:	48 89 c1             	mov    rcx,rax
    2231:	8b 45 fc             	mov    eax,DWORD PTR [rbp-0x4]
    2234:	48 98                	cdqe   
    2236:	48 8d 14 c5 00 00 00 	lea    rdx,[rax*8+0x0]
    223d:	00 
    223e:	48 8b 45 e0          	mov    rax,QWORD PTR [rbp-0x20]
    2242:	48 01 d0             	add    rax,rdx
    2245:	48 83 c9 03          	or     rcx,0x3
    2249:	48 89 ca             	mov    rdx,rcx
    224c:	48 89 10             	mov    QWORD PTR [rax],rdx
    224f:	83 45 fc 01          	add    DWORD PTR [rbp-0x4],0x1
    2253:	83 7d fc 0f          	cmp    DWORD PTR [rbp-0x4],0xf
    2257:	7e c2                	jle    0x221b
    2259:	48 8b 45 e0          	mov    rax,QWORD PTR [rbp-0x20]
    225d:	48 83 c8 03          	or     rax,0x3
    2261:	48 89 c2             	mov    rdx,rax
    2264:	48 8b 45 e8          	mov    rax,QWORD PTR [rbp-0x18]
    2268:	48 89 10             	mov    QWORD PTR [rax],rdx
    226b:	90                   	nop
    226c:	c9                   	leave  
    226d:	c3                   	ret    
0x000000000011226e: memory_test
    226e:	55                   	push   rbp
    226f:	48 89 e5             	mov    rbp,rsp
    2272:	48 8b 05 97 5f 03 00 	mov    rax,QWORD PTR [rip+0x35f97]        # 0x38210
    2279:	48 89 c7             	mov    rdi,rax
    227c:	e8 d5 20 00 00       	call   0x4356
    2281:	bf a0 5f 11 00       	mov    edi,0x115fa0
    2286:	e8 78 20 00 00       	call   0x4303
    228b:	90                   	nop
    228c:	5d                   	pop    rbp
    228d:	c3                   	ret    
0x000000000011228e: load_cr0
    228e:	0f 20 c0             	mov    rax,cr0
    2291:	c3                   	ret    
0x0000000000112292: store_cr0
    2292:	48 89 f8             	mov    rax,rdi
    2295:	0f 22 c0             	mov    cr0,rax
    2298:	c3                   	ret    
0x0000000000112299: load_pgtable
    2299:	48 89 f9             	mov    rcx,rdi
    229c:	48 83 c9 18          	or     rcx,0x18
    22a0:	0f 22 d9             	mov    cr3,rcx
    22a3:	c3                   	ret    
0x00000000001122a4: load_gdt
    22a4:	48 89 f8             	mov    rax,rdi
    22a7:	48 89 f1             	mov    rcx,rsi
    22aa:	48 c7 c2 10 00 00 00 	mov    rdx,0x10
    22b1:	66 89 0a             	mov    WORD PTR [rdx],cx
    22b4:	48 89 42 02          	mov    QWORD PTR [rdx+0x2],rax
    22b8:	0f 01 12             	lgdt   [rdx]
    22bb:	c3                   	ret    
0x00000000001122bc: set_segment_register
    22bc:	fa                   	cli    
    22bd:	66 b8 00 00          	mov    ax,0x0
    22c1:	8e d8                	mov    ds,eax
    22c3:	8e c0                	mov    es,eax
    22c5:	8e d0                	mov    ss,eax
    22c7:	8e e8                	mov    gs,eax
    22c9:	8e e0                	mov    fs,eax
    22cb:	48 89 e1             	mov    rcx,rsp
    22ce:	6a 00                	push   0x0
    22d0:	51                   	push   rcx
    22d1:	9c                   	pushf  
    22d2:	57                   	push   rdi
    22d3:	48 8d 0c 25 de 22 11 	lea    rcx,ds:0x1122de
    22da:	00 
    22db:	51                   	push   rcx
    22dc:	48 cf                	iretq  
0x00000000001122de: main_label
    22de:	fb                   	sti    
    22df:	e8 46 dd ff ff       	call   0x2a
0x00000000001122e4: insert_to_reg
    22e4:	48 89 f9             	mov    rcx,rdi
    22e7:	c3                   	ret    
0x00000000001122e8: get_cr3
    22e8:	0f 20 d8             	mov    rax,cr3
    22eb:	c3                   	ret    
0x00000000001122ec: get_cr4
    22ec:	0f 20 e0             	mov    rax,cr4
    22ef:	c3                   	ret    
0x00000000001122f0: get_efer
    22f0:	b9 80 00 00 c0       	mov    ecx,0xc0000080
    22f5:	0f 32                	rdmsr  
    22f7:	c3                   	ret    
0x00000000001122f8: generate_gp
    22f8:	cd 0d                	int    0xd
    22fa:	c3                   	ret    
0x00000000001122fb: get_general_registers
    22fb:	48 89 07             	mov    QWORD PTR [rdi],rax
    22fe:	48 89 5f 08          	mov    QWORD PTR [rdi+0x8],rbx
    2302:	48 89 4f 10          	mov    QWORD PTR [rdi+0x10],rcx
    2306:	48 89 57 18          	mov    QWORD PTR [rdi+0x18],rdx
    230a:	48 89 77 20          	mov    QWORD PTR [rdi+0x20],rsi
    230e:	48 89 7f 28          	mov    QWORD PTR [rdi+0x28],rdi
    2312:	48 89 67 30          	mov    QWORD PTR [rdi+0x30],rsp
    2316:	48 89 6f 38          	mov    QWORD PTR [rdi+0x38],rbp
    231a:	4c 89 47 40          	mov    QWORD PTR [rdi+0x40],r8
    231e:	4c 89 4f 48          	mov    QWORD PTR [rdi+0x48],r9
    2322:	4c 89 57 50          	mov    QWORD PTR [rdi+0x50],r10
    2326:	4c 89 5f 58          	mov    QWORD PTR [rdi+0x58],r11
    232a:	4c 89 67 60          	mov    QWORD PTR [rdi+0x60],r12
    232e:	4c 89 6f 68          	mov    QWORD PTR [rdi+0x68],r13
    2332:	4c 89 77 70          	mov    QWORD PTR [rdi+0x70],r14
    2336:	4c 89 7f 78          	mov    QWORD PTR [rdi+0x78],r15
    233a:	c3                   	ret    
0x000000000011233b: load_idt
    233b:	48 89 f8             	mov    rax,rdi
    233e:	48 89 f1             	mov    rcx,rsi
    2341:	48 c7 c2 10 00 00 00 	mov    rdx,0x10
    2348:	66 89 0a             	mov    WORD PTR [rdx],cx
    234b:	48 89 42 02          	mov    QWORD PTR [rdx+0x2],rax
    234f:	0f 01 1a             	lidt   [rdx]
    2352:	c3                   	ret    
0x0000000000112353: make_gate_descriptor
    2353:	55                   	push   rbp
    2354:	48 89 e5             	mov    rbp,rsp
    2357:	48 83 ec 28          	sub    rsp,0x28
    235b:	48 89 7d e8          	mov    QWORD PTR [rbp-0x18],rdi
    235f:	89 75 e4             	mov    DWORD PTR [rbp-0x1c],esi
    2362:	89 55 e0             	mov    DWORD PTR [rbp-0x20],edx
    2365:	89 4d dc             	mov    DWORD PTR [rbp-0x24],ecx
    2368:	48 8b 45 e8          	mov    rax,QWORD PTR [rbp-0x18]
    236c:	48 c1 e8 20          	shr    rax,0x20
    2370:	48 89 45 f8          	mov    QWORD PTR [rbp-0x8],rax
    2374:	48 8b 45 e8          	mov    rax,QWORD PTR [rbp-0x18]
    2378:	66 b8 00 00          	mov    ax,0x0
    237c:	89 c2                	mov    edx,eax
    237e:	8b 45 e4             	mov    eax,DWORD PTR [rbp-0x1c]
    2381:	c1 e0 0d             	shl    eax,0xd
    2384:	09 c2                	or     edx,eax
    2386:	8b 45 e0             	mov    eax,DWORD PTR [rbp-0x20]
    2389:	c1 e0 08             	shl    eax,0x8
    238c:	09 d0                	or     eax,edx
    238e:	0b 45 dc             	or     eax,DWORD PTR [rbp-0x24]
    2391:	80 cc 8e             	or     ah,0x8e
    2394:	89 45 f4             	mov    DWORD PTR [rbp-0xc],eax
    2397:	48 8b 45 e8          	mov    rax,QWORD PTR [rbp-0x18]
    239b:	0f b7 c0             	movzx  eax,ax
    239e:	0d 00 00 08 00       	or     eax,0x80000
    23a3:	89 45 f0             	mov    DWORD PTR [rbp-0x10],eax
    23a6:	48 8b 45 f0          	mov    rax,QWORD PTR [rbp-0x10]
    23aa:	48 8b 55 f8          	mov    rdx,QWORD PTR [rbp-0x8]
    23ae:	c9                   	leave  
    23af:	c3                   	ret    
0x00000000001123b0: init_pic
    23b0:	55                   	push   rbp
    23b1:	48 89 e5             	mov    rbp,rsp
    23b4:	be 11 00 00 00       	mov    esi,0x11
    23b9:	bf 20 00 00 00       	mov    edi,0x20
    23be:	e8 89 f6 ff ff       	call   0x1a4c
    23c3:	be 20 00 00 00       	mov    esi,0x20
    23c8:	bf 21 00 00 00       	mov    edi,0x21
    23cd:	e8 7a f6 ff ff       	call   0x1a4c
    23d2:	be 04 00 00 00       	mov    esi,0x4
    23d7:	bf 21 00 00 00       	mov    edi,0x21
    23dc:	e8 6b f6 ff ff       	call   0x1a4c
    23e1:	be 01 00 00 00       	mov    esi,0x1
    23e6:	bf 21 00 00 00       	mov    edi,0x21
    23eb:	e8 5c f6 ff ff       	call   0x1a4c
    23f0:	be ff 00 00 00       	mov    esi,0xff
    23f5:	bf 21 00 00 00       	mov    edi,0x21
    23fa:	e8 4d f6 ff ff       	call   0x1a4c
    23ff:	be 11 00 00 00       	mov    esi,0x11
    2404:	bf a0 00 00 00       	mov    edi,0xa0
    2409:	e8 3e f6 ff ff       	call   0x1a4c
    240e:	be 28 00 00 00       	mov    esi,0x28
    2413:	bf a1 00 00 00       	mov    edi,0xa1
    2418:	e8 2f f6 ff ff       	call   0x1a4c
    241d:	be 02 00 00 00       	mov    esi,0x2
    2422:	bf a1 00 00 00       	mov    edi,0xa1
    2427:	e8 20 f6 ff ff       	call   0x1a4c
    242c:	be 01 00 00 00       	mov    esi,0x1
    2431:	bf a1 00 00 00       	mov    edi,0xa1
    2436:	e8 11 f6 ff ff       	call   0x1a4c
    243b:	be ff 00 00 00       	mov    esi,0xff
    2440:	bf a1 00 00 00       	mov    edi,0xa1
    2445:	e8 02 f6 ff ff       	call   0x1a4c
    244a:	be ee 00 00 00       	mov    esi,0xee
    244f:	bf 21 00 00 00       	mov    edi,0x21
    2454:	e8 f3 f5 ff ff       	call   0x1a4c
    2459:	be ff 00 00 00       	mov    esi,0xff
    245e:	bf a1 00 00 00       	mov    edi,0xa1
    2463:	e8 e4 f5 ff ff       	call   0x1a4c
    2468:	90                   	nop
    2469:	5d                   	pop    rbp
    246a:	c3                   	ret    
0x000000000011246b: writebyte
    246b:	55                   	push   rbp
    246c:	48 89 e5             	mov    rbp,rsp
    246f:	48 83 ec 10          	sub    rsp,0x10
    2473:	48 89 7d f8          	mov    QWORD PTR [rbp-0x8],rdi
    2477:	89 f0                	mov    eax,esi
    2479:	88 45 f4             	mov    BYTE PTR [rbp-0xc],al
    247c:	48 8b 45 f8          	mov    rax,QWORD PTR [rbp-0x8]
    2480:	0f b6 55 f4          	movzx  edx,BYTE PTR [rbp-0xc]
    2484:	88 10                	mov    BYTE PTR [rax],dl
    2486:	90                   	nop
    2487:	c9                   	leave  
    2488:	c3                   	ret    
0x0000000000112489: de_handler
    2489:	55                   	push   rbp
    248a:	48 89 e5             	mov    rbp,rsp
    248d:	41 53                	push   r11
    248f:	41 52                	push   r10
    2491:	41 51                	push   r9
    2493:	41 50                	push   r8
    2495:	57                   	push   rdi
    2496:	56                   	push   rsi
    2497:	51                   	push   rcx
    2498:	52                   	push   rdx
    2499:	50                   	push   rax
    249a:	48 83 ec 18          	sub    rsp,0x18
    249e:	48 8d 45 08          	lea    rax,[rbp+0x8]
    24a2:	48 89 45 a8          	mov    QWORD PTR [rbp-0x58],rax
    24a6:	fc                   	cld    
    24a7:	e8 92 f5 ff ff       	call   0x1a3e
    24ac:	bf a2 5f 11 00       	mov    edi,0x115fa2
    24b1:	e8 4d 1e 00 00       	call   0x4303
    24b6:	bf ad 5f 11 00       	mov    edi,0x115fad
    24bb:	e8 43 1e 00 00       	call   0x4303
    24c0:	48 8b 45 a8          	mov    rax,QWORD PTR [rbp-0x58]
    24c4:	48 8b 00             	mov    rax,QWORD PTR [rax]
    24c7:	48 89 c7             	mov    rdi,rax
    24ca:	e8 87 1e 00 00       	call   0x4356
    24cf:	bf b3 5f 11 00       	mov    edi,0x115fb3
    24d4:	e8 2a 1e 00 00       	call   0x4303
    24d9:	bf b5 5f 11 00       	mov    edi,0x115fb5
    24de:	e8 20 1e 00 00       	call   0x4303
    24e3:	48 8b 45 a8          	mov    rax,QWORD PTR [rbp-0x58]
    24e7:	48 8b 40 08          	mov    rax,QWORD PTR [rax+0x8]
    24eb:	48 89 c7             	mov    rdi,rax
    24ee:	e8 63 1e 00 00       	call   0x4356
    24f3:	bf b3 5f 11 00       	mov    edi,0x115fb3
    24f8:	e8 06 1e 00 00       	call   0x4303
    24fd:	bf ba 5f 11 00       	mov    edi,0x115fba
    2502:	e8 fc 1d 00 00       	call   0x4303
    2507:	48 8b 45 a8          	mov    rax,QWORD PTR [rbp-0x58]
    250b:	48 8b 40 10          	mov    rax,QWORD PTR [rax+0x10]
    250f:	48 89 c7             	mov    rdi,rax
    2512:	e8 3f 1e 00 00       	call   0x4356
    2517:	bf b3 5f 11 00       	mov    edi,0x115fb3
    251c:	e8 e2 1d 00 00       	call   0x4303
    2521:	bf c3 5f 11 00       	mov    edi,0x115fc3
    2526:	e8 d8 1d 00 00       	call   0x4303
    252b:	48 8b 45 a8          	mov    rax,QWORD PTR [rbp-0x58]
    252f:	48 8b 40 18          	mov    rax,QWORD PTR [rax+0x18]
    2533:	48 89 c7             	mov    rdi,rax
    2536:	e8 1b 1e 00 00       	call   0x4356
    253b:	bf b3 5f 11 00       	mov    edi,0x115fb3
    2540:	e8 be 1d 00 00       	call   0x4303
    2545:	bf c9 5f 11 00       	mov    edi,0x115fc9
    254a:	e8 b4 1d 00 00       	call   0x4303
    254f:	48 8b 45 a8          	mov    rax,QWORD PTR [rbp-0x58]
    2553:	48 8b 40 20          	mov    rax,QWORD PTR [rax+0x20]
    2557:	48 89 c7             	mov    rdi,rax
    255a:	e8 f7 1d 00 00       	call   0x4356
    255f:	bf ce 5f 11 00       	mov    edi,0x115fce
    2564:	e8 9a 1d 00 00       	call   0x4303
    2569:	48 8b 05 f8 55 00 00 	mov    rax,QWORD PTR [rip+0x55f8]        # 0x7b68
    2570:	41 b9 d1 5f 11 00    	mov    r9d,0x115fd1
    2576:	49 89 c0             	mov    r8,rax
    2579:	8b 0d bd 55 00 00    	mov    ecx,DWORD PTR [rip+0x55bd]        # 0x7b3c
    257f:	8b 15 ab 55 00 00    	mov    edx,DWORD PTR [rip+0x55ab]        # 0x7b30
    2585:	be f4 01 00 00       	mov    esi,0x1f4
    258a:	bf 58 02 00 00       	mov    edi,0x258
    258f:	e8 57 e3 ff ff       	call   0x8eb
    2594:	f4                   	hlt    
    2595:	eb fd                	jmp    0x2594
0x0000000000112597: db_handler
    2597:	55                   	push   rbp
    2598:	48 89 e5             	mov    rbp,rsp
    259b:	41 53                	push   r11
    259d:	41 52                	push   r10
    259f:	41 51                	push   r9
    25a1:	41 50                	push   r8
    25a3:	57                   	push   rdi
    25a4:	56                   	push   rsi
    25a5:	51                   	push   rcx
    25a6:	52                   	push   rdx
    25a7:	50                   	push   rax
    25a8:	48 83 ec 18          	sub    rsp,0x18
    25ac:	48 8d 45 08          	lea    rax,[rbp+0x8]
    25b0:	48 89 45 a8          	mov    QWORD PTR [rbp-0x58],rax
    25b4:	fc                   	cld    
    25b5:	e8 84 f4 ff ff       	call   0x1a3e
    25ba:	bf d5 5f 11 00       	mov    edi,0x115fd5
    25bf:	e8 3f 1d 00 00       	call   0x4303
    25c4:	bf ad 5f 11 00       	mov    edi,0x115fad
    25c9:	e8 35 1d 00 00       	call   0x4303
    25ce:	48 8b 45 a8          	mov    rax,QWORD PTR [rbp-0x58]
    25d2:	48 8b 00             	mov    rax,QWORD PTR [rax]
    25d5:	48 89 c7             	mov    rdi,rax
    25d8:	e8 79 1d 00 00       	call   0x4356
    25dd:	bf b3 5f 11 00       	mov    edi,0x115fb3
    25e2:	e8 1c 1d 00 00       	call   0x4303
    25e7:	bf b5 5f 11 00       	mov    edi,0x115fb5
    25ec:	e8 12 1d 00 00       	call   0x4303
    25f1:	48 8b 45 a8          	mov    rax,QWORD PTR [rbp-0x58]
    25f5:	48 8b 40 08          	mov    rax,QWORD PTR [rax+0x8]
    25f9:	48 89 c7             	mov    rdi,rax
    25fc:	e8 55 1d 00 00       	call   0x4356
    2601:	bf b3 5f 11 00       	mov    edi,0x115fb3
    2606:	e8 f8 1c 00 00       	call   0x4303
    260b:	bf ba 5f 11 00       	mov    edi,0x115fba
    2610:	e8 ee 1c 00 00       	call   0x4303
    2615:	48 8b 45 a8          	mov    rax,QWORD PTR [rbp-0x58]
    2619:	48 8b 40 10          	mov    rax,QWORD PTR [rax+0x10]
    261d:	48 89 c7             	mov    rdi,rax
    2620:	e8 31 1d 00 00       	call   0x4356
    2625:	bf b3 5f 11 00       	mov    edi,0x115fb3
    262a:	e8 d4 1c 00 00       	call   0x4303
    262f:	bf c3 5f 11 00       	mov    edi,0x115fc3
    2634:	e8 ca 1c 00 00       	call   0x4303
    2639:	48 8b 45 a8          	mov    rax,QWORD PTR [rbp-0x58]
    263d:	48 8b 40 18          	mov    rax,QWORD PTR [rax+0x18]
    2641:	48 89 c7             	mov    rdi,rax
    2644:	e8 0d 1d 00 00       	call   0x4356
    2649:	bf b3 5f 11 00       	mov    edi,0x115fb3
    264e:	e8 b0 1c 00 00       	call   0x4303
    2653:	bf c9 5f 11 00       	mov    edi,0x115fc9
    2658:	e8 a6 1c 00 00       	call   0x4303
    265d:	48 8b 45 a8          	mov    rax,QWORD PTR [rbp-0x58]
    2661:	48 8b 40 20          	mov    rax,QWORD PTR [rax+0x20]
    2665:	48 89 c7             	mov    rdi,rax
    2668:	e8 e9 1c 00 00       	call   0x4356
    266d:	bf ce 5f 11 00       	mov    edi,0x115fce
    2672:	e8 8c 1c 00 00       	call   0x4303
    2677:	48 8b 05 ea 54 00 00 	mov    rax,QWORD PTR [rip+0x54ea]        # 0x7b68
    267e:	41 b9 e0 5f 11 00    	mov    r9d,0x115fe0
    2684:	49 89 c0             	mov    r8,rax
    2687:	8b 0d af 54 00 00    	mov    ecx,DWORD PTR [rip+0x54af]        # 0x7b3c
    268d:	8b 15 9d 54 00 00    	mov    edx,DWORD PTR [rip+0x549d]        # 0x7b30
    2693:	be f4 01 00 00       	mov    esi,0x1f4
    2698:	bf 58 02 00 00       	mov    edi,0x258
    269d:	e8 49 e2 ff ff       	call   0x8eb
    26a2:	f4                   	hlt    
    26a3:	eb fd                	jmp    0x26a2
0x00000000001126a5: nmi_handler
    26a5:	55                   	push   rbp
    26a6:	48 89 e5             	mov    rbp,rsp
    26a9:	41 53                	push   r11
    26ab:	41 52                	push   r10
    26ad:	41 51                	push   r9
    26af:	41 50                	push   r8
    26b1:	57                   	push   rdi
    26b2:	56                   	push   rsi
    26b3:	51                   	push   rcx
    26b4:	52                   	push   rdx
    26b5:	50                   	push   rax
    26b6:	48 83 ec 18          	sub    rsp,0x18
    26ba:	48 8d 45 08          	lea    rax,[rbp+0x8]
    26be:	48 89 45 a8          	mov    QWORD PTR [rbp-0x58],rax
    26c2:	fc                   	cld    
    26c3:	e8 76 f3 ff ff       	call   0x1a3e
    26c8:	bf e4 5f 11 00       	mov    edi,0x115fe4
    26cd:	e8 31 1c 00 00       	call   0x4303
    26d2:	bf ad 5f 11 00       	mov    edi,0x115fad
    26d7:	e8 27 1c 00 00       	call   0x4303
    26dc:	48 8b 45 a8          	mov    rax,QWORD PTR [rbp-0x58]
    26e0:	48 8b 00             	mov    rax,QWORD PTR [rax]
    26e3:	48 89 c7             	mov    rdi,rax
    26e6:	e8 6b 1c 00 00       	call   0x4356
    26eb:	bf b3 5f 11 00       	mov    edi,0x115fb3
    26f0:	e8 0e 1c 00 00       	call   0x4303
    26f5:	bf b5 5f 11 00       	mov    edi,0x115fb5
    26fa:	e8 04 1c 00 00       	call   0x4303
    26ff:	48 8b 45 a8          	mov    rax,QWORD PTR [rbp-0x58]
    2703:	48 8b 40 08          	mov    rax,QWORD PTR [rax+0x8]
    2707:	48 89 c7             	mov    rdi,rax
    270a:	e8 47 1c 00 00       	call   0x4356
    270f:	bf b3 5f 11 00       	mov    edi,0x115fb3
    2714:	e8 ea 1b 00 00       	call   0x4303
    2719:	bf ba 5f 11 00       	mov    edi,0x115fba
    271e:	e8 e0 1b 00 00       	call   0x4303
    2723:	48 8b 45 a8          	mov    rax,QWORD PTR [rbp-0x58]
    2727:	48 8b 40 10          	mov    rax,QWORD PTR [rax+0x10]
    272b:	48 89 c7             	mov    rdi,rax
    272e:	e8 23 1c 00 00       	call   0x4356
    2733:	bf b3 5f 11 00       	mov    edi,0x115fb3
    2738:	e8 c6 1b 00 00       	call   0x4303
    273d:	bf c3 5f 11 00       	mov    edi,0x115fc3
    2742:	e8 bc 1b 00 00       	call   0x4303
    2747:	48 8b 45 a8          	mov    rax,QWORD PTR [rbp-0x58]
    274b:	48 8b 40 18          	mov    rax,QWORD PTR [rax+0x18]
    274f:	48 89 c7             	mov    rdi,rax
    2752:	e8 ff 1b 00 00       	call   0x4356
    2757:	bf b3 5f 11 00       	mov    edi,0x115fb3
    275c:	e8 a2 1b 00 00       	call   0x4303
    2761:	bf c9 5f 11 00       	mov    edi,0x115fc9
    2766:	e8 98 1b 00 00       	call   0x4303
    276b:	48 8b 45 a8          	mov    rax,QWORD PTR [rbp-0x58]
    276f:	48 8b 40 20          	mov    rax,QWORD PTR [rax+0x20]
    2773:	48 89 c7             	mov    rdi,rax
    2776:	e8 db 1b 00 00       	call   0x4356
    277b:	bf ce 5f 11 00       	mov    edi,0x115fce
    2780:	e8 7e 1b 00 00       	call   0x4303
    2785:	48 8b 05 dc 53 00 00 	mov    rax,QWORD PTR [rip+0x53dc]        # 0x7b68
    278c:	41 b9 f3 5f 11 00    	mov    r9d,0x115ff3
    2792:	49 89 c0             	mov    r8,rax
    2795:	8b 0d a1 53 00 00    	mov    ecx,DWORD PTR [rip+0x53a1]        # 0x7b3c
    279b:	8b 15 8f 53 00 00    	mov    edx,DWORD PTR [rip+0x538f]        # 0x7b30
    27a1:	be f4 01 00 00       	mov    esi,0x1f4
    27a6:	bf 58 02 00 00       	mov    edi,0x258
    27ab:	e8 3b e1 ff ff       	call   0x8eb
    27b0:	f4                   	hlt    
    27b1:	eb fd                	jmp    0x27b0
0x00000000001127b3: bp_handler
    27b3:	55                   	push   rbp
    27b4:	48 89 e5             	mov    rbp,rsp
    27b7:	41 53                	push   r11
    27b9:	41 52                	push   r10
    27bb:	41 51                	push   r9
    27bd:	41 50                	push   r8
    27bf:	57                   	push   rdi
    27c0:	56                   	push   rsi
    27c1:	51                   	push   rcx
    27c2:	52                   	push   rdx
    27c3:	50                   	push   rax
    27c4:	48 81 ec 98 00 00 00 	sub    rsp,0x98
    27cb:	48 8d 45 08          	lea    rax,[rbp+0x8]
    27cf:	48 89 85 28 ff ff ff 	mov    QWORD PTR [rbp-0xd8],rax
    27d6:	fc                   	cld    
    27d7:	e8 62 f2 ff ff       	call   0x1a3e
    27dc:	48 8d 95 30 ff ff ff 	lea    rdx,[rbp-0xd0]
    27e3:	b8 00 00 00 00       	mov    eax,0x0
    27e8:	be 10 00 00 00       	mov    esi,0x10
    27ed:	48 89 d7             	mov    rdi,rdx
    27f0:	48 89 f1             	mov    rcx,rsi
    27f3:	f3 48 ab             	rep stos QWORD PTR es:[rdi],rax
    27f6:	48 8d 85 30 ff ff ff 	lea    rax,[rbp-0xd0]
    27fd:	48 89 c7             	mov    rdi,rax
    2800:	e8 f6 fa ff ff       	call   0x22fb
    2805:	bf f7 5f 11 00       	mov    edi,0x115ff7
    280a:	e8 f4 1a 00 00       	call   0x4303
    280f:	bf 06 60 11 00       	mov    edi,0x116006
    2814:	e8 ea 1a 00 00       	call   0x4303
    2819:	48 8b 85 30 ff ff ff 	mov    rax,QWORD PTR [rbp-0xd0]
    2820:	48 89 c7             	mov    rdi,rax
    2823:	e8 2e 1b 00 00       	call   0x4356
    2828:	bf b3 5f 11 00       	mov    edi,0x115fb3
    282d:	e8 d1 1a 00 00       	call   0x4303
    2832:	bf 0c 60 11 00       	mov    edi,0x11600c
    2837:	e8 c7 1a 00 00       	call   0x4303
    283c:	48 8b 85 38 ff ff ff 	mov    rax,QWORD PTR [rbp-0xc8]
    2843:	48 89 c7             	mov    rdi,rax
    2846:	e8 0b 1b 00 00       	call   0x4356
    284b:	bf b3 5f 11 00       	mov    edi,0x115fb3
    2850:	e8 ae 1a 00 00       	call   0x4303
    2855:	bf 12 60 11 00       	mov    edi,0x116012
    285a:	e8 a4 1a 00 00       	call   0x4303
    285f:	48 8b 85 40 ff ff ff 	mov    rax,QWORD PTR [rbp-0xc0]
    2866:	48 89 c7             	mov    rdi,rax
    2869:	e8 e8 1a 00 00       	call   0x4356
    286e:	bf b3 5f 11 00       	mov    edi,0x115fb3
    2873:	e8 8b 1a 00 00       	call   0x4303
    2878:	bf 18 60 11 00       	mov    edi,0x116018
    287d:	e8 81 1a 00 00       	call   0x4303
    2882:	48 8b 85 48 ff ff ff 	mov    rax,QWORD PTR [rbp-0xb8]
    2889:	48 89 c7             	mov    rdi,rax
    288c:	e8 c5 1a 00 00       	call   0x4356
    2891:	bf b3 5f 11 00       	mov    edi,0x115fb3
    2896:	e8 68 1a 00 00       	call   0x4303
    289b:	bf 1e 60 11 00       	mov    edi,0x11601e
    28a0:	e8 5e 1a 00 00       	call   0x4303
    28a5:	48 8b 85 50 ff ff ff 	mov    rax,QWORD PTR [rbp-0xb0]
    28ac:	48 89 c7             	mov    rdi,rax
    28af:	e8 a2 1a 00 00       	call   0x4356
    28b4:	bf b3 5f 11 00       	mov    edi,0x115fb3
    28b9:	e8 45 1a 00 00       	call   0x4303
    28be:	bf 24 60 11 00       	mov    edi,0x116024
    28c3:	e8 3b 1a 00 00       	call   0x4303
    28c8:	48 8b 85 58 ff ff ff 	mov    rax,QWORD PTR [rbp-0xa8]
    28cf:	48 89 c7             	mov    rdi,rax
    28d2:	e8 7f 1a 00 00       	call   0x4356
    28d7:	bf b3 5f 11 00       	mov    edi,0x115fb3
    28dc:	e8 22 1a 00 00       	call   0x4303
    28e1:	bf 2a 60 11 00       	mov    edi,0x11602a
    28e6:	e8 18 1a 00 00       	call   0x4303
    28eb:	48 8b 85 60 ff ff ff 	mov    rax,QWORD PTR [rbp-0xa0]
    28f2:	48 89 c7             	mov    rdi,rax
    28f5:	e8 5c 1a 00 00       	call   0x4356
    28fa:	bf b3 5f 11 00       	mov    edi,0x115fb3
    28ff:	e8 ff 19 00 00       	call   0x4303
    2904:	bf 30 60 11 00       	mov    edi,0x116030
    2909:	e8 f5 19 00 00       	call   0x4303
    290e:	48 8b 85 68 ff ff ff 	mov    rax,QWORD PTR [rbp-0x98]
    2915:	48 89 c7             	mov    rdi,rax
    2918:	e8 39 1a 00 00       	call   0x4356
    291d:	bf b3 5f 11 00       	mov    edi,0x115fb3
    2922:	e8 dc 19 00 00       	call   0x4303
    2927:	bf 36 60 11 00       	mov    edi,0x116036
    292c:	e8 d2 19 00 00       	call   0x4303
    2931:	48 8b 85 70 ff ff ff 	mov    rax,QWORD PTR [rbp-0x90]
    2938:	48 89 c7             	mov    rdi,rax
    293b:	e8 16 1a 00 00       	call   0x4356
    2940:	bf b3 5f 11 00       	mov    edi,0x115fb3
    2945:	e8 b9 19 00 00       	call   0x4303
    294a:	bf 3b 60 11 00       	mov    edi,0x11603b
    294f:	e8 af 19 00 00       	call   0x4303
    2954:	48 8b 85 78 ff ff ff 	mov    rax,QWORD PTR [rbp-0x88]
    295b:	48 89 c7             	mov    rdi,rax
    295e:	e8 f3 19 00 00       	call   0x4356
    2963:	bf b3 5f 11 00       	mov    edi,0x115fb3
    2968:	e8 96 19 00 00       	call   0x4303
    296d:	bf 40 60 11 00       	mov    edi,0x116040
    2972:	e8 8c 19 00 00       	call   0x4303
    2977:	48 8b 45 80          	mov    rax,QWORD PTR [rbp-0x80]
    297b:	48 89 c7             	mov    rdi,rax
    297e:	e8 d3 19 00 00       	call   0x4356
    2983:	bf b3 5f 11 00       	mov    edi,0x115fb3
    2988:	e8 76 19 00 00       	call   0x4303
    298d:	bf 46 60 11 00       	mov    edi,0x116046
    2992:	e8 6c 19 00 00       	call   0x4303
    2997:	48 8b 45 88          	mov    rax,QWORD PTR [rbp-0x78]
    299b:	48 89 c7             	mov    rdi,rax
    299e:	e8 b3 19 00 00       	call   0x4356
    29a3:	bf b3 5f 11 00       	mov    edi,0x115fb3
    29a8:	e8 56 19 00 00       	call   0x4303
    29ad:	bf 4c 60 11 00       	mov    edi,0x11604c
    29b2:	e8 4c 19 00 00       	call   0x4303
    29b7:	48 8b 45 90          	mov    rax,QWORD PTR [rbp-0x70]
    29bb:	48 89 c7             	mov    rdi,rax
    29be:	e8 93 19 00 00       	call   0x4356
    29c3:	bf b3 5f 11 00       	mov    edi,0x115fb3
    29c8:	e8 36 19 00 00       	call   0x4303
    29cd:	bf 52 60 11 00       	mov    edi,0x116052
    29d2:	e8 2c 19 00 00       	call   0x4303
    29d7:	48 8b 45 98          	mov    rax,QWORD PTR [rbp-0x68]
    29db:	48 89 c7             	mov    rdi,rax
    29de:	e8 73 19 00 00       	call   0x4356
    29e3:	bf b3 5f 11 00       	mov    edi,0x115fb3
    29e8:	e8 16 19 00 00       	call   0x4303
    29ed:	bf 58 60 11 00       	mov    edi,0x116058
    29f2:	e8 0c 19 00 00       	call   0x4303
    29f7:	48 8b 45 a0          	mov    rax,QWORD PTR [rbp-0x60]
    29fb:	48 89 c7             	mov    rdi,rax
    29fe:	e8 53 19 00 00       	call   0x4356
    2a03:	bf b3 5f 11 00       	mov    edi,0x115fb3
    2a08:	e8 f6 18 00 00       	call   0x4303
    2a0d:	bf 5e 60 11 00       	mov    edi,0x11605e
    2a12:	e8 ec 18 00 00       	call   0x4303
    2a17:	48 8b 45 a8          	mov    rax,QWORD PTR [rbp-0x58]
    2a1b:	48 89 c7             	mov    rdi,rax
    2a1e:	e8 33 19 00 00       	call   0x4356
    2a23:	bf b3 5f 11 00       	mov    edi,0x115fb3
    2a28:	e8 d6 18 00 00       	call   0x4303
    2a2d:	bf ad 5f 11 00       	mov    edi,0x115fad
    2a32:	e8 cc 18 00 00       	call   0x4303
    2a37:	48 8b 85 28 ff ff ff 	mov    rax,QWORD PTR [rbp-0xd8]
    2a3e:	48 8b 00             	mov    rax,QWORD PTR [rax]
    2a41:	48 89 c7             	mov    rdi,rax
    2a44:	e8 0d 19 00 00       	call   0x4356
    2a49:	bf b3 5f 11 00       	mov    edi,0x115fb3
    2a4e:	e8 b0 18 00 00       	call   0x4303
    2a53:	bf b5 5f 11 00       	mov    edi,0x115fb5
    2a58:	e8 a6 18 00 00       	call   0x4303
    2a5d:	48 8b 85 28 ff ff ff 	mov    rax,QWORD PTR [rbp-0xd8]
    2a64:	48 8b 40 08          	mov    rax,QWORD PTR [rax+0x8]
    2a68:	48 89 c7             	mov    rdi,rax
    2a6b:	e8 e6 18 00 00       	call   0x4356
    2a70:	bf b3 5f 11 00       	mov    edi,0x115fb3
    2a75:	e8 89 18 00 00       	call   0x4303
    2a7a:	bf ba 5f 11 00       	mov    edi,0x115fba
    2a7f:	e8 7f 18 00 00       	call   0x4303
    2a84:	48 8b 85 28 ff ff ff 	mov    rax,QWORD PTR [rbp-0xd8]
    2a8b:	48 8b 40 10          	mov    rax,QWORD PTR [rax+0x10]
    2a8f:	48 89 c7             	mov    rdi,rax
    2a92:	e8 bf 18 00 00       	call   0x4356
    2a97:	bf b3 5f 11 00       	mov    edi,0x115fb3
    2a9c:	e8 62 18 00 00       	call   0x4303
    2aa1:	bf c3 5f 11 00       	mov    edi,0x115fc3
    2aa6:	e8 58 18 00 00       	call   0x4303
    2aab:	48 8b 85 28 ff ff ff 	mov    rax,QWORD PTR [rbp-0xd8]
    2ab2:	48 8b 40 18          	mov    rax,QWORD PTR [rax+0x18]
    2ab6:	48 89 c7             	mov    rdi,rax
    2ab9:	e8 98 18 00 00       	call   0x4356
    2abe:	bf b3 5f 11 00       	mov    edi,0x115fb3
    2ac3:	e8 3b 18 00 00       	call   0x4303
    2ac8:	bf c9 5f 11 00       	mov    edi,0x115fc9
    2acd:	e8 31 18 00 00       	call   0x4303
    2ad2:	48 8b 85 28 ff ff ff 	mov    rax,QWORD PTR [rbp-0xd8]
    2ad9:	48 8b 40 20          	mov    rax,QWORD PTR [rax+0x20]
    2add:	48 89 c7             	mov    rdi,rax
    2ae0:	e8 71 18 00 00       	call   0x4356
    2ae5:	bf ce 5f 11 00       	mov    edi,0x115fce
    2aea:	e8 14 18 00 00       	call   0x4303
    2aef:	48 8b 05 72 50 00 00 	mov    rax,QWORD PTR [rip+0x5072]        # 0x7b68
    2af6:	41 b9 64 60 11 00    	mov    r9d,0x116064
    2afc:	49 89 c0             	mov    r8,rax
    2aff:	8b 0d 37 50 00 00    	mov    ecx,DWORD PTR [rip+0x5037]        # 0x7b3c
    2b05:	8b 15 25 50 00 00    	mov    edx,DWORD PTR [rip+0x5025]        # 0x7b30
    2b0b:	be f4 01 00 00       	mov    esi,0x1f4
    2b10:	bf 58 02 00 00       	mov    edi,0x258
    2b15:	e8 d1 dd ff ff       	call   0x8eb
    2b1a:	90                   	nop
    2b1b:	48 81 c4 98 00 00 00 	add    rsp,0x98
    2b22:	58                   	pop    rax
    2b23:	5a                   	pop    rdx
    2b24:	59                   	pop    rcx
    2b25:	5e                   	pop    rsi
    2b26:	5f                   	pop    rdi
    2b27:	41 58                	pop    r8
    2b29:	41 59                	pop    r9
    2b2b:	41 5a                	pop    r10
    2b2d:	41 5b                	pop    r11
    2b2f:	5d                   	pop    rbp
    2b30:	48 cf                	iretq  
0x0000000000112b32: of_handler
    2b32:	55                   	push   rbp
    2b33:	48 89 e5             	mov    rbp,rsp
    2b36:	41 53                	push   r11
    2b38:	41 52                	push   r10
    2b3a:	41 51                	push   r9
    2b3c:	41 50                	push   r8
    2b3e:	57                   	push   rdi
    2b3f:	56                   	push   rsi
    2b40:	51                   	push   rcx
    2b41:	52                   	push   rdx
    2b42:	50                   	push   rax
    2b43:	48 83 ec 18          	sub    rsp,0x18
    2b47:	48 8d 45 08          	lea    rax,[rbp+0x8]
    2b4b:	48 89 45 a8          	mov    QWORD PTR [rbp-0x58],rax
    2b4f:	fc                   	cld    
    2b50:	e8 e9 ee ff ff       	call   0x1a3e
    2b55:	bf 68 60 11 00       	mov    edi,0x116068
    2b5a:	e8 a4 17 00 00       	call   0x4303
    2b5f:	bf ad 5f 11 00       	mov    edi,0x115fad
    2b64:	e8 9a 17 00 00       	call   0x4303
    2b69:	48 8b 45 a8          	mov    rax,QWORD PTR [rbp-0x58]
    2b6d:	48 8b 00             	mov    rax,QWORD PTR [rax]
    2b70:	48 89 c7             	mov    rdi,rax
    2b73:	e8 de 17 00 00       	call   0x4356
    2b78:	bf b3 5f 11 00       	mov    edi,0x115fb3
    2b7d:	e8 81 17 00 00       	call   0x4303
    2b82:	bf b5 5f 11 00       	mov    edi,0x115fb5
    2b87:	e8 77 17 00 00       	call   0x4303
    2b8c:	48 8b 45 a8          	mov    rax,QWORD PTR [rbp-0x58]
    2b90:	48 8b 40 08          	mov    rax,QWORD PTR [rax+0x8]
    2b94:	48 89 c7             	mov    rdi,rax
    2b97:	e8 ba 17 00 00       	call   0x4356
    2b9c:	bf b3 5f 11 00       	mov    edi,0x115fb3
    2ba1:	e8 5d 17 00 00       	call   0x4303
    2ba6:	bf ba 5f 11 00       	mov    edi,0x115fba
    2bab:	e8 53 17 00 00       	call   0x4303
    2bb0:	48 8b 45 a8          	mov    rax,QWORD PTR [rbp-0x58]
    2bb4:	48 8b 40 10          	mov    rax,QWORD PTR [rax+0x10]
    2bb8:	48 89 c7             	mov    rdi,rax
    2bbb:	e8 96 17 00 00       	call   0x4356
    2bc0:	bf b3 5f 11 00       	mov    edi,0x115fb3
    2bc5:	e8 39 17 00 00       	call   0x4303
    2bca:	bf c3 5f 11 00       	mov    edi,0x115fc3
    2bcf:	e8 2f 17 00 00       	call   0x4303
    2bd4:	48 8b 45 a8          	mov    rax,QWORD PTR [rbp-0x58]
    2bd8:	48 8b 40 18          	mov    rax,QWORD PTR [rax+0x18]
    2bdc:	48 89 c7             	mov    rdi,rax
    2bdf:	e8 72 17 00 00       	call   0x4356
    2be4:	bf b3 5f 11 00       	mov    edi,0x115fb3
    2be9:	e8 15 17 00 00       	call   0x4303
    2bee:	bf c9 5f 11 00       	mov    edi,0x115fc9
    2bf3:	e8 0b 17 00 00       	call   0x4303
    2bf8:	48 8b 45 a8          	mov    rax,QWORD PTR [rbp-0x58]
    2bfc:	48 8b 40 20          	mov    rax,QWORD PTR [rax+0x20]
    2c00:	48 89 c7             	mov    rdi,rax
    2c03:	e8 4e 17 00 00       	call   0x4356
    2c08:	bf ce 5f 11 00       	mov    edi,0x115fce
    2c0d:	e8 f1 16 00 00       	call   0x4303
    2c12:	48 8b 05 4f 4f 00 00 	mov    rax,QWORD PTR [rip+0x4f4f]        # 0x7b68
    2c19:	41 b9 73 60 11 00    	mov    r9d,0x116073
    2c1f:	49 89 c0             	mov    r8,rax
    2c22:	8b 0d 14 4f 00 00    	mov    ecx,DWORD PTR [rip+0x4f14]        # 0x7b3c
    2c28:	8b 15 02 4f 00 00    	mov    edx,DWORD PTR [rip+0x4f02]        # 0x7b30
    2c2e:	be f4 01 00 00       	mov    esi,0x1f4
    2c33:	bf 58 02 00 00       	mov    edi,0x258
    2c38:	e8 ae dc ff ff       	call   0x8eb
    2c3d:	f4                   	hlt    
    2c3e:	eb fd                	jmp    0x2c3d
0x0000000000112c40: br_handler
    2c40:	55                   	push   rbp
    2c41:	48 89 e5             	mov    rbp,rsp
    2c44:	41 53                	push   r11
    2c46:	41 52                	push   r10
    2c48:	41 51                	push   r9
    2c4a:	41 50                	push   r8
    2c4c:	57                   	push   rdi
    2c4d:	56                   	push   rsi
    2c4e:	51                   	push   rcx
    2c4f:	52                   	push   rdx
    2c50:	50                   	push   rax
    2c51:	48 83 ec 18          	sub    rsp,0x18
    2c55:	48 8d 45 08          	lea    rax,[rbp+0x8]
    2c59:	48 89 45 a8          	mov    QWORD PTR [rbp-0x58],rax
    2c5d:	fc                   	cld    
    2c5e:	e8 db ed ff ff       	call   0x1a3e
    2c63:	bf 77 60 11 00       	mov    edi,0x116077
    2c68:	e8 96 16 00 00       	call   0x4303
    2c6d:	bf ad 5f 11 00       	mov    edi,0x115fad
    2c72:	e8 8c 16 00 00       	call   0x4303
    2c77:	48 8b 45 a8          	mov    rax,QWORD PTR [rbp-0x58]
    2c7b:	48 8b 00             	mov    rax,QWORD PTR [rax]
    2c7e:	48 89 c7             	mov    rdi,rax
    2c81:	e8 d0 16 00 00       	call   0x4356
    2c86:	bf b3 5f 11 00       	mov    edi,0x115fb3
    2c8b:	e8 73 16 00 00       	call   0x4303
    2c90:	bf b5 5f 11 00       	mov    edi,0x115fb5
    2c95:	e8 69 16 00 00       	call   0x4303
    2c9a:	48 8b 45 a8          	mov    rax,QWORD PTR [rbp-0x58]
    2c9e:	48 8b 40 08          	mov    rax,QWORD PTR [rax+0x8]
    2ca2:	48 89 c7             	mov    rdi,rax
    2ca5:	e8 ac 16 00 00       	call   0x4356
    2caa:	bf b3 5f 11 00       	mov    edi,0x115fb3
    2caf:	e8 4f 16 00 00       	call   0x4303
    2cb4:	bf ba 5f 11 00       	mov    edi,0x115fba
    2cb9:	e8 45 16 00 00       	call   0x4303
    2cbe:	48 8b 45 a8          	mov    rax,QWORD PTR [rbp-0x58]
    2cc2:	48 8b 40 10          	mov    rax,QWORD PTR [rax+0x10]
    2cc6:	48 89 c7             	mov    rdi,rax
    2cc9:	e8 88 16 00 00       	call   0x4356
    2cce:	bf b3 5f 11 00       	mov    edi,0x115fb3
    2cd3:	e8 2b 16 00 00       	call   0x4303
    2cd8:	bf c3 5f 11 00       	mov    edi,0x115fc3
    2cdd:	e8 21 16 00 00       	call   0x4303
    2ce2:	48 8b 45 a8          	mov    rax,QWORD PTR [rbp-0x58]
    2ce6:	48 8b 40 18          	mov    rax,QWORD PTR [rax+0x18]
    2cea:	48 89 c7             	mov    rdi,rax
    2ced:	e8 64 16 00 00       	call   0x4356
    2cf2:	bf b3 5f 11 00       	mov    edi,0x115fb3
    2cf7:	e8 07 16 00 00       	call   0x4303
    2cfc:	bf c9 5f 11 00       	mov    edi,0x115fc9
    2d01:	e8 fd 15 00 00       	call   0x4303
    2d06:	48 8b 45 a8          	mov    rax,QWORD PTR [rbp-0x58]
    2d0a:	48 8b 40 20          	mov    rax,QWORD PTR [rax+0x20]
    2d0e:	48 89 c7             	mov    rdi,rax
    2d11:	e8 40 16 00 00       	call   0x4356
    2d16:	bf ce 5f 11 00       	mov    edi,0x115fce
    2d1b:	e8 e3 15 00 00       	call   0x4303
    2d20:	48 8b 05 41 4e 00 00 	mov    rax,QWORD PTR [rip+0x4e41]        # 0x7b68
    2d27:	41 b9 82 60 11 00    	mov    r9d,0x116082
    2d2d:	49 89 c0             	mov    r8,rax
    2d30:	8b 0d 06 4e 00 00    	mov    ecx,DWORD PTR [rip+0x4e06]        # 0x7b3c
    2d36:	8b 15 f4 4d 00 00    	mov    edx,DWORD PTR [rip+0x4df4]        # 0x7b30
    2d3c:	be f4 01 00 00       	mov    esi,0x1f4
    2d41:	bf 58 02 00 00       	mov    edi,0x258
    2d46:	e8 a0 db ff ff       	call   0x8eb
    2d4b:	f4                   	hlt    
    2d4c:	eb fd                	jmp    0x2d4b
0x0000000000112d4e: ud_handler
    2d4e:	55                   	push   rbp
    2d4f:	48 89 e5             	mov    rbp,rsp
    2d52:	41 53                	push   r11
    2d54:	41 52                	push   r10
    2d56:	41 51                	push   r9
    2d58:	41 50                	push   r8
    2d5a:	57                   	push   rdi
    2d5b:	56                   	push   rsi
    2d5c:	51                   	push   rcx
    2d5d:	52                   	push   rdx
    2d5e:	50                   	push   rax
    2d5f:	48 81 ec 98 00 00 00 	sub    rsp,0x98
    2d66:	48 8d 45 08          	lea    rax,[rbp+0x8]
    2d6a:	48 89 85 28 ff ff ff 	mov    QWORD PTR [rbp-0xd8],rax
    2d71:	fc                   	cld    
    2d72:	e8 c7 ec ff ff       	call   0x1a3e
    2d77:	48 8d 95 30 ff ff ff 	lea    rdx,[rbp-0xd0]
    2d7e:	b8 00 00 00 00       	mov    eax,0x0
    2d83:	be 10 00 00 00       	mov    esi,0x10
    2d88:	48 89 d7             	mov    rdi,rdx
    2d8b:	48 89 f1             	mov    rcx,rsi
    2d8e:	f3 48 ab             	rep stos QWORD PTR es:[rdi],rax
    2d91:	48 8d 85 30 ff ff ff 	lea    rax,[rbp-0xd0]
    2d98:	48 89 c7             	mov    rdi,rax
    2d9b:	e8 5b f5 ff ff       	call   0x22fb
    2da0:	bf 86 60 11 00       	mov    edi,0x116086
    2da5:	e8 59 15 00 00       	call   0x4303
    2daa:	bf 06 60 11 00       	mov    edi,0x116006
    2daf:	e8 4f 15 00 00       	call   0x4303
    2db4:	48 8b 85 30 ff ff ff 	mov    rax,QWORD PTR [rbp-0xd0]
    2dbb:	48 89 c7             	mov    rdi,rax
    2dbe:	e8 93 15 00 00       	call   0x4356
    2dc3:	bf b3 5f 11 00       	mov    edi,0x115fb3
    2dc8:	e8 36 15 00 00       	call   0x4303
    2dcd:	bf 0c 60 11 00       	mov    edi,0x11600c
    2dd2:	e8 2c 15 00 00       	call   0x4303
    2dd7:	48 8b 85 38 ff ff ff 	mov    rax,QWORD PTR [rbp-0xc8]
    2dde:	48 89 c7             	mov    rdi,rax
    2de1:	e8 70 15 00 00       	call   0x4356
    2de6:	bf b3 5f 11 00       	mov    edi,0x115fb3
    2deb:	e8 13 15 00 00       	call   0x4303
    2df0:	bf 12 60 11 00       	mov    edi,0x116012
    2df5:	e8 09 15 00 00       	call   0x4303
    2dfa:	48 8b 85 40 ff ff ff 	mov    rax,QWORD PTR [rbp-0xc0]
    2e01:	48 89 c7             	mov    rdi,rax
    2e04:	e8 4d 15 00 00       	call   0x4356
    2e09:	bf b3 5f 11 00       	mov    edi,0x115fb3
    2e0e:	e8 f0 14 00 00       	call   0x4303
    2e13:	bf 18 60 11 00       	mov    edi,0x116018
    2e18:	e8 e6 14 00 00       	call   0x4303
    2e1d:	48 8b 85 48 ff ff ff 	mov    rax,QWORD PTR [rbp-0xb8]
    2e24:	48 89 c7             	mov    rdi,rax
    2e27:	e8 2a 15 00 00       	call   0x4356
    2e2c:	bf b3 5f 11 00       	mov    edi,0x115fb3
    2e31:	e8 cd 14 00 00       	call   0x4303
    2e36:	bf 1e 60 11 00       	mov    edi,0x11601e
    2e3b:	e8 c3 14 00 00       	call   0x4303
    2e40:	48 8b 85 50 ff ff ff 	mov    rax,QWORD PTR [rbp-0xb0]
    2e47:	48 89 c7             	mov    rdi,rax
    2e4a:	e8 07 15 00 00       	call   0x4356
    2e4f:	bf b3 5f 11 00       	mov    edi,0x115fb3
    2e54:	e8 aa 14 00 00       	call   0x4303
    2e59:	bf 24 60 11 00       	mov    edi,0x116024
    2e5e:	e8 a0 14 00 00       	call   0x4303
    2e63:	48 8b 85 58 ff ff ff 	mov    rax,QWORD PTR [rbp-0xa8]
    2e6a:	48 89 c7             	mov    rdi,rax
    2e6d:	e8 e4 14 00 00       	call   0x4356
    2e72:	bf b3 5f 11 00       	mov    edi,0x115fb3
    2e77:	e8 87 14 00 00       	call   0x4303
    2e7c:	bf 2a 60 11 00       	mov    edi,0x11602a
    2e81:	e8 7d 14 00 00       	call   0x4303
    2e86:	48 8b 85 60 ff ff ff 	mov    rax,QWORD PTR [rbp-0xa0]
    2e8d:	48 89 c7             	mov    rdi,rax
    2e90:	e8 c1 14 00 00       	call   0x4356
    2e95:	bf b3 5f 11 00       	mov    edi,0x115fb3
    2e9a:	e8 64 14 00 00       	call   0x4303
    2e9f:	bf 30 60 11 00       	mov    edi,0x116030
    2ea4:	e8 5a 14 00 00       	call   0x4303
    2ea9:	48 8b 85 68 ff ff ff 	mov    rax,QWORD PTR [rbp-0x98]
    2eb0:	48 89 c7             	mov    rdi,rax
    2eb3:	e8 9e 14 00 00       	call   0x4356
    2eb8:	bf b3 5f 11 00       	mov    edi,0x115fb3
    2ebd:	e8 41 14 00 00       	call   0x4303
    2ec2:	bf 36 60 11 00       	mov    edi,0x116036
    2ec7:	e8 37 14 00 00       	call   0x4303
    2ecc:	48 8b 85 70 ff ff ff 	mov    rax,QWORD PTR [rbp-0x90]
    2ed3:	48 89 c7             	mov    rdi,rax
    2ed6:	e8 7b 14 00 00       	call   0x4356
    2edb:	bf b3 5f 11 00       	mov    edi,0x115fb3
    2ee0:	e8 1e 14 00 00       	call   0x4303
    2ee5:	bf 3b 60 11 00       	mov    edi,0x11603b
    2eea:	e8 14 14 00 00       	call   0x4303
    2eef:	48 8b 85 78 ff ff ff 	mov    rax,QWORD PTR [rbp-0x88]
    2ef6:	48 89 c7             	mov    rdi,rax
    2ef9:	e8 58 14 00 00       	call   0x4356
    2efe:	bf b3 5f 11 00       	mov    edi,0x115fb3
    2f03:	e8 fb 13 00 00       	call   0x4303
    2f08:	bf 40 60 11 00       	mov    edi,0x116040
    2f0d:	e8 f1 13 00 00       	call   0x4303
    2f12:	48 8b 45 80          	mov    rax,QWORD PTR [rbp-0x80]
    2f16:	48 89 c7             	mov    rdi,rax
    2f19:	e8 38 14 00 00       	call   0x4356
    2f1e:	bf b3 5f 11 00       	mov    edi,0x115fb3
    2f23:	e8 db 13 00 00       	call   0x4303
    2f28:	bf 46 60 11 00       	mov    edi,0x116046
    2f2d:	e8 d1 13 00 00       	call   0x4303
    2f32:	48 8b 45 88          	mov    rax,QWORD PTR [rbp-0x78]
    2f36:	48 89 c7             	mov    rdi,rax
    2f39:	e8 18 14 00 00       	call   0x4356
    2f3e:	bf b3 5f 11 00       	mov    edi,0x115fb3
    2f43:	e8 bb 13 00 00       	call   0x4303
    2f48:	bf 4c 60 11 00       	mov    edi,0x11604c
    2f4d:	e8 b1 13 00 00       	call   0x4303
    2f52:	48 8b 45 90          	mov    rax,QWORD PTR [rbp-0x70]
    2f56:	48 89 c7             	mov    rdi,rax
    2f59:	e8 f8 13 00 00       	call   0x4356
    2f5e:	bf b3 5f 11 00       	mov    edi,0x115fb3
    2f63:	e8 9b 13 00 00       	call   0x4303
    2f68:	bf 52 60 11 00       	mov    edi,0x116052
    2f6d:	e8 91 13 00 00       	call   0x4303
    2f72:	48 8b 45 98          	mov    rax,QWORD PTR [rbp-0x68]
    2f76:	48 89 c7             	mov    rdi,rax
    2f79:	e8 d8 13 00 00       	call   0x4356
    2f7e:	bf b3 5f 11 00       	mov    edi,0x115fb3
    2f83:	e8 7b 13 00 00       	call   0x4303
    2f88:	bf 58 60 11 00       	mov    edi,0x116058
    2f8d:	e8 71 13 00 00       	call   0x4303
    2f92:	48 8b 45 a0          	mov    rax,QWORD PTR [rbp-0x60]
    2f96:	48 89 c7             	mov    rdi,rax
    2f99:	e8 b8 13 00 00       	call   0x4356
    2f9e:	bf b3 5f 11 00       	mov    edi,0x115fb3
    2fa3:	e8 5b 13 00 00       	call   0x4303
    2fa8:	bf 5e 60 11 00       	mov    edi,0x11605e
    2fad:	e8 51 13 00 00       	call   0x4303
    2fb2:	48 8b 45 a8          	mov    rax,QWORD PTR [rbp-0x58]
    2fb6:	48 89 c7             	mov    rdi,rax
    2fb9:	e8 98 13 00 00       	call   0x4356
    2fbe:	bf b3 5f 11 00       	mov    edi,0x115fb3
    2fc3:	e8 3b 13 00 00       	call   0x4303
    2fc8:	bf ad 5f 11 00       	mov    edi,0x115fad
    2fcd:	e8 31 13 00 00       	call   0x4303
    2fd2:	48 8b 85 28 ff ff ff 	mov    rax,QWORD PTR [rbp-0xd8]
    2fd9:	48 8b 00             	mov    rax,QWORD PTR [rax]
    2fdc:	48 89 c7             	mov    rdi,rax
    2fdf:	e8 72 13 00 00       	call   0x4356
    2fe4:	bf b3 5f 11 00       	mov    edi,0x115fb3
    2fe9:	e8 15 13 00 00       	call   0x4303
    2fee:	bf b5 5f 11 00       	mov    edi,0x115fb5
    2ff3:	e8 0b 13 00 00       	call   0x4303
    2ff8:	48 8b 85 28 ff ff ff 	mov    rax,QWORD PTR [rbp-0xd8]
    2fff:	48 8b 40 08          	mov    rax,QWORD PTR [rax+0x8]
    3003:	48 89 c7             	mov    rdi,rax
    3006:	e8 4b 13 00 00       	call   0x4356
    300b:	bf b3 5f 11 00       	mov    edi,0x115fb3
    3010:	e8 ee 12 00 00       	call   0x4303
    3015:	bf ba 5f 11 00       	mov    edi,0x115fba
    301a:	e8 e4 12 00 00       	call   0x4303
    301f:	48 8b 85 28 ff ff ff 	mov    rax,QWORD PTR [rbp-0xd8]
    3026:	48 8b 40 10          	mov    rax,QWORD PTR [rax+0x10]
    302a:	48 89 c7             	mov    rdi,rax
    302d:	e8 24 13 00 00       	call   0x4356
    3032:	bf b3 5f 11 00       	mov    edi,0x115fb3
    3037:	e8 c7 12 00 00       	call   0x4303
    303c:	bf c3 5f 11 00       	mov    edi,0x115fc3
    3041:	e8 bd 12 00 00       	call   0x4303
    3046:	48 8b 85 28 ff ff ff 	mov    rax,QWORD PTR [rbp-0xd8]
    304d:	48 8b 40 18          	mov    rax,QWORD PTR [rax+0x18]
    3051:	48 89 c7             	mov    rdi,rax
    3054:	e8 fd 12 00 00       	call   0x4356
    3059:	bf b3 5f 11 00       	mov    edi,0x115fb3
    305e:	e8 a0 12 00 00       	call   0x4303
    3063:	bf c9 5f 11 00       	mov    edi,0x115fc9
    3068:	e8 96 12 00 00       	call   0x4303
    306d:	48 8b 85 28 ff ff ff 	mov    rax,QWORD PTR [rbp-0xd8]
    3074:	48 8b 40 20          	mov    rax,QWORD PTR [rax+0x20]
    3078:	48 89 c7             	mov    rdi,rax
    307b:	e8 d6 12 00 00       	call   0x4356
    3080:	bf ce 5f 11 00       	mov    edi,0x115fce
    3085:	e8 79 12 00 00       	call   0x4303
    308a:	48 8b 05 d7 4a 00 00 	mov    rax,QWORD PTR [rip+0x4ad7]        # 0x7b68
    3091:	41 b9 91 60 11 00    	mov    r9d,0x116091
    3097:	49 89 c0             	mov    r8,rax
    309a:	8b 0d 9c 4a 00 00    	mov    ecx,DWORD PTR [rip+0x4a9c]        # 0x7b3c
    30a0:	8b 15 8a 4a 00 00    	mov    edx,DWORD PTR [rip+0x4a8a]        # 0x7b30
    30a6:	be f4 01 00 00       	mov    esi,0x1f4
    30ab:	bf 58 02 00 00       	mov    edi,0x258
    30b0:	e8 36 d8 ff ff       	call   0x8eb
    30b5:	f4                   	hlt    
    30b6:	eb fd                	jmp    0x30b5
0x00000000001130b8: nm_handler
    30b8:	55                   	push   rbp
    30b9:	48 89 e5             	mov    rbp,rsp
    30bc:	41 53                	push   r11
    30be:	41 52                	push   r10
    30c0:	41 51                	push   r9
    30c2:	41 50                	push   r8
    30c4:	57                   	push   rdi
    30c5:	56                   	push   rsi
    30c6:	51                   	push   rcx
    30c7:	52                   	push   rdx
    30c8:	50                   	push   rax
    30c9:	48 83 ec 18          	sub    rsp,0x18
    30cd:	48 8d 45 08          	lea    rax,[rbp+0x8]
    30d1:	48 89 45 a8          	mov    QWORD PTR [rbp-0x58],rax
    30d5:	fc                   	cld    
    30d6:	e8 63 e9 ff ff       	call   0x1a3e
    30db:	bf 95 60 11 00       	mov    edi,0x116095
    30e0:	e8 1e 12 00 00       	call   0x4303
    30e5:	bf ad 5f 11 00       	mov    edi,0x115fad
    30ea:	e8 14 12 00 00       	call   0x4303
    30ef:	48 8b 45 a8          	mov    rax,QWORD PTR [rbp-0x58]
    30f3:	48 8b 00             	mov    rax,QWORD PTR [rax]
    30f6:	48 89 c7             	mov    rdi,rax
    30f9:	e8 58 12 00 00       	call   0x4356
    30fe:	bf b3 5f 11 00       	mov    edi,0x115fb3
    3103:	e8 fb 11 00 00       	call   0x4303
    3108:	bf b5 5f 11 00       	mov    edi,0x115fb5
    310d:	e8 f1 11 00 00       	call   0x4303
    3112:	48 8b 45 a8          	mov    rax,QWORD PTR [rbp-0x58]
    3116:	48 8b 40 08          	mov    rax,QWORD PTR [rax+0x8]
    311a:	48 89 c7             	mov    rdi,rax
    311d:	e8 34 12 00 00       	call   0x4356
    3122:	bf b3 5f 11 00       	mov    edi,0x115fb3
    3127:	e8 d7 11 00 00       	call   0x4303
    312c:	bf ba 5f 11 00       	mov    edi,0x115fba
    3131:	e8 cd 11 00 00       	call   0x4303
    3136:	48 8b 45 a8          	mov    rax,QWORD PTR [rbp-0x58]
    313a:	48 8b 40 10          	mov    rax,QWORD PTR [rax+0x10]
    313e:	48 89 c7             	mov    rdi,rax
    3141:	e8 10 12 00 00       	call   0x4356
    3146:	bf b3 5f 11 00       	mov    edi,0x115fb3
    314b:	e8 b3 11 00 00       	call   0x4303
    3150:	bf c3 5f 11 00       	mov    edi,0x115fc3
    3155:	e8 a9 11 00 00       	call   0x4303
    315a:	48 8b 45 a8          	mov    rax,QWORD PTR [rbp-0x58]
    315e:	48 8b 40 18          	mov    rax,QWORD PTR [rax+0x18]
    3162:	48 89 c7             	mov    rdi,rax
    3165:	e8 ec 11 00 00       	call   0x4356
    316a:	bf b3 5f 11 00       	mov    edi,0x115fb3
    316f:	e8 8f 11 00 00       	call   0x4303
    3174:	bf c9 5f 11 00       	mov    edi,0x115fc9
    3179:	e8 85 11 00 00       	call   0x4303
    317e:	48 8b 45 a8          	mov    rax,QWORD PTR [rbp-0x58]
    3182:	48 8b 40 20          	mov    rax,QWORD PTR [rax+0x20]
    3186:	48 89 c7             	mov    rdi,rax
    3189:	e8 c8 11 00 00       	call   0x4356
    318e:	bf ce 5f 11 00       	mov    edi,0x115fce
    3193:	e8 6b 11 00 00       	call   0x4303
    3198:	48 8b 05 c9 49 00 00 	mov    rax,QWORD PTR [rip+0x49c9]        # 0x7b68
    319f:	41 b9 a0 60 11 00    	mov    r9d,0x1160a0
    31a5:	49 89 c0             	mov    r8,rax
    31a8:	8b 0d 8e 49 00 00    	mov    ecx,DWORD PTR [rip+0x498e]        # 0x7b3c
    31ae:	8b 15 7c 49 00 00    	mov    edx,DWORD PTR [rip+0x497c]        # 0x7b30
    31b4:	be f4 01 00 00       	mov    esi,0x1f4
    31b9:	bf 58 02 00 00       	mov    edi,0x258
    31be:	e8 28 d7 ff ff       	call   0x8eb
    31c3:	f4                   	hlt    
    31c4:	eb fd                	jmp    0x31c3
0x00000000001131c6: df_handler
    31c6:	55                   	push   rbp
    31c7:	48 89 e5             	mov    rbp,rsp
    31ca:	41 53                	push   r11
    31cc:	41 52                	push   r10
    31ce:	41 51                	push   r9
    31d0:	41 50                	push   r8
    31d2:	57                   	push   rdi
    31d3:	56                   	push   rsi
    31d4:	51                   	push   rcx
    31d5:	52                   	push   rdx
    31d6:	50                   	push   rax
    31d7:	48 83 ec 18          	sub    rsp,0x18
    31db:	48 8d 45 10          	lea    rax,[rbp+0x10]
    31df:	48 89 45 a8          	mov    QWORD PTR [rbp-0x58],rax
    31e3:	48 8b 45 08          	mov    rax,QWORD PTR [rbp+0x8]
    31e7:	48 89 45 a0          	mov    QWORD PTR [rbp-0x60],rax
    31eb:	fc                   	cld    
    31ec:	e8 4d e8 ff ff       	call   0x1a3e
    31f1:	bf a4 60 11 00       	mov    edi,0x1160a4
    31f6:	e8 08 11 00 00       	call   0x4303
    31fb:	48 8b 45 a0          	mov    rax,QWORD PTR [rbp-0x60]
    31ff:	48 89 c7             	mov    rdi,rax
    3202:	e8 4f 11 00 00       	call   0x4356
    3207:	bf b3 5f 11 00       	mov    edi,0x115fb3
    320c:	e8 f2 10 00 00       	call   0x4303
    3211:	bf ad 5f 11 00       	mov    edi,0x115fad
    3216:	e8 e8 10 00 00       	call   0x4303
    321b:	48 8b 45 a8          	mov    rax,QWORD PTR [rbp-0x58]
    321f:	48 8b 00             	mov    rax,QWORD PTR [rax]
    3222:	48 89 c7             	mov    rdi,rax
    3225:	e8 2c 11 00 00       	call   0x4356
    322a:	bf b3 5f 11 00       	mov    edi,0x115fb3
    322f:	e8 cf 10 00 00       	call   0x4303
    3234:	bf b5 5f 11 00       	mov    edi,0x115fb5
    3239:	e8 c5 10 00 00       	call   0x4303
    323e:	48 8b 45 a8          	mov    rax,QWORD PTR [rbp-0x58]
    3242:	48 8b 40 08          	mov    rax,QWORD PTR [rax+0x8]
    3246:	48 89 c7             	mov    rdi,rax
    3249:	e8 08 11 00 00       	call   0x4356
    324e:	bf b3 5f 11 00       	mov    edi,0x115fb3
    3253:	e8 ab 10 00 00       	call   0x4303
    3258:	bf ba 5f 11 00       	mov    edi,0x115fba
    325d:	e8 a1 10 00 00       	call   0x4303
    3262:	48 8b 45 a8          	mov    rax,QWORD PTR [rbp-0x58]
    3266:	48 8b 40 10          	mov    rax,QWORD PTR [rax+0x10]
    326a:	48 89 c7             	mov    rdi,rax
    326d:	e8 e4 10 00 00       	call   0x4356
    3272:	bf b3 5f 11 00       	mov    edi,0x115fb3
    3277:	e8 87 10 00 00       	call   0x4303
    327c:	bf c3 5f 11 00       	mov    edi,0x115fc3
    3281:	e8 7d 10 00 00       	call   0x4303
    3286:	48 8b 45 a8          	mov    rax,QWORD PTR [rbp-0x58]
    328a:	48 8b 40 18          	mov    rax,QWORD PTR [rax+0x18]
    328e:	48 89 c7             	mov    rdi,rax
    3291:	e8 c0 10 00 00       	call   0x4356
    3296:	bf b3 5f 11 00       	mov    edi,0x115fb3
    329b:	e8 63 10 00 00       	call   0x4303
    32a0:	bf c9 5f 11 00       	mov    edi,0x115fc9
    32a5:	e8 59 10 00 00       	call   0x4303
    32aa:	48 8b 45 a8          	mov    rax,QWORD PTR [rbp-0x58]
    32ae:	48 8b 40 20          	mov    rax,QWORD PTR [rax+0x20]
    32b2:	48 89 c7             	mov    rdi,rax
    32b5:	e8 9c 10 00 00       	call   0x4356
    32ba:	bf ce 5f 11 00       	mov    edi,0x115fce
    32bf:	e8 3f 10 00 00       	call   0x4303
    32c4:	48 8b 05 9d 48 00 00 	mov    rax,QWORD PTR [rip+0x489d]        # 0x7b68
    32cb:	41 b9 b6 60 11 00    	mov    r9d,0x1160b6
    32d1:	49 89 c0             	mov    r8,rax
    32d4:	8b 0d 62 48 00 00    	mov    ecx,DWORD PTR [rip+0x4862]        # 0x7b3c
    32da:	8b 15 50 48 00 00    	mov    edx,DWORD PTR [rip+0x4850]        # 0x7b30
    32e0:	be f4 01 00 00       	mov    esi,0x1f4
    32e5:	bf 58 02 00 00       	mov    edi,0x258
    32ea:	e8 fc d5 ff ff       	call   0x8eb
    32ef:	f4                   	hlt    
    32f0:	eb fd                	jmp    0x32ef
0x00000000001132f2: ts_handler
    32f2:	55                   	push   rbp
    32f3:	48 89 e5             	mov    rbp,rsp
    32f6:	41 53                	push   r11
    32f8:	41 52                	push   r10
    32fa:	41 51                	push   r9
    32fc:	41 50                	push   r8
    32fe:	57                   	push   rdi
    32ff:	56                   	push   rsi
    3300:	51                   	push   rcx
    3301:	52                   	push   rdx
    3302:	50                   	push   rax
    3303:	48 83 ec 18          	sub    rsp,0x18
    3307:	48 8d 45 10          	lea    rax,[rbp+0x10]
    330b:	48 89 45 a8          	mov    QWORD PTR [rbp-0x58],rax
    330f:	48 8b 45 08          	mov    rax,QWORD PTR [rbp+0x8]
    3313:	48 89 45 a0          	mov    QWORD PTR [rbp-0x60],rax
    3317:	fc                   	cld    
    3318:	e8 21 e7 ff ff       	call   0x1a3e
    331d:	bf ba 60 11 00       	mov    edi,0x1160ba
    3322:	e8 dc 0f 00 00       	call   0x4303
    3327:	48 8b 45 a0          	mov    rax,QWORD PTR [rbp-0x60]
    332b:	48 89 c7             	mov    rdi,rax
    332e:	e8 23 10 00 00       	call   0x4356
    3333:	bf b3 5f 11 00       	mov    edi,0x115fb3
    3338:	e8 c6 0f 00 00       	call   0x4303
    333d:	bf ad 5f 11 00       	mov    edi,0x115fad
    3342:	e8 bc 0f 00 00       	call   0x4303
    3347:	48 8b 45 a8          	mov    rax,QWORD PTR [rbp-0x58]
    334b:	48 8b 00             	mov    rax,QWORD PTR [rax]
    334e:	48 89 c7             	mov    rdi,rax
    3351:	e8 00 10 00 00       	call   0x4356
    3356:	bf b3 5f 11 00       	mov    edi,0x115fb3
    335b:	e8 a3 0f 00 00       	call   0x4303
    3360:	bf b5 5f 11 00       	mov    edi,0x115fb5
    3365:	e8 99 0f 00 00       	call   0x4303
    336a:	48 8b 45 a8          	mov    rax,QWORD PTR [rbp-0x58]
    336e:	48 8b 40 08          	mov    rax,QWORD PTR [rax+0x8]
    3372:	48 89 c7             	mov    rdi,rax
    3375:	e8 dc 0f 00 00       	call   0x4356
    337a:	bf b3 5f 11 00       	mov    edi,0x115fb3
    337f:	e8 7f 0f 00 00       	call   0x4303
    3384:	bf ba 5f 11 00       	mov    edi,0x115fba
    3389:	e8 75 0f 00 00       	call   0x4303
    338e:	48 8b 45 a8          	mov    rax,QWORD PTR [rbp-0x58]
    3392:	48 8b 40 10          	mov    rax,QWORD PTR [rax+0x10]
    3396:	48 89 c7             	mov    rdi,rax
    3399:	e8 b8 0f 00 00       	call   0x4356
    339e:	bf b3 5f 11 00       	mov    edi,0x115fb3
    33a3:	e8 5b 0f 00 00       	call   0x4303
    33a8:	bf c3 5f 11 00       	mov    edi,0x115fc3
    33ad:	e8 51 0f 00 00       	call   0x4303
    33b2:	48 8b 45 a8          	mov    rax,QWORD PTR [rbp-0x58]
    33b6:	48 8b 40 18          	mov    rax,QWORD PTR [rax+0x18]
    33ba:	48 89 c7             	mov    rdi,rax
    33bd:	e8 94 0f 00 00       	call   0x4356
    33c2:	bf b3 5f 11 00       	mov    edi,0x115fb3
    33c7:	e8 37 0f 00 00       	call   0x4303
    33cc:	bf c9 5f 11 00       	mov    edi,0x115fc9
    33d1:	e8 2d 0f 00 00       	call   0x4303
    33d6:	48 8b 45 a8          	mov    rax,QWORD PTR [rbp-0x58]
    33da:	48 8b 40 20          	mov    rax,QWORD PTR [rax+0x20]
    33de:	48 89 c7             	mov    rdi,rax
    33e1:	e8 70 0f 00 00       	call   0x4356
    33e6:	bf ce 5f 11 00       	mov    edi,0x115fce
    33eb:	e8 13 0f 00 00       	call   0x4303
    33f0:	48 8b 05 71 47 00 00 	mov    rax,QWORD PTR [rip+0x4771]        # 0x7b68
    33f7:	41 b9 cc 60 11 00    	mov    r9d,0x1160cc
    33fd:	49 89 c0             	mov    r8,rax
    3400:	8b 0d 36 47 00 00    	mov    ecx,DWORD PTR [rip+0x4736]        # 0x7b3c
    3406:	8b 15 24 47 00 00    	mov    edx,DWORD PTR [rip+0x4724]        # 0x7b30
    340c:	be f4 01 00 00       	mov    esi,0x1f4
    3411:	bf 58 02 00 00       	mov    edi,0x258
    3416:	e8 d0 d4 ff ff       	call   0x8eb
    341b:	f4                   	hlt    
    341c:	eb fd                	jmp    0x341b
0x000000000011341e: np_handler
    341e:	55                   	push   rbp
    341f:	48 89 e5             	mov    rbp,rsp
    3422:	41 53                	push   r11
    3424:	41 52                	push   r10
    3426:	41 51                	push   r9
    3428:	41 50                	push   r8
    342a:	57                   	push   rdi
    342b:	56                   	push   rsi
    342c:	51                   	push   rcx
    342d:	52                   	push   rdx
    342e:	50                   	push   rax
    342f:	48 83 ec 18          	sub    rsp,0x18
    3433:	48 8d 45 10          	lea    rax,[rbp+0x10]
    3437:	48 89 45 a8          	mov    QWORD PTR [rbp-0x58],rax
    343b:	48 8b 45 08          	mov    rax,QWORD PTR [rbp+0x8]
    343f:	48 89 45 a0          	mov    QWORD PTR [rbp-0x60],rax
    3443:	fc                   	cld    
    3444:	e8 f5 e5 ff ff       	call   0x1a3e
    3449:	bf d0 60 11 00       	mov    edi,0x1160d0
    344e:	e8 b0 0e 00 00       	call   0x4303
    3453:	48 8b 45 a0          	mov    rax,QWORD PTR [rbp-0x60]
    3457:	48 89 c7             	mov    rdi,rax
    345a:	e8 f7 0e 00 00       	call   0x4356
    345f:	bf b3 5f 11 00       	mov    edi,0x115fb3
    3464:	e8 9a 0e 00 00       	call   0x4303
    3469:	bf ad 5f 11 00       	mov    edi,0x115fad
    346e:	e8 90 0e 00 00       	call   0x4303
    3473:	48 8b 45 a8          	mov    rax,QWORD PTR [rbp-0x58]
    3477:	48 8b 00             	mov    rax,QWORD PTR [rax]
    347a:	48 89 c7             	mov    rdi,rax
    347d:	e8 d4 0e 00 00       	call   0x4356
    3482:	bf b3 5f 11 00       	mov    edi,0x115fb3
    3487:	e8 77 0e 00 00       	call   0x4303
    348c:	bf b5 5f 11 00       	mov    edi,0x115fb5
    3491:	e8 6d 0e 00 00       	call   0x4303
    3496:	48 8b 45 a8          	mov    rax,QWORD PTR [rbp-0x58]
    349a:	48 8b 40 08          	mov    rax,QWORD PTR [rax+0x8]
    349e:	48 89 c7             	mov    rdi,rax
    34a1:	e8 b0 0e 00 00       	call   0x4356
    34a6:	bf b3 5f 11 00       	mov    edi,0x115fb3
    34ab:	e8 53 0e 00 00       	call   0x4303
    34b0:	bf ba 5f 11 00       	mov    edi,0x115fba
    34b5:	e8 49 0e 00 00       	call   0x4303
    34ba:	48 8b 45 a8          	mov    rax,QWORD PTR [rbp-0x58]
    34be:	48 8b 40 10          	mov    rax,QWORD PTR [rax+0x10]
    34c2:	48 89 c7             	mov    rdi,rax
    34c5:	e8 8c 0e 00 00       	call   0x4356
    34ca:	bf b3 5f 11 00       	mov    edi,0x115fb3
    34cf:	e8 2f 0e 00 00       	call   0x4303
    34d4:	bf c3 5f 11 00       	mov    edi,0x115fc3
    34d9:	e8 25 0e 00 00       	call   0x4303
    34de:	48 8b 45 a8          	mov    rax,QWORD PTR [rbp-0x58]
    34e2:	48 8b 40 18          	mov    rax,QWORD PTR [rax+0x18]
    34e6:	48 89 c7             	mov    rdi,rax
    34e9:	e8 68 0e 00 00       	call   0x4356
    34ee:	bf b3 5f 11 00       	mov    edi,0x115fb3
    34f3:	e8 0b 0e 00 00       	call   0x4303
    34f8:	bf c9 5f 11 00       	mov    edi,0x115fc9
    34fd:	e8 01 0e 00 00       	call   0x4303
    3502:	48 8b 45 a8          	mov    rax,QWORD PTR [rbp-0x58]
    3506:	48 8b 40 20          	mov    rax,QWORD PTR [rax+0x20]
    350a:	48 89 c7             	mov    rdi,rax
    350d:	e8 44 0e 00 00       	call   0x4356
    3512:	bf ce 5f 11 00       	mov    edi,0x115fce
    3517:	e8 e7 0d 00 00       	call   0x4303
    351c:	48 8b 05 45 46 00 00 	mov    rax,QWORD PTR [rip+0x4645]        # 0x7b68
    3523:	41 b9 e2 60 11 00    	mov    r9d,0x1160e2
    3529:	49 89 c0             	mov    r8,rax
    352c:	8b 0d 0a 46 00 00    	mov    ecx,DWORD PTR [rip+0x460a]        # 0x7b3c
    3532:	8b 15 f8 45 00 00    	mov    edx,DWORD PTR [rip+0x45f8]        # 0x7b30
    3538:	be f4 01 00 00       	mov    esi,0x1f4
    353d:	bf 58 02 00 00       	mov    edi,0x258
    3542:	e8 a4 d3 ff ff       	call   0x8eb
    3547:	f4                   	hlt    
    3548:	eb fd                	jmp    0x3547
0x000000000011354a: ss_handler
    354a:	55                   	push   rbp
    354b:	48 89 e5             	mov    rbp,rsp
    354e:	41 53                	push   r11
    3550:	41 52                	push   r10
    3552:	41 51                	push   r9
    3554:	41 50                	push   r8
    3556:	57                   	push   rdi
    3557:	56                   	push   rsi
    3558:	51                   	push   rcx
    3559:	52                   	push   rdx
    355a:	50                   	push   rax
    355b:	48 83 ec 18          	sub    rsp,0x18
    355f:	48 8d 45 10          	lea    rax,[rbp+0x10]
    3563:	48 89 45 a8          	mov    QWORD PTR [rbp-0x58],rax
    3567:	48 8b 45 08          	mov    rax,QWORD PTR [rbp+0x8]
    356b:	48 89 45 a0          	mov    QWORD PTR [rbp-0x60],rax
    356f:	fc                   	cld    
    3570:	e8 c9 e4 ff ff       	call   0x1a3e
    3575:	bf e6 60 11 00       	mov    edi,0x1160e6
    357a:	e8 84 0d 00 00       	call   0x4303
    357f:	48 8b 45 a0          	mov    rax,QWORD PTR [rbp-0x60]
    3583:	48 89 c7             	mov    rdi,rax
    3586:	e8 cb 0d 00 00       	call   0x4356
    358b:	bf b3 5f 11 00       	mov    edi,0x115fb3
    3590:	e8 6e 0d 00 00       	call   0x4303
    3595:	bf ad 5f 11 00       	mov    edi,0x115fad
    359a:	e8 64 0d 00 00       	call   0x4303
    359f:	48 8b 45 a8          	mov    rax,QWORD PTR [rbp-0x58]
    35a3:	48 8b 00             	mov    rax,QWORD PTR [rax]
    35a6:	48 89 c7             	mov    rdi,rax
    35a9:	e8 a8 0d 00 00       	call   0x4356
    35ae:	bf b3 5f 11 00       	mov    edi,0x115fb3
    35b3:	e8 4b 0d 00 00       	call   0x4303
    35b8:	bf b5 5f 11 00       	mov    edi,0x115fb5
    35bd:	e8 41 0d 00 00       	call   0x4303
    35c2:	48 8b 45 a8          	mov    rax,QWORD PTR [rbp-0x58]
    35c6:	48 8b 40 08          	mov    rax,QWORD PTR [rax+0x8]
    35ca:	48 89 c7             	mov    rdi,rax
    35cd:	e8 84 0d 00 00       	call   0x4356
    35d2:	bf b3 5f 11 00       	mov    edi,0x115fb3
    35d7:	e8 27 0d 00 00       	call   0x4303
    35dc:	bf ba 5f 11 00       	mov    edi,0x115fba
    35e1:	e8 1d 0d 00 00       	call   0x4303
    35e6:	48 8b 45 a8          	mov    rax,QWORD PTR [rbp-0x58]
    35ea:	48 8b 40 10          	mov    rax,QWORD PTR [rax+0x10]
    35ee:	48 89 c7             	mov    rdi,rax
    35f1:	e8 60 0d 00 00       	call   0x4356
    35f6:	bf b3 5f 11 00       	mov    edi,0x115fb3
    35fb:	e8 03 0d 00 00       	call   0x4303
    3600:	bf c3 5f 11 00       	mov    edi,0x115fc3
    3605:	e8 f9 0c 00 00       	call   0x4303
    360a:	48 8b 45 a8          	mov    rax,QWORD PTR [rbp-0x58]
    360e:	48 8b 40 18          	mov    rax,QWORD PTR [rax+0x18]
    3612:	48 89 c7             	mov    rdi,rax
    3615:	e8 3c 0d 00 00       	call   0x4356
    361a:	bf b3 5f 11 00       	mov    edi,0x115fb3
    361f:	e8 df 0c 00 00       	call   0x4303
    3624:	bf c9 5f 11 00       	mov    edi,0x115fc9
    3629:	e8 d5 0c 00 00       	call   0x4303
    362e:	48 8b 45 a8          	mov    rax,QWORD PTR [rbp-0x58]
    3632:	48 8b 40 20          	mov    rax,QWORD PTR [rax+0x20]
    3636:	48 89 c7             	mov    rdi,rax
    3639:	e8 18 0d 00 00       	call   0x4356
    363e:	bf ce 5f 11 00       	mov    edi,0x115fce
    3643:	e8 bb 0c 00 00       	call   0x4303
    3648:	48 8b 05 19 45 00 00 	mov    rax,QWORD PTR [rip+0x4519]        # 0x7b68
    364f:	41 b9 f8 60 11 00    	mov    r9d,0x1160f8
    3655:	49 89 c0             	mov    r8,rax
    3658:	8b 0d de 44 00 00    	mov    ecx,DWORD PTR [rip+0x44de]        # 0x7b3c
    365e:	8b 15 cc 44 00 00    	mov    edx,DWORD PTR [rip+0x44cc]        # 0x7b30
    3664:	be f4 01 00 00       	mov    esi,0x1f4
    3669:	bf 58 02 00 00       	mov    edi,0x258
    366e:	e8 78 d2 ff ff       	call   0x8eb
    3673:	f4                   	hlt    
    3674:	eb fd                	jmp    0x3673
0x0000000000113676: gp_handler
    3676:	55                   	push   rbp
    3677:	48 89 e5             	mov    rbp,rsp
    367a:	41 53                	push   r11
    367c:	41 52                	push   r10
    367e:	41 51                	push   r9
    3680:	41 50                	push   r8
    3682:	57                   	push   rdi
    3683:	56                   	push   rsi
    3684:	51                   	push   rcx
    3685:	52                   	push   rdx
    3686:	50                   	push   rax
    3687:	48 83 ec 18          	sub    rsp,0x18
    368b:	48 8d 45 10          	lea    rax,[rbp+0x10]
    368f:	48 89 45 a8          	mov    QWORD PTR [rbp-0x58],rax
    3693:	48 8b 45 08          	mov    rax,QWORD PTR [rbp+0x8]
    3697:	48 89 45 a0          	mov    QWORD PTR [rbp-0x60],rax
    369b:	fc                   	cld    
    369c:	e8 9d e3 ff ff       	call   0x1a3e
    36a1:	bf fc 60 11 00       	mov    edi,0x1160fc
    36a6:	e8 58 0c 00 00       	call   0x4303
    36ab:	48 8b 45 a0          	mov    rax,QWORD PTR [rbp-0x60]
    36af:	48 89 c7             	mov    rdi,rax
    36b2:	e8 9f 0c 00 00       	call   0x4356
    36b7:	bf b3 5f 11 00       	mov    edi,0x115fb3
    36bc:	e8 42 0c 00 00       	call   0x4303
    36c1:	bf ad 5f 11 00       	mov    edi,0x115fad
    36c6:	e8 38 0c 00 00       	call   0x4303
    36cb:	48 8b 45 a8          	mov    rax,QWORD PTR [rbp-0x58]
    36cf:	48 8b 00             	mov    rax,QWORD PTR [rax]
    36d2:	48 89 c7             	mov    rdi,rax
    36d5:	e8 7c 0c 00 00       	call   0x4356
    36da:	bf b3 5f 11 00       	mov    edi,0x115fb3
    36df:	e8 1f 0c 00 00       	call   0x4303
    36e4:	bf b5 5f 11 00       	mov    edi,0x115fb5
    36e9:	e8 15 0c 00 00       	call   0x4303
    36ee:	48 8b 45 a8          	mov    rax,QWORD PTR [rbp-0x58]
    36f2:	48 8b 40 08          	mov    rax,QWORD PTR [rax+0x8]
    36f6:	48 89 c7             	mov    rdi,rax
    36f9:	e8 58 0c 00 00       	call   0x4356
    36fe:	bf b3 5f 11 00       	mov    edi,0x115fb3
    3703:	e8 fb 0b 00 00       	call   0x4303
    3708:	bf ba 5f 11 00       	mov    edi,0x115fba
    370d:	e8 f1 0b 00 00       	call   0x4303
    3712:	48 8b 45 a8          	mov    rax,QWORD PTR [rbp-0x58]
    3716:	48 8b 40 10          	mov    rax,QWORD PTR [rax+0x10]
    371a:	48 89 c7             	mov    rdi,rax
    371d:	e8 34 0c 00 00       	call   0x4356
    3722:	bf b3 5f 11 00       	mov    edi,0x115fb3
    3727:	e8 d7 0b 00 00       	call   0x4303
    372c:	bf c3 5f 11 00       	mov    edi,0x115fc3
    3731:	e8 cd 0b 00 00       	call   0x4303
    3736:	48 8b 45 a8          	mov    rax,QWORD PTR [rbp-0x58]
    373a:	48 8b 40 18          	mov    rax,QWORD PTR [rax+0x18]
    373e:	48 89 c7             	mov    rdi,rax
    3741:	e8 10 0c 00 00       	call   0x4356
    3746:	bf b3 5f 11 00       	mov    edi,0x115fb3
    374b:	e8 b3 0b 00 00       	call   0x4303
    3750:	bf c9 5f 11 00       	mov    edi,0x115fc9
    3755:	e8 a9 0b 00 00       	call   0x4303
    375a:	48 8b 45 a8          	mov    rax,QWORD PTR [rbp-0x58]
    375e:	48 8b 40 20          	mov    rax,QWORD PTR [rax+0x20]
    3762:	48 89 c7             	mov    rdi,rax
    3765:	e8 ec 0b 00 00       	call   0x4356
    376a:	bf ce 5f 11 00       	mov    edi,0x115fce
    376f:	e8 8f 0b 00 00       	call   0x4303
    3774:	48 8b 05 ed 43 00 00 	mov    rax,QWORD PTR [rip+0x43ed]        # 0x7b68
    377b:	41 b9 0e 61 11 00    	mov    r9d,0x11610e
    3781:	49 89 c0             	mov    r8,rax
    3784:	8b 0d b2 43 00 00    	mov    ecx,DWORD PTR [rip+0x43b2]        # 0x7b3c
    378a:	8b 15 a0 43 00 00    	mov    edx,DWORD PTR [rip+0x43a0]        # 0x7b30
    3790:	be f4 01 00 00       	mov    esi,0x1f4
    3795:	bf 58 02 00 00       	mov    edi,0x258
    379a:	e8 4c d1 ff ff       	call   0x8eb
    379f:	f4                   	hlt    
    37a0:	eb fd                	jmp    0x379f
0x00000000001137a2: pf_handler
    37a2:	55                   	push   rbp
    37a3:	48 89 e5             	mov    rbp,rsp
    37a6:	41 53                	push   r11
    37a8:	41 52                	push   r10
    37aa:	41 51                	push   r9
    37ac:	41 50                	push   r8
    37ae:	57                   	push   rdi
    37af:	56                   	push   rsi
    37b0:	51                   	push   rcx
    37b1:	52                   	push   rdx
    37b2:	50                   	push   rax
    37b3:	48 81 ec 98 00 00 00 	sub    rsp,0x98
    37ba:	48 8d 45 10          	lea    rax,[rbp+0x10]
    37be:	48 89 85 28 ff ff ff 	mov    QWORD PTR [rbp-0xd8],rax
    37c5:	48 8b 45 08          	mov    rax,QWORD PTR [rbp+0x8]
    37c9:	48 89 85 20 ff ff ff 	mov    QWORD PTR [rbp-0xe0],rax
    37d0:	fc                   	cld    
    37d1:	e8 68 e2 ff ff       	call   0x1a3e
    37d6:	48 8d 85 30 ff ff ff 	lea    rax,[rbp-0xd0]
    37dd:	48 89 c7             	mov    rdi,rax
    37e0:	e8 16 eb ff ff       	call   0x22fb
    37e5:	bf 12 61 11 00       	mov    edi,0x116112
    37ea:	e8 14 0b 00 00       	call   0x4303
    37ef:	bf 06 60 11 00       	mov    edi,0x116006
    37f4:	e8 0a 0b 00 00       	call   0x4303
    37f9:	48 8b 85 30 ff ff ff 	mov    rax,QWORD PTR [rbp-0xd0]
    3800:	48 89 c7             	mov    rdi,rax
    3803:	e8 4e 0b 00 00       	call   0x4356
    3808:	bf b3 5f 11 00       	mov    edi,0x115fb3
    380d:	e8 f1 0a 00 00       	call   0x4303
    3812:	bf 0c 60 11 00       	mov    edi,0x11600c
    3817:	e8 e7 0a 00 00       	call   0x4303
    381c:	48 8b 85 38 ff ff ff 	mov    rax,QWORD PTR [rbp-0xc8]
    3823:	48 89 c7             	mov    rdi,rax
    3826:	e8 2b 0b 00 00       	call   0x4356
    382b:	bf b3 5f 11 00       	mov    edi,0x115fb3
    3830:	e8 ce 0a 00 00       	call   0x4303
    3835:	bf 12 60 11 00       	mov    edi,0x116012
    383a:	e8 c4 0a 00 00       	call   0x4303
    383f:	48 8b 85 40 ff ff ff 	mov    rax,QWORD PTR [rbp-0xc0]
    3846:	48 89 c7             	mov    rdi,rax
    3849:	e8 08 0b 00 00       	call   0x4356
    384e:	bf b3 5f 11 00       	mov    edi,0x115fb3
    3853:	e8 ab 0a 00 00       	call   0x4303
    3858:	bf 18 60 11 00       	mov    edi,0x116018
    385d:	e8 a1 0a 00 00       	call   0x4303
    3862:	48 8b 85 48 ff ff ff 	mov    rax,QWORD PTR [rbp-0xb8]
    3869:	48 89 c7             	mov    rdi,rax
    386c:	e8 e5 0a 00 00       	call   0x4356
    3871:	bf b3 5f 11 00       	mov    edi,0x115fb3
    3876:	e8 88 0a 00 00       	call   0x4303
    387b:	bf 1e 60 11 00       	mov    edi,0x11601e
    3880:	e8 7e 0a 00 00       	call   0x4303
    3885:	48 8b 85 50 ff ff ff 	mov    rax,QWORD PTR [rbp-0xb0]
    388c:	48 89 c7             	mov    rdi,rax
    388f:	e8 c2 0a 00 00       	call   0x4356
    3894:	bf b3 5f 11 00       	mov    edi,0x115fb3
    3899:	e8 65 0a 00 00       	call   0x4303
    389e:	bf 24 60 11 00       	mov    edi,0x116024
    38a3:	e8 5b 0a 00 00       	call   0x4303
    38a8:	48 8b 85 58 ff ff ff 	mov    rax,QWORD PTR [rbp-0xa8]
    38af:	48 89 c7             	mov    rdi,rax
    38b2:	e8 9f 0a 00 00       	call   0x4356
    38b7:	bf b3 5f 11 00       	mov    edi,0x115fb3
    38bc:	e8 42 0a 00 00       	call   0x4303
    38c1:	bf 2a 60 11 00       	mov    edi,0x11602a
    38c6:	e8 38 0a 00 00       	call   0x4303
    38cb:	48 8b 85 60 ff ff ff 	mov    rax,QWORD PTR [rbp-0xa0]
    38d2:	48 89 c7             	mov    rdi,rax
    38d5:	e8 7c 0a 00 00       	call   0x4356
    38da:	bf b3 5f 11 00       	mov    edi,0x115fb3
    38df:	e8 1f 0a 00 00       	call   0x4303
    38e4:	bf 30 60 11 00       	mov    edi,0x116030
    38e9:	e8 15 0a 00 00       	call   0x4303
    38ee:	48 8b 85 68 ff ff ff 	mov    rax,QWORD PTR [rbp-0x98]
    38f5:	48 89 c7             	mov    rdi,rax
    38f8:	e8 59 0a 00 00       	call   0x4356
    38fd:	bf b3 5f 11 00       	mov    edi,0x115fb3
    3902:	e8 fc 09 00 00       	call   0x4303
    3907:	bf 36 60 11 00       	mov    edi,0x116036
    390c:	e8 f2 09 00 00       	call   0x4303
    3911:	48 8b 85 70 ff ff ff 	mov    rax,QWORD PTR [rbp-0x90]
    3918:	48 89 c7             	mov    rdi,rax
    391b:	e8 36 0a 00 00       	call   0x4356
    3920:	bf b3 5f 11 00       	mov    edi,0x115fb3
    3925:	e8 d9 09 00 00       	call   0x4303
    392a:	bf 3b 60 11 00       	mov    edi,0x11603b
    392f:	e8 cf 09 00 00       	call   0x4303
    3934:	48 8b 85 78 ff ff ff 	mov    rax,QWORD PTR [rbp-0x88]
    393b:	48 89 c7             	mov    rdi,rax
    393e:	e8 13 0a 00 00       	call   0x4356
    3943:	bf b3 5f 11 00       	mov    edi,0x115fb3
    3948:	e8 b6 09 00 00       	call   0x4303
    394d:	bf 40 60 11 00       	mov    edi,0x116040
    3952:	e8 ac 09 00 00       	call   0x4303
    3957:	48 8b 45 80          	mov    rax,QWORD PTR [rbp-0x80]
    395b:	48 89 c7             	mov    rdi,rax
    395e:	e8 f3 09 00 00       	call   0x4356
    3963:	bf b3 5f 11 00       	mov    edi,0x115fb3
    3968:	e8 96 09 00 00       	call   0x4303
    396d:	bf 46 60 11 00       	mov    edi,0x116046
    3972:	e8 8c 09 00 00       	call   0x4303
    3977:	48 8b 45 88          	mov    rax,QWORD PTR [rbp-0x78]
    397b:	48 89 c7             	mov    rdi,rax
    397e:	e8 d3 09 00 00       	call   0x4356
    3983:	bf b3 5f 11 00       	mov    edi,0x115fb3
    3988:	e8 76 09 00 00       	call   0x4303
    398d:	bf 4c 60 11 00       	mov    edi,0x11604c
    3992:	e8 6c 09 00 00       	call   0x4303
    3997:	48 8b 45 90          	mov    rax,QWORD PTR [rbp-0x70]
    399b:	48 89 c7             	mov    rdi,rax
    399e:	e8 b3 09 00 00       	call   0x4356
    39a3:	bf b3 5f 11 00       	mov    edi,0x115fb3
    39a8:	e8 56 09 00 00       	call   0x4303
    39ad:	bf 52 60 11 00       	mov    edi,0x116052
    39b2:	e8 4c 09 00 00       	call   0x4303
    39b7:	48 8b 45 98          	mov    rax,QWORD PTR [rbp-0x68]
    39bb:	48 89 c7             	mov    rdi,rax
    39be:	e8 93 09 00 00       	call   0x4356
    39c3:	bf b3 5f 11 00       	mov    edi,0x115fb3
    39c8:	e8 36 09 00 00       	call   0x4303
    39cd:	bf 58 60 11 00       	mov    edi,0x116058
    39d2:	e8 2c 09 00 00       	call   0x4303
    39d7:	48 8b 45 a0          	mov    rax,QWORD PTR [rbp-0x60]
    39db:	48 89 c7             	mov    rdi,rax
    39de:	e8 73 09 00 00       	call   0x4356
    39e3:	bf b3 5f 11 00       	mov    edi,0x115fb3
    39e8:	e8 16 09 00 00       	call   0x4303
    39ed:	bf 5e 60 11 00       	mov    edi,0x11605e
    39f2:	e8 0c 09 00 00       	call   0x4303
    39f7:	48 8b 45 a8          	mov    rax,QWORD PTR [rbp-0x58]
    39fb:	48 89 c7             	mov    rdi,rax
    39fe:	e8 53 09 00 00       	call   0x4356
    3a03:	bf b3 5f 11 00       	mov    edi,0x115fb3
    3a08:	e8 f6 08 00 00       	call   0x4303
    3a0d:	bf 1f 61 11 00       	mov    edi,0x11611f
    3a12:	e8 ec 08 00 00       	call   0x4303
    3a17:	48 8b 85 20 ff ff ff 	mov    rax,QWORD PTR [rbp-0xe0]
    3a1e:	48 89 c7             	mov    rdi,rax
    3a21:	e8 30 09 00 00       	call   0x4356
    3a26:	bf b3 5f 11 00       	mov    edi,0x115fb3
    3a2b:	e8 d3 08 00 00       	call   0x4303
    3a30:	bf ad 5f 11 00       	mov    edi,0x115fad
    3a35:	e8 c9 08 00 00       	call   0x4303
    3a3a:	48 8b 85 28 ff ff ff 	mov    rax,QWORD PTR [rbp-0xd8]
    3a41:	48 8b 00             	mov    rax,QWORD PTR [rax]
    3a44:	48 89 c7             	mov    rdi,rax
    3a47:	e8 0a 09 00 00       	call   0x4356
    3a4c:	bf b3 5f 11 00       	mov    edi,0x115fb3
    3a51:	e8 ad 08 00 00       	call   0x4303
    3a56:	bf b5 5f 11 00       	mov    edi,0x115fb5
    3a5b:	e8 a3 08 00 00       	call   0x4303
    3a60:	48 8b 85 28 ff ff ff 	mov    rax,QWORD PTR [rbp-0xd8]
    3a67:	48 8b 40 08          	mov    rax,QWORD PTR [rax+0x8]
    3a6b:	48 89 c7             	mov    rdi,rax
    3a6e:	e8 e3 08 00 00       	call   0x4356
    3a73:	bf b3 5f 11 00       	mov    edi,0x115fb3
    3a78:	e8 86 08 00 00       	call   0x4303
    3a7d:	bf ba 5f 11 00       	mov    edi,0x115fba
    3a82:	e8 7c 08 00 00       	call   0x4303
    3a87:	48 8b 85 28 ff ff ff 	mov    rax,QWORD PTR [rbp-0xd8]
    3a8e:	48 8b 40 10          	mov    rax,QWORD PTR [rax+0x10]
    3a92:	48 89 c7             	mov    rdi,rax
    3a95:	e8 bc 08 00 00       	call   0x4356
    3a9a:	bf b3 5f 11 00       	mov    edi,0x115fb3
    3a9f:	e8 5f 08 00 00       	call   0x4303
    3aa4:	bf c3 5f 11 00       	mov    edi,0x115fc3
    3aa9:	e8 55 08 00 00       	call   0x4303
    3aae:	48 8b 85 28 ff ff ff 	mov    rax,QWORD PTR [rbp-0xd8]
    3ab5:	48 8b 40 18          	mov    rax,QWORD PTR [rax+0x18]
    3ab9:	48 89 c7             	mov    rdi,rax
    3abc:	e8 95 08 00 00       	call   0x4356
    3ac1:	bf b3 5f 11 00       	mov    edi,0x115fb3
    3ac6:	e8 38 08 00 00       	call   0x4303
    3acb:	bf c9 5f 11 00       	mov    edi,0x115fc9
    3ad0:	e8 2e 08 00 00       	call   0x4303
    3ad5:	48 8b 85 28 ff ff ff 	mov    rax,QWORD PTR [rbp-0xd8]
    3adc:	48 8b 40 20          	mov    rax,QWORD PTR [rax+0x20]
    3ae0:	48 89 c7             	mov    rdi,rax
    3ae3:	e8 6e 08 00 00       	call   0x4356
    3ae8:	bf ce 5f 11 00       	mov    edi,0x115fce
    3aed:	e8 11 08 00 00       	call   0x4303
    3af2:	48 8b 05 6f 40 00 00 	mov    rax,QWORD PTR [rip+0x406f]        # 0x7b68
    3af9:	41 b9 31 61 11 00    	mov    r9d,0x116131
    3aff:	49 89 c0             	mov    r8,rax
    3b02:	8b 0d 2c 40 00 00    	mov    ecx,DWORD PTR [rip+0x402c]        # 0x7b34
    3b08:	8b 15 22 40 00 00    	mov    edx,DWORD PTR [rip+0x4022]        # 0x7b30
    3b0e:	be f4 01 00 00       	mov    esi,0x1f4
    3b13:	bf 58 02 00 00       	mov    edi,0x258
    3b18:	e8 ce cd ff ff       	call   0x8eb
    3b1d:	f4                   	hlt    
    3b1e:	eb fd                	jmp    0x3b1d
0x0000000000113b20: mf_handler
    3b20:	55                   	push   rbp
    3b21:	48 89 e5             	mov    rbp,rsp
    3b24:	41 53                	push   r11
    3b26:	41 52                	push   r10
    3b28:	41 51                	push   r9
    3b2a:	41 50                	push   r8
    3b2c:	57                   	push   rdi
    3b2d:	56                   	push   rsi
    3b2e:	51                   	push   rcx
    3b2f:	52                   	push   rdx
    3b30:	50                   	push   rax
    3b31:	48 83 ec 18          	sub    rsp,0x18
    3b35:	48 8d 45 08          	lea    rax,[rbp+0x8]
    3b39:	48 89 45 a8          	mov    QWORD PTR [rbp-0x58],rax
    3b3d:	fc                   	cld    
    3b3e:	e8 fb de ff ff       	call   0x1a3e
    3b43:	bf 35 61 11 00       	mov    edi,0x116135
    3b48:	e8 b6 07 00 00       	call   0x4303
    3b4d:	bf ad 5f 11 00       	mov    edi,0x115fad
    3b52:	e8 ac 07 00 00       	call   0x4303
    3b57:	48 8b 45 a8          	mov    rax,QWORD PTR [rbp-0x58]
    3b5b:	48 8b 00             	mov    rax,QWORD PTR [rax]
    3b5e:	48 89 c7             	mov    rdi,rax
    3b61:	e8 f0 07 00 00       	call   0x4356
    3b66:	bf b3 5f 11 00       	mov    edi,0x115fb3
    3b6b:	e8 93 07 00 00       	call   0x4303
    3b70:	bf b5 5f 11 00       	mov    edi,0x115fb5
    3b75:	e8 89 07 00 00       	call   0x4303
    3b7a:	48 8b 45 a8          	mov    rax,QWORD PTR [rbp-0x58]
    3b7e:	48 8b 40 08          	mov    rax,QWORD PTR [rax+0x8]
    3b82:	48 89 c7             	mov    rdi,rax
    3b85:	e8 cc 07 00 00       	call   0x4356
    3b8a:	bf b3 5f 11 00       	mov    edi,0x115fb3
    3b8f:	e8 6f 07 00 00       	call   0x4303
    3b94:	bf ba 5f 11 00       	mov    edi,0x115fba
    3b99:	e8 65 07 00 00       	call   0x4303
    3b9e:	48 8b 45 a8          	mov    rax,QWORD PTR [rbp-0x58]
    3ba2:	48 8b 40 10          	mov    rax,QWORD PTR [rax+0x10]
    3ba6:	48 89 c7             	mov    rdi,rax
    3ba9:	e8 a8 07 00 00       	call   0x4356
    3bae:	bf b3 5f 11 00       	mov    edi,0x115fb3
    3bb3:	e8 4b 07 00 00       	call   0x4303
    3bb8:	bf c3 5f 11 00       	mov    edi,0x115fc3
    3bbd:	e8 41 07 00 00       	call   0x4303
    3bc2:	48 8b 45 a8          	mov    rax,QWORD PTR [rbp-0x58]
    3bc6:	48 8b 40 18          	mov    rax,QWORD PTR [rax+0x18]
    3bca:	48 89 c7             	mov    rdi,rax
    3bcd:	e8 84 07 00 00       	call   0x4356
    3bd2:	bf b3 5f 11 00       	mov    edi,0x115fb3
    3bd7:	e8 27 07 00 00       	call   0x4303
    3bdc:	bf c9 5f 11 00       	mov    edi,0x115fc9
    3be1:	e8 1d 07 00 00       	call   0x4303
    3be6:	48 8b 45 a8          	mov    rax,QWORD PTR [rbp-0x58]
    3bea:	48 8b 40 20          	mov    rax,QWORD PTR [rax+0x20]
    3bee:	48 89 c7             	mov    rdi,rax
    3bf1:	e8 60 07 00 00       	call   0x4356
    3bf6:	bf ce 5f 11 00       	mov    edi,0x115fce
    3bfb:	e8 03 07 00 00       	call   0x4303
    3c00:	48 8b 05 61 3f 00 00 	mov    rax,QWORD PTR [rip+0x3f61]        # 0x7b68
    3c07:	41 b9 40 61 11 00    	mov    r9d,0x116140
    3c0d:	49 89 c0             	mov    r8,rax
    3c10:	8b 0d 1e 3f 00 00    	mov    ecx,DWORD PTR [rip+0x3f1e]        # 0x7b34
    3c16:	8b 15 14 3f 00 00    	mov    edx,DWORD PTR [rip+0x3f14]        # 0x7b30
    3c1c:	be f4 01 00 00       	mov    esi,0x1f4
    3c21:	bf 58 02 00 00       	mov    edi,0x258
    3c26:	e8 c0 cc ff ff       	call   0x8eb
    3c2b:	f4                   	hlt    
    3c2c:	eb fd                	jmp    0x3c2b
0x0000000000113c2e: ac_handler
    3c2e:	55                   	push   rbp
    3c2f:	48 89 e5             	mov    rbp,rsp
    3c32:	41 53                	push   r11
    3c34:	41 52                	push   r10
    3c36:	41 51                	push   r9
    3c38:	41 50                	push   r8
    3c3a:	57                   	push   rdi
    3c3b:	56                   	push   rsi
    3c3c:	51                   	push   rcx
    3c3d:	52                   	push   rdx
    3c3e:	50                   	push   rax
    3c3f:	48 83 ec 18          	sub    rsp,0x18
    3c43:	48 8d 45 10          	lea    rax,[rbp+0x10]
    3c47:	48 89 45 a8          	mov    QWORD PTR [rbp-0x58],rax
    3c4b:	48 8b 45 08          	mov    rax,QWORD PTR [rbp+0x8]
    3c4f:	48 89 45 a0          	mov    QWORD PTR [rbp-0x60],rax
    3c53:	fc                   	cld    
    3c54:	e8 e5 dd ff ff       	call   0x1a3e
    3c59:	bf 44 61 11 00       	mov    edi,0x116144
    3c5e:	e8 a0 06 00 00       	call   0x4303
    3c63:	48 8b 45 a0          	mov    rax,QWORD PTR [rbp-0x60]
    3c67:	48 89 c7             	mov    rdi,rax
    3c6a:	e8 e7 06 00 00       	call   0x4356
    3c6f:	bf b3 5f 11 00       	mov    edi,0x115fb3
    3c74:	e8 8a 06 00 00       	call   0x4303
    3c79:	bf ad 5f 11 00       	mov    edi,0x115fad
    3c7e:	e8 80 06 00 00       	call   0x4303
    3c83:	48 8b 45 a8          	mov    rax,QWORD PTR [rbp-0x58]
    3c87:	48 8b 00             	mov    rax,QWORD PTR [rax]
    3c8a:	48 89 c7             	mov    rdi,rax
    3c8d:	e8 c4 06 00 00       	call   0x4356
    3c92:	bf b3 5f 11 00       	mov    edi,0x115fb3
    3c97:	e8 67 06 00 00       	call   0x4303
    3c9c:	bf b5 5f 11 00       	mov    edi,0x115fb5
    3ca1:	e8 5d 06 00 00       	call   0x4303
    3ca6:	48 8b 45 a8          	mov    rax,QWORD PTR [rbp-0x58]
    3caa:	48 8b 40 08          	mov    rax,QWORD PTR [rax+0x8]
    3cae:	48 89 c7             	mov    rdi,rax
    3cb1:	e8 a0 06 00 00       	call   0x4356
    3cb6:	bf b3 5f 11 00       	mov    edi,0x115fb3
    3cbb:	e8 43 06 00 00       	call   0x4303
    3cc0:	bf ba 5f 11 00       	mov    edi,0x115fba
    3cc5:	e8 39 06 00 00       	call   0x4303
    3cca:	48 8b 45 a8          	mov    rax,QWORD PTR [rbp-0x58]
    3cce:	48 8b 40 10          	mov    rax,QWORD PTR [rax+0x10]
    3cd2:	48 89 c7             	mov    rdi,rax
    3cd5:	e8 7c 06 00 00       	call   0x4356
    3cda:	bf b3 5f 11 00       	mov    edi,0x115fb3
    3cdf:	e8 1f 06 00 00       	call   0x4303
    3ce4:	bf c3 5f 11 00       	mov    edi,0x115fc3
    3ce9:	e8 15 06 00 00       	call   0x4303
    3cee:	48 8b 45 a8          	mov    rax,QWORD PTR [rbp-0x58]
    3cf2:	48 8b 40 18          	mov    rax,QWORD PTR [rax+0x18]
    3cf6:	48 89 c7             	mov    rdi,rax
    3cf9:	e8 58 06 00 00       	call   0x4356
    3cfe:	bf b3 5f 11 00       	mov    edi,0x115fb3
    3d03:	e8 fb 05 00 00       	call   0x4303
    3d08:	bf c9 5f 11 00       	mov    edi,0x115fc9
    3d0d:	e8 f1 05 00 00       	call   0x4303
    3d12:	48 8b 45 a8          	mov    rax,QWORD PTR [rbp-0x58]
    3d16:	48 8b 40 20          	mov    rax,QWORD PTR [rax+0x20]
    3d1a:	48 89 c7             	mov    rdi,rax
    3d1d:	e8 34 06 00 00       	call   0x4356
    3d22:	bf ce 5f 11 00       	mov    edi,0x115fce
    3d27:	e8 d7 05 00 00       	call   0x4303
    3d2c:	48 8b 05 35 3e 00 00 	mov    rax,QWORD PTR [rip+0x3e35]        # 0x7b68
    3d33:	41 b9 56 61 11 00    	mov    r9d,0x116156
    3d39:	49 89 c0             	mov    r8,rax
    3d3c:	8b 0d f2 3d 00 00    	mov    ecx,DWORD PTR [rip+0x3df2]        # 0x7b34
    3d42:	8b 15 e8 3d 00 00    	mov    edx,DWORD PTR [rip+0x3de8]        # 0x7b30
    3d48:	be f4 01 00 00       	mov    esi,0x1f4
    3d4d:	bf 58 02 00 00       	mov    edi,0x258
    3d52:	e8 94 cb ff ff       	call   0x8eb
    3d57:	f4                   	hlt    
    3d58:	eb fd                	jmp    0x3d57
0x0000000000113d5a: mc_handler
    3d5a:	55                   	push   rbp
    3d5b:	48 89 e5             	mov    rbp,rsp
    3d5e:	41 53                	push   r11
    3d60:	41 52                	push   r10
    3d62:	41 51                	push   r9
    3d64:	41 50                	push   r8
    3d66:	57                   	push   rdi
    3d67:	56                   	push   rsi
    3d68:	51                   	push   rcx
    3d69:	52                   	push   rdx
    3d6a:	50                   	push   rax
    3d6b:	48 83 ec 18          	sub    rsp,0x18
    3d6f:	48 8d 45 08          	lea    rax,[rbp+0x8]
    3d73:	48 89 45 a8          	mov    QWORD PTR [rbp-0x58],rax
    3d77:	fc                   	cld    
    3d78:	e8 c1 dc ff ff       	call   0x1a3e
    3d7d:	bf 5a 61 11 00       	mov    edi,0x11615a
    3d82:	e8 7c 05 00 00       	call   0x4303
    3d87:	bf ad 5f 11 00       	mov    edi,0x115fad
    3d8c:	e8 72 05 00 00       	call   0x4303
    3d91:	48 8b 45 a8          	mov    rax,QWORD PTR [rbp-0x58]
    3d95:	48 8b 00             	mov    rax,QWORD PTR [rax]
    3d98:	48 89 c7             	mov    rdi,rax
    3d9b:	e8 b6 05 00 00       	call   0x4356
    3da0:	bf b3 5f 11 00       	mov    edi,0x115fb3
    3da5:	e8 59 05 00 00       	call   0x4303
    3daa:	bf b5 5f 11 00       	mov    edi,0x115fb5
    3daf:	e8 4f 05 00 00       	call   0x4303
    3db4:	48 8b 45 a8          	mov    rax,QWORD PTR [rbp-0x58]
    3db8:	48 8b 40 08          	mov    rax,QWORD PTR [rax+0x8]
    3dbc:	48 89 c7             	mov    rdi,rax
    3dbf:	e8 92 05 00 00       	call   0x4356
    3dc4:	bf b3 5f 11 00       	mov    edi,0x115fb3
    3dc9:	e8 35 05 00 00       	call   0x4303
    3dce:	bf ba 5f 11 00       	mov    edi,0x115fba
    3dd3:	e8 2b 05 00 00       	call   0x4303
    3dd8:	48 8b 45 a8          	mov    rax,QWORD PTR [rbp-0x58]
    3ddc:	48 8b 40 10          	mov    rax,QWORD PTR [rax+0x10]
    3de0:	48 89 c7             	mov    rdi,rax
    3de3:	e8 6e 05 00 00       	call   0x4356
    3de8:	bf b3 5f 11 00       	mov    edi,0x115fb3
    3ded:	e8 11 05 00 00       	call   0x4303
    3df2:	bf c3 5f 11 00       	mov    edi,0x115fc3
    3df7:	e8 07 05 00 00       	call   0x4303
    3dfc:	48 8b 45 a8          	mov    rax,QWORD PTR [rbp-0x58]
    3e00:	48 8b 40 18          	mov    rax,QWORD PTR [rax+0x18]
    3e04:	48 89 c7             	mov    rdi,rax
    3e07:	e8 4a 05 00 00       	call   0x4356
    3e0c:	bf b3 5f 11 00       	mov    edi,0x115fb3
    3e11:	e8 ed 04 00 00       	call   0x4303
    3e16:	bf c9 5f 11 00       	mov    edi,0x115fc9
    3e1b:	e8 e3 04 00 00       	call   0x4303
    3e20:	48 8b 45 a8          	mov    rax,QWORD PTR [rbp-0x58]
    3e24:	48 8b 40 20          	mov    rax,QWORD PTR [rax+0x20]
    3e28:	48 89 c7             	mov    rdi,rax
    3e2b:	e8 26 05 00 00       	call   0x4356
    3e30:	bf ce 5f 11 00       	mov    edi,0x115fce
    3e35:	e8 c9 04 00 00       	call   0x4303
    3e3a:	48 8b 05 27 3d 00 00 	mov    rax,QWORD PTR [rip+0x3d27]        # 0x7b68
    3e41:	41 b9 65 61 11 00    	mov    r9d,0x116165
    3e47:	49 89 c0             	mov    r8,rax
    3e4a:	8b 0d e4 3c 00 00    	mov    ecx,DWORD PTR [rip+0x3ce4]        # 0x7b34
    3e50:	8b 15 da 3c 00 00    	mov    edx,DWORD PTR [rip+0x3cda]        # 0x7b30
    3e56:	be f4 01 00 00       	mov    esi,0x1f4
    3e5b:	bf 58 02 00 00       	mov    edi,0x258
    3e60:	e8 86 ca ff ff       	call   0x8eb
    3e65:	f4                   	hlt    
    3e66:	eb fd                	jmp    0x3e65
0x0000000000113e68: xm_handler
    3e68:	55                   	push   rbp
    3e69:	48 89 e5             	mov    rbp,rsp
    3e6c:	41 53                	push   r11
    3e6e:	41 52                	push   r10
    3e70:	41 51                	push   r9
    3e72:	41 50                	push   r8
    3e74:	57                   	push   rdi
    3e75:	56                   	push   rsi
    3e76:	51                   	push   rcx
    3e77:	52                   	push   rdx
    3e78:	50                   	push   rax
    3e79:	48 83 ec 18          	sub    rsp,0x18
    3e7d:	48 8d 45 08          	lea    rax,[rbp+0x8]
    3e81:	48 89 45 a8          	mov    QWORD PTR [rbp-0x58],rax
    3e85:	fc                   	cld    
    3e86:	e8 b3 db ff ff       	call   0x1a3e
    3e8b:	bf 69 61 11 00       	mov    edi,0x116169
    3e90:	e8 6e 04 00 00       	call   0x4303
    3e95:	bf ad 5f 11 00       	mov    edi,0x115fad
    3e9a:	e8 64 04 00 00       	call   0x4303
    3e9f:	48 8b 45 a8          	mov    rax,QWORD PTR [rbp-0x58]
    3ea3:	48 8b 00             	mov    rax,QWORD PTR [rax]
    3ea6:	48 89 c7             	mov    rdi,rax
    3ea9:	e8 a8 04 00 00       	call   0x4356
    3eae:	bf b3 5f 11 00       	mov    edi,0x115fb3
    3eb3:	e8 4b 04 00 00       	call   0x4303
    3eb8:	bf b5 5f 11 00       	mov    edi,0x115fb5
    3ebd:	e8 41 04 00 00       	call   0x4303
    3ec2:	48 8b 45 a8          	mov    rax,QWORD PTR [rbp-0x58]
    3ec6:	48 8b 40 08          	mov    rax,QWORD PTR [rax+0x8]
    3eca:	48 89 c7             	mov    rdi,rax
    3ecd:	e8 84 04 00 00       	call   0x4356
    3ed2:	bf b3 5f 11 00       	mov    edi,0x115fb3
    3ed7:	e8 27 04 00 00       	call   0x4303
    3edc:	bf ba 5f 11 00       	mov    edi,0x115fba
    3ee1:	e8 1d 04 00 00       	call   0x4303
    3ee6:	48 8b 45 a8          	mov    rax,QWORD PTR [rbp-0x58]
    3eea:	48 8b 40 10          	mov    rax,QWORD PTR [rax+0x10]
    3eee:	48 89 c7             	mov    rdi,rax
    3ef1:	e8 60 04 00 00       	call   0x4356
    3ef6:	bf b3 5f 11 00       	mov    edi,0x115fb3
    3efb:	e8 03 04 00 00       	call   0x4303
    3f00:	bf c3 5f 11 00       	mov    edi,0x115fc3
    3f05:	e8 f9 03 00 00       	call   0x4303
    3f0a:	48 8b 45 a8          	mov    rax,QWORD PTR [rbp-0x58]
    3f0e:	48 8b 40 18          	mov    rax,QWORD PTR [rax+0x18]
    3f12:	48 89 c7             	mov    rdi,rax
    3f15:	e8 3c 04 00 00       	call   0x4356
    3f1a:	bf b3 5f 11 00       	mov    edi,0x115fb3
    3f1f:	e8 df 03 00 00       	call   0x4303
    3f24:	bf c9 5f 11 00       	mov    edi,0x115fc9
    3f29:	e8 d5 03 00 00       	call   0x4303
    3f2e:	48 8b 45 a8          	mov    rax,QWORD PTR [rbp-0x58]
    3f32:	48 8b 40 20          	mov    rax,QWORD PTR [rax+0x20]
    3f36:	48 89 c7             	mov    rdi,rax
    3f39:	e8 18 04 00 00       	call   0x4356
    3f3e:	bf ce 5f 11 00       	mov    edi,0x115fce
    3f43:	e8 bb 03 00 00       	call   0x4303
    3f48:	48 8b 05 19 3c 00 00 	mov    rax,QWORD PTR [rip+0x3c19]        # 0x7b68
    3f4f:	41 b9 74 61 11 00    	mov    r9d,0x116174
    3f55:	49 89 c0             	mov    r8,rax
    3f58:	8b 0d d6 3b 00 00    	mov    ecx,DWORD PTR [rip+0x3bd6]        # 0x7b34
    3f5e:	8b 15 cc 3b 00 00    	mov    edx,DWORD PTR [rip+0x3bcc]        # 0x7b30
    3f64:	be f4 01 00 00       	mov    esi,0x1f4
    3f69:	bf 58 02 00 00       	mov    edi,0x258
    3f6e:	e8 78 c9 ff ff       	call   0x8eb
    3f73:	f4                   	hlt    
    3f74:	eb fd                	jmp    0x3f73
0x0000000000113f76: timer_handler
    3f76:	55                   	push   rbp
    3f77:	48 89 e5             	mov    rbp,rsp
    3f7a:	41 53                	push   r11
    3f7c:	41 52                	push   r10
    3f7e:	41 51                	push   r9
    3f80:	41 50                	push   r8
    3f82:	57                   	push   rdi
    3f83:	56                   	push   rsi
    3f84:	51                   	push   rcx
    3f85:	52                   	push   rdx
    3f86:	50                   	push   rax
    3f87:	48 83 ec 18          	sub    rsp,0x18
    3f8b:	48 8d 45 08          	lea    rax,[rbp+0x8]
    3f8f:	48 89 45 a8          	mov    QWORD PTR [rbp-0x58],rax
    3f93:	48 8b 05 06 3c 00 00 	mov    rax,QWORD PTR [rip+0x3c06]        # 0x7ba0
    3f9a:	48 83 c0 01          	add    rax,0x1
    3f9e:	48 89 05 fb 3b 00 00 	mov    QWORD PTR [rip+0x3bfb],rax        # 0x7ba0
    3fa5:	be 20 00 00 00       	mov    esi,0x20
    3faa:	bf 20 00 00 00       	mov    edi,0x20
    3faf:	fc                   	cld    
    3fb0:	e8 97 da ff ff       	call   0x1a4c
    3fb5:	be 20 00 00 00       	mov    esi,0x20
    3fba:	bf a0 00 00 00       	mov    edi,0xa0
    3fbf:	e8 88 da ff ff       	call   0x1a4c
    3fc4:	48 8b 15 3d 42 03 00 	mov    rdx,QWORD PTR [rip+0x3423d]        # 0x38208
    3fcb:	48 8b 05 2e 42 03 00 	mov    rax,QWORD PTR [rip+0x3422e]        # 0x38200
    3fd2:	48 01 c2             	add    rdx,rax
    3fd5:	48 8b 05 c4 3b 00 00 	mov    rax,QWORD PTR [rip+0x3bc4]        # 0x7ba0
    3fdc:	48 39 c2             	cmp    rdx,rax
    3fdf:	73 4d                	jae    0x402e
    3fe1:	48 8b 05 b8 3b 00 00 	mov    rax,QWORD PTR [rip+0x3bb8]        # 0x7ba0
    3fe8:	48 83 f8 64          	cmp    rax,0x64
    3fec:	76 40                	jbe    0x402e
    3fee:	48 8b 05 ab 3b 00 00 	mov    rax,QWORD PTR [rip+0x3bab]        # 0x7ba0
    3ff5:	48 89 05 0c 42 03 00 	mov    QWORD PTR [rip+0x3420c],rax        # 0x38208
    3ffc:	bf 78 61 11 00       	mov    edi,0x116178
    4001:	e8 fd 02 00 00       	call   0x4303
    4006:	48 8b 45 a8          	mov    rax,QWORD PTR [rbp-0x58]
    400a:	48 8b 00             	mov    rax,QWORD PTR [rax]
    400d:	48 89 c7             	mov    rdi,rax
    4010:	e8 41 03 00 00       	call   0x4356
    4015:	bf 90 61 11 00       	mov    edi,0x116190
    401a:	e8 e4 02 00 00       	call   0x4303
    401f:	48 8b 45 a8          	mov    rax,QWORD PTR [rbp-0x58]
    4023:	48 8b 00             	mov    rax,QWORD PTR [rax]
    4026:	48 89 c7             	mov    rdi,rax
    4029:	e8 48 1c 00 00       	call   0x5c76
    402e:	90                   	nop
    402f:	48 83 c4 18          	add    rsp,0x18
    4033:	58                   	pop    rax
    4034:	5a                   	pop    rdx
    4035:	59                   	pop    rcx
    4036:	5e                   	pop    rsi
    4037:	5f                   	pop    rdi
    4038:	41 58                	pop    r8
    403a:	41 59                	pop    r9
    403c:	41 5a                	pop    r10
    403e:	41 5b                	pop    r11
    4040:	5d                   	pop    rbp
    4041:	48 cf                	iretq  
0x0000000000114043: keyboard_handler
    4043:	55                   	push   rbp
    4044:	48 89 e5             	mov    rbp,rsp
    4047:	41 53                	push   r11
    4049:	41 52                	push   r10
    404b:	41 51                	push   r9
    404d:	41 50                	push   r8
    404f:	57                   	push   rdi
    4050:	56                   	push   rsi
    4051:	51                   	push   rcx
    4052:	52                   	push   rdx
    4053:	50                   	push   rax
    4054:	48 83 ec 18          	sub    rsp,0x18
    4058:	48 8d 45 08          	lea    rax,[rbp+0x8]
    405c:	48 89 45 a8          	mov    QWORD PTR [rbp-0x58],rax
    4060:	bf 60 00 00 00       	mov    edi,0x60
    4065:	fc                   	cld    
    4066:	e8 d7 d9 ff ff       	call   0x1a42
    406b:	0f b6 c0             	movzx  eax,al
    406e:	48 89 c7             	mov    rdi,rax
    4071:	e8 e0 02 00 00       	call   0x4356
    4076:	bf 93 61 11 00       	mov    edi,0x116193
    407b:	e8 83 02 00 00       	call   0x4303
    4080:	be 20 00 00 00       	mov    esi,0x20
    4085:	bf 20 00 00 00       	mov    edi,0x20
    408a:	e8 bd d9 ff ff       	call   0x1a4c
    408f:	be 20 00 00 00       	mov    esi,0x20
    4094:	bf a0 00 00 00       	mov    edi,0xa0
    4099:	e8 ae d9 ff ff       	call   0x1a4c
    409e:	90                   	nop
    409f:	48 83 c4 18          	add    rsp,0x18
    40a3:	58                   	pop    rax
    40a4:	5a                   	pop    rdx
    40a5:	59                   	pop    rcx
    40a6:	5e                   	pop    rsi
    40a7:	5f                   	pop    rdi
    40a8:	41 58                	pop    r8
    40aa:	41 59                	pop    r9
    40ac:	41 5a                	pop    r10
    40ae:	41 5b                	pop    r11
    40b0:	5d                   	pop    rbp
    40b1:	48 cf                	iretq  
0x00000000001140b3: com1_handler
    40b3:	55                   	push   rbp
    40b4:	48 89 e5             	mov    rbp,rsp
    40b7:	41 53                	push   r11
    40b9:	41 52                	push   r10
    40bb:	41 51                	push   r9
    40bd:	41 50                	push   r8
    40bf:	57                   	push   rdi
    40c0:	56                   	push   rsi
    40c1:	51                   	push   rcx
    40c2:	52                   	push   rdx
    40c3:	50                   	push   rax
    40c4:	48 83 ec 18          	sub    rsp,0x18
    40c8:	48 8d 45 08          	lea    rax,[rbp+0x8]
    40cc:	48 89 45 a8          	mov    QWORD PTR [rbp-0x58],rax
    40d0:	fc                   	cld    
    40d1:	e8 68 d9 ff ff       	call   0x1a3e
    40d6:	bf f8 03 00 00       	mov    edi,0x3f8
    40db:	e8 62 d9 ff ff       	call   0x1a42
    40e0:	88 05 9a 3f 00 00    	mov    BYTE PTR [rip+0x3f9a],al        # 0x8080
    40e6:	bf a7 61 11 00       	mov    edi,0x1161a7
    40eb:	e8 13 02 00 00       	call   0x4303
    40f0:	be 20 00 00 00       	mov    esi,0x20
    40f5:	bf 20 00 00 00       	mov    edi,0x20
    40fa:	e8 4d d9 ff ff       	call   0x1a4c
    40ff:	be 20 00 00 00       	mov    esi,0x20
    4104:	bf a0 00 00 00       	mov    edi,0xa0
    4109:	e8 3e d9 ff ff       	call   0x1a4c
    410e:	e8 2d d9 ff ff       	call   0x1a40
    4113:	90                   	nop
    4114:	48 83 c4 18          	add    rsp,0x18
    4118:	58                   	pop    rax
    4119:	5a                   	pop    rdx
    411a:	59                   	pop    rcx
    411b:	5e                   	pop    rsi
    411c:	5f                   	pop    rdi
    411d:	41 58                	pop    r8
    411f:	41 59                	pop    r9
    4121:	41 5a                	pop    r10
    4123:	41 5b                	pop    r11
    4125:	5d                   	pop    rbp
    4126:	48 cf                	iretq  
0x0000000000114128: mouse_handler
    4128:	55                   	push   rbp
    4129:	48 89 e5             	mov    rbp,rsp
    412c:	41 53                	push   r11
    412e:	41 52                	push   r10
    4130:	41 51                	push   r9
    4132:	41 50                	push   r8
    4134:	57                   	push   rdi
    4135:	56                   	push   rsi
    4136:	51                   	push   rcx
    4137:	52                   	push   rdx
    4138:	50                   	push   rax
    4139:	48 83 ec 18          	sub    rsp,0x18
    413d:	48 8d 45 08          	lea    rax,[rbp+0x8]
    4141:	48 89 45 a8          	mov    QWORD PTR [rbp-0x58],rax
    4145:	bf b7 61 11 00       	mov    edi,0x1161b7
    414a:	fc                   	cld    
    414b:	e8 b3 01 00 00       	call   0x4303
    4150:	be 20 00 00 00       	mov    esi,0x20
    4155:	bf 20 00 00 00       	mov    edi,0x20
    415a:	e8 ed d8 ff ff       	call   0x1a4c
    415f:	be 20 00 00 00       	mov    esi,0x20
    4164:	bf a0 00 00 00       	mov    edi,0xa0
    4169:	e8 de d8 ff ff       	call   0x1a4c
    416e:	90                   	nop
    416f:	48 83 c4 18          	add    rsp,0x18
    4173:	58                   	pop    rax
    4174:	5a                   	pop    rdx
    4175:	59                   	pop    rcx
    4176:	5e                   	pop    rsi
    4177:	5f                   	pop    rdi
    4178:	41 58                	pop    r8
    417a:	41 59                	pop    r9
    417c:	41 5a                	pop    r10
    417e:	41 5b                	pop    r11
    4180:	5d                   	pop    rbp
    4181:	48 cf                	iretq  
0x0000000000114183: empty_handler
    4183:	55                   	push   rbp
    4184:	48 89 e5             	mov    rbp,rsp
    4187:	41 53                	push   r11
    4189:	41 52                	push   r10
    418b:	41 51                	push   r9
    418d:	41 50                	push   r8
    418f:	57                   	push   rdi
    4190:	56                   	push   rsi
    4191:	51                   	push   rcx
    4192:	52                   	push   rdx
    4193:	50                   	push   rax
    4194:	48 83 ec 18          	sub    rsp,0x18
    4198:	48 8d 45 08          	lea    rax,[rbp+0x8]
    419c:	48 89 45 a8          	mov    QWORD PTR [rbp-0x58],rax
    41a0:	bf c8 61 11 00       	mov    edi,0x1161c8
    41a5:	fc                   	cld    
    41a6:	e8 58 01 00 00       	call   0x4303
    41ab:	f4                   	hlt    
    41ac:	eb fd                	jmp    0x41ab
0x00000000001141ae: read_kbd_signal
    41ae:	e4 60                	in     al,0x60
    41b0:	c3                   	ret    
0x00000000001141b1: read_kbd_status
    41b1:	e4 64                	in     al,0x64
    41b3:	c3                   	ret    
0x00000000001141b4: init_serial
    41b4:	55                   	push   rbp
    41b5:	48 89 e5             	mov    rbp,rsp
    41b8:	e8 81 d8 ff ff       	call   0x1a3e
    41bd:	be 00 00 00 00       	mov    esi,0x0
    41c2:	bf f9 03 00 00       	mov    edi,0x3f9
    41c7:	e8 80 d8 ff ff       	call   0x1a4c
    41cc:	be 80 00 00 00       	mov    esi,0x80
    41d1:	bf fb 03 00 00       	mov    edi,0x3fb
    41d6:	e8 71 d8 ff ff       	call   0x1a4c
    41db:	be 01 00 00 00       	mov    esi,0x1
    41e0:	bf f8 03 00 00       	mov    edi,0x3f8
    41e5:	e8 62 d8 ff ff       	call   0x1a4c
    41ea:	be 00 00 00 00       	mov    esi,0x0
    41ef:	bf f9 03 00 00       	mov    edi,0x3f9
    41f4:	e8 53 d8 ff ff       	call   0x1a4c
    41f9:	be 03 00 00 00       	mov    esi,0x3
    41fe:	bf fb 03 00 00       	mov    edi,0x3fb
    4203:	e8 44 d8 ff ff       	call   0x1a4c
    4208:	be c7 00 00 00       	mov    esi,0xc7
    420d:	bf fa 03 00 00       	mov    edi,0x3fa
    4212:	e8 35 d8 ff ff       	call   0x1a4c
    4217:	be 0b 00 00 00       	mov    esi,0xb
    421c:	bf fc 03 00 00       	mov    edi,0x3fc
    4221:	e8 26 d8 ff ff       	call   0x1a4c
    4226:	be 0d 00 00 00       	mov    esi,0xd
    422b:	bf f9 03 00 00       	mov    edi,0x3f9
    4230:	e8 17 d8 ff ff       	call   0x1a4c
    4235:	e8 06 d8 ff ff       	call   0x1a40
    423a:	90                   	nop
    423b:	5d                   	pop    rbp
    423c:	c3                   	ret    
0x000000000011423d: serial_received
    423d:	55                   	push   rbp
    423e:	48 89 e5             	mov    rbp,rsp
    4241:	bf fd 03 00 00       	mov    edi,0x3fd
    4246:	e8 f7 d7 ff ff       	call   0x1a42
    424b:	0f b6 c0             	movzx  eax,al
    424e:	83 e0 01             	and    eax,0x1
    4251:	5d                   	pop    rbp
    4252:	c3                   	ret    
0x0000000000114253: wait_serial_input
    4253:	55                   	push   rbp
    4254:	48 89 e5             	mov    rbp,rsp
    4257:	eb 01                	jmp    0x425a
    4259:	f4                   	hlt    
    425a:	0f b6 05 1f 3e 00 00 	movzx  eax,BYTE PTR [rip+0x3e1f]        # 0x8080
    4261:	84 c0                	test   al,al
    4263:	74 f4                	je     0x4259
    4265:	bf d8 61 11 00       	mov    edi,0x1161d8
    426a:	e8 94 00 00 00       	call   0x4303
    426f:	90                   	nop
    4270:	5d                   	pop    rbp
    4271:	c3                   	ret    
0x0000000000114272: receive_serial_input
    4272:	55                   	push   rbp
    4273:	48 89 e5             	mov    rbp,rsp
    4276:	48 83 ec 10          	sub    rsp,0x10
    427a:	eb 01                	jmp    0x427d
    427c:	f4                   	hlt    
    427d:	0f b6 05 fc 3d 00 00 	movzx  eax,BYTE PTR [rip+0x3dfc]        # 0x8080
    4284:	84 c0                	test   al,al
    4286:	74 f4                	je     0x427c
    4288:	bf f8 61 11 00       	mov    edi,0x1161f8
    428d:	e8 71 00 00 00       	call   0x4303
    4292:	0f b6 05 e7 3d 00 00 	movzx  eax,BYTE PTR [rip+0x3de7]        # 0x8080
    4299:	88 45 ff             	mov    BYTE PTR [rbp-0x1],al
    429c:	bf 20 62 11 00       	mov    edi,0x116220
    42a1:	e8 5d 00 00 00       	call   0x4303
    42a6:	0f b6 45 ff          	movzx  eax,BYTE PTR [rbp-0x1]
    42aa:	c9                   	leave  
    42ab:	c3                   	ret    
0x00000000001142ac: read_serial
    42ac:	55                   	push   rbp
    42ad:	48 89 e5             	mov    rbp,rsp
    42b0:	90                   	nop
    42b1:	e8 87 ff ff ff       	call   0x423d
    42b6:	85 c0                	test   eax,eax
    42b8:	74 f7                	je     0x42b1
    42ba:	bf f8 03 00 00       	mov    edi,0x3f8
    42bf:	e8 7e d7 ff ff       	call   0x1a42
    42c4:	5d                   	pop    rbp
    42c5:	c3                   	ret    
0x00000000001142c6: serial_thr_empty
    42c6:	55                   	push   rbp
    42c7:	48 89 e5             	mov    rbp,rsp
    42ca:	bf fd 03 00 00       	mov    edi,0x3fd
    42cf:	e8 6e d7 ff ff       	call   0x1a42
    42d4:	83 e0 20             	and    eax,0x20
    42d7:	5d                   	pop    rbp
    42d8:	c3                   	ret    
0x00000000001142d9: write_serial
    42d9:	55                   	push   rbp
    42da:	48 89 e5             	mov    rbp,rsp
    42dd:	48 83 ec 10          	sub    rsp,0x10
    42e1:	89 f8                	mov    eax,edi
    42e3:	88 45 fc             	mov    BYTE PTR [rbp-0x4],al
    42e6:	90                   	nop
    42e7:	e8 da ff ff ff       	call   0x42c6
    42ec:	84 c0                	test   al,al
    42ee:	74 f7                	je     0x42e7
    42f0:	0f b6 45 fc          	movzx  eax,BYTE PTR [rbp-0x4]
    42f4:	89 c6                	mov    esi,eax
    42f6:	bf f8 03 00 00       	mov    edi,0x3f8
    42fb:	e8 4c d7 ff ff       	call   0x1a4c
    4300:	90                   	nop
    4301:	c9                   	leave  
    4302:	c3                   	ret    
0x0000000000114303: puts_serial
    4303:	55                   	push   rbp
    4304:	48 89 e5             	mov    rbp,rsp
    4307:	48 83 ec 20          	sub    rsp,0x20
    430b:	48 89 7d e8          	mov    QWORD PTR [rbp-0x18],rdi
    430f:	c6 45 ff 00          	mov    BYTE PTR [rbp-0x1],0x0
    4313:	e8 26 d7 ff ff       	call   0x1a3e
    4318:	eb 22                	jmp    0x433c
    431a:	0f b6 55 ff          	movzx  edx,BYTE PTR [rbp-0x1]
    431e:	48 8b 45 e8          	mov    rax,QWORD PTR [rbp-0x18]
    4322:	48 01 d0             	add    rax,rdx
    4325:	0f b6 00             	movzx  eax,BYTE PTR [rax]
    4328:	0f b6 c0             	movzx  eax,al
    432b:	89 c7                	mov    edi,eax
    432d:	e8 a7 ff ff ff       	call   0x42d9
    4332:	0f b6 45 ff          	movzx  eax,BYTE PTR [rbp-0x1]
    4336:	83 c0 01             	add    eax,0x1
    4339:	88 45 ff             	mov    BYTE PTR [rbp-0x1],al
    433c:	0f b6 55 ff          	movzx  edx,BYTE PTR [rbp-0x1]
    4340:	48 8b 45 e8          	mov    rax,QWORD PTR [rbp-0x18]
    4344:	48 01 d0             	add    rax,rdx
    4347:	0f b6 00             	movzx  eax,BYTE PTR [rax]
    434a:	84 c0                	test   al,al
    434c:	75 cc                	jne    0x431a
    434e:	e8 ed d6 ff ff       	call   0x1a40
    4353:	90                   	nop
    4354:	c9                   	leave  
    4355:	c3                   	ret    
0x0000000000114356: putnum_serial
    4356:	55                   	push   rbp
    4357:	48 89 e5             	mov    rbp,rsp
    435a:	53                   	push   rbx
    435b:	48 81 ec b8 00 00 00 	sub    rsp,0xb8
    4362:	48 89 bd 48 ff ff ff 	mov    QWORD PTR [rbp-0xb8],rdi
    4369:	48 c7 45 e8 00 00 00 	mov    QWORD PTR [rbp-0x18],0x0
    4370:	00 
    4371:	e9 93 00 00 00       	jmp    0x4409
    4376:	48 8b 45 e8          	mov    rax,QWORD PTR [rbp-0x18]
    437a:	48 c1 e0 02          	shl    rax,0x2
    437e:	48 89 c6             	mov    rsi,rax
    4381:	bf 02 00 00 00       	mov    edi,0x2
    4386:	e8 03 ca ff ff       	call   0xd8e
    438b:	48 89 c3             	mov    rbx,rax
    438e:	48 8b 45 e8          	mov    rax,QWORD PTR [rbp-0x18]
    4392:	48 c1 e0 02          	shl    rax,0x2
    4396:	48 83 c0 01          	add    rax,0x1
    439a:	48 89 c6             	mov    rsi,rax
    439d:	bf 02 00 00 00       	mov    edi,0x2
    43a2:	e8 e7 c9 ff ff       	call   0xd8e
    43a7:	48 01 c3             	add    rbx,rax
    43aa:	48 8b 45 e8          	mov    rax,QWORD PTR [rbp-0x18]
    43ae:	48 c1 e0 02          	shl    rax,0x2
    43b2:	48 83 c0 02          	add    rax,0x2
    43b6:	48 89 c6             	mov    rsi,rax
    43b9:	bf 02 00 00 00       	mov    edi,0x2
    43be:	e8 cb c9 ff ff       	call   0xd8e
    43c3:	48 01 c3             	add    rbx,rax
    43c6:	48 8b 45 e8          	mov    rax,QWORD PTR [rbp-0x18]
    43ca:	48 c1 e0 02          	shl    rax,0x2
    43ce:	48 83 c0 03          	add    rax,0x3
    43d2:	48 89 c6             	mov    rsi,rax
    43d5:	bf 02 00 00 00       	mov    edi,0x2
    43da:	e8 af c9 ff ff       	call   0xd8e
    43df:	48 01 d8             	add    rax,rbx
    43e2:	48 23 85 48 ff ff ff 	and    rax,QWORD PTR [rbp-0xb8]
    43e9:	48 89 c2             	mov    rdx,rax
    43ec:	48 8b 45 e8          	mov    rax,QWORD PTR [rbp-0x18]
    43f0:	c1 e0 02             	shl    eax,0x2
    43f3:	89 c1                	mov    ecx,eax
    43f5:	48 d3 ea             	shr    rdx,cl
    43f8:	48 8b 45 e8          	mov    rax,QWORD PTR [rbp-0x18]
    43fc:	48 89 94 c5 68 ff ff 	mov    QWORD PTR [rbp+rax*8-0x98],rdx
    4403:	ff 
    4404:	48 83 45 e8 01       	add    QWORD PTR [rbp-0x18],0x1
    4409:	48 83 7d e8 0f       	cmp    QWORD PTR [rbp-0x18],0xf
    440e:	0f 86 62 ff ff ff    	jbe    0x4376
    4414:	c6 85 55 ff ff ff 30 	mov    BYTE PTR [rbp-0xab],0x30
    441b:	c6 85 56 ff ff ff 78 	mov    BYTE PTR [rbp-0xaa],0x78
    4422:	c6 85 67 ff ff ff 00 	mov    BYTE PTR [rbp-0x99],0x0
    4429:	48 c7 45 e8 00 00 00 	mov    QWORD PTR [rbp-0x18],0x0
    4430:	00 
    4431:	e9 34 02 00 00       	jmp    0x466a
    4436:	48 8b 45 e8          	mov    rax,QWORD PTR [rbp-0x18]
    443a:	48 8b 84 c5 68 ff ff 	mov    rax,QWORD PTR [rbp+rax*8-0x98]
    4441:	ff 
    4442:	48 85 c0             	test   rax,rax
    4445:	75 11                	jne    0x4458
    4447:	b8 11 00 00 00       	mov    eax,0x11
    444c:	48 2b 45 e8          	sub    rax,QWORD PTR [rbp-0x18]
    4450:	c6 84 05 55 ff ff ff 	mov    BYTE PTR [rbp+rax*1-0xab],0x30
    4457:	30 
    4458:	48 8b 45 e8          	mov    rax,QWORD PTR [rbp-0x18]
    445c:	48 8b 84 c5 68 ff ff 	mov    rax,QWORD PTR [rbp+rax*8-0x98]
    4463:	ff 
    4464:	48 83 f8 01          	cmp    rax,0x1
    4468:	75 11                	jne    0x447b
    446a:	b8 11 00 00 00       	mov    eax,0x11
    446f:	48 2b 45 e8          	sub    rax,QWORD PTR [rbp-0x18]
    4473:	c6 84 05 55 ff ff ff 	mov    BYTE PTR [rbp+rax*1-0xab],0x31
    447a:	31 
    447b:	48 8b 45 e8          	mov    rax,QWORD PTR [rbp-0x18]
    447f:	48 8b 84 c5 68 ff ff 	mov    rax,QWORD PTR [rbp+rax*8-0x98]
    4486:	ff 
    4487:	48 83 f8 02          	cmp    rax,0x2
    448b:	75 11                	jne    0x449e
    448d:	b8 11 00 00 00       	mov    eax,0x11
    4492:	48 2b 45 e8          	sub    rax,QWORD PTR [rbp-0x18]
    4496:	c6 84 05 55 ff ff ff 	mov    BYTE PTR [rbp+rax*1-0xab],0x32
    449d:	32 
    449e:	48 8b 45 e8          	mov    rax,QWORD PTR [rbp-0x18]
    44a2:	48 8b 84 c5 68 ff ff 	mov    rax,QWORD PTR [rbp+rax*8-0x98]
    44a9:	ff 
    44aa:	48 83 f8 03          	cmp    rax,0x3
    44ae:	75 11                	jne    0x44c1
    44b0:	b8 11 00 00 00       	mov    eax,0x11
    44b5:	48 2b 45 e8          	sub    rax,QWORD PTR [rbp-0x18]
    44b9:	c6 84 05 55 ff ff ff 	mov    BYTE PTR [rbp+rax*1-0xab],0x33
    44c0:	33 
    44c1:	48 8b 45 e8          	mov    rax,QWORD PTR [rbp-0x18]
    44c5:	48 8b 84 c5 68 ff ff 	mov    rax,QWORD PTR [rbp+rax*8-0x98]
    44cc:	ff 
    44cd:	48 83 f8 04          	cmp    rax,0x4
    44d1:	75 11                	jne    0x44e4
    44d3:	b8 11 00 00 00       	mov    eax,0x11
    44d8:	48 2b 45 e8          	sub    rax,QWORD PTR [rbp-0x18]
    44dc:	c6 84 05 55 ff ff ff 	mov    BYTE PTR [rbp+rax*1-0xab],0x34
    44e3:	34 
    44e4:	48 8b 45 e8          	mov    rax,QWORD PTR [rbp-0x18]
    44e8:	48 8b 84 c5 68 ff ff 	mov    rax,QWORD PTR [rbp+rax*8-0x98]
    44ef:	ff 
    44f0:	48 83 f8 05          	cmp    rax,0x5
    44f4:	75 11                	jne    0x4507
    44f6:	b8 11 00 00 00       	mov    eax,0x11
    44fb:	48 2b 45 e8          	sub    rax,QWORD PTR [rbp-0x18]
    44ff:	c6 84 05 55 ff ff ff 	mov    BYTE PTR [rbp+rax*1-0xab],0x35
    4506:	35 
    4507:	48 8b 45 e8          	mov    rax,QWORD PTR [rbp-0x18]
    450b:	48 8b 84 c5 68 ff ff 	mov    rax,QWORD PTR [rbp+rax*8-0x98]
    4512:	ff 
    4513:	48 83 f8 06          	cmp    rax,0x6
    4517:	75 11                	jne    0x452a
    4519:	b8 11 00 00 00       	mov    eax,0x11
    451e:	48 2b 45 e8          	sub    rax,QWORD PTR [rbp-0x18]
    4522:	c6 84 05 55 ff ff ff 	mov    BYTE PTR [rbp+rax*1-0xab],0x36
    4529:	36 
    452a:	48 8b 45 e8          	mov    rax,QWORD PTR [rbp-0x18]
    452e:	48 8b 84 c5 68 ff ff 	mov    rax,QWORD PTR [rbp+rax*8-0x98]
    4535:	ff 
    4536:	48 83 f8 07          	cmp    rax,0x7
    453a:	75 11                	jne    0x454d
    453c:	b8 11 00 00 00       	mov    eax,0x11
    4541:	48 2b 45 e8          	sub    rax,QWORD PTR [rbp-0x18]
    4545:	c6 84 05 55 ff ff ff 	mov    BYTE PTR [rbp+rax*1-0xab],0x37
    454c:	37 
    454d:	48 8b 45 e8          	mov    rax,QWORD PTR [rbp-0x18]
    4551:	48 8b 84 c5 68 ff ff 	mov    rax,QWORD PTR [rbp+rax*8-0x98]
    4558:	ff 
    4559:	48 83 f8 08          	cmp    rax,0x8
    455d:	75 11                	jne    0x4570
    455f:	b8 11 00 00 00       	mov    eax,0x11
    4564:	48 2b 45 e8          	sub    rax,QWORD PTR [rbp-0x18]
    4568:	c6 84 05 55 ff ff ff 	mov    BYTE PTR [rbp+rax*1-0xab],0x38
    456f:	38 
    4570:	48 8b 45 e8          	mov    rax,QWORD PTR [rbp-0x18]
    4574:	48 8b 84 c5 68 ff ff 	mov    rax,QWORD PTR [rbp+rax*8-0x98]
    457b:	ff 
    457c:	48 83 f8 09          	cmp    rax,0x9
    4580:	75 11                	jne    0x4593
    4582:	b8 11 00 00 00       	mov    eax,0x11
    4587:	48 2b 45 e8          	sub    rax,QWORD PTR [rbp-0x18]
    458b:	c6 84 05 55 ff ff ff 	mov    BYTE PTR [rbp+rax*1-0xab],0x39
    4592:	39 
    4593:	48 8b 45 e8          	mov    rax,QWORD PTR [rbp-0x18]
    4597:	48 8b 84 c5 68 ff ff 	mov    rax,QWORD PTR [rbp+rax*8-0x98]
    459e:	ff 
    459f:	48 83 f8 0a          	cmp    rax,0xa
    45a3:	75 11                	jne    0x45b6
    45a5:	b8 11 00 00 00       	mov    eax,0x11
    45aa:	48 2b 45 e8          	sub    rax,QWORD PTR [rbp-0x18]
    45ae:	c6 84 05 55 ff ff ff 	mov    BYTE PTR [rbp+rax*1-0xab],0x61
    45b5:	61 
    45b6:	48 8b 45 e8          	mov    rax,QWORD PTR [rbp-0x18]
    45ba:	48 8b 84 c5 68 ff ff 	mov    rax,QWORD PTR [rbp+rax*8-0x98]
    45c1:	ff 
    45c2:	48 83 f8 0b          	cmp    rax,0xb
    45c6:	75 11                	jne    0x45d9
    45c8:	b8 11 00 00 00       	mov    eax,0x11
    45cd:	48 2b 45 e8          	sub    rax,QWORD PTR [rbp-0x18]
    45d1:	c6 84 05 55 ff ff ff 	mov    BYTE PTR [rbp+rax*1-0xab],0x62
    45d8:	62 
    45d9:	48 8b 45 e8          	mov    rax,QWORD PTR [rbp-0x18]
    45dd:	48 8b 84 c5 68 ff ff 	mov    rax,QWORD PTR [rbp+rax*8-0x98]
    45e4:	ff 
    45e5:	48 83 f8 0c          	cmp    rax,0xc
    45e9:	75 11                	jne    0x45fc
    45eb:	b8 11 00 00 00       	mov    eax,0x11
    45f0:	48 2b 45 e8          	sub    rax,QWORD PTR [rbp-0x18]
    45f4:	c6 84 05 55 ff ff ff 	mov    BYTE PTR [rbp+rax*1-0xab],0x63
    45fb:	63 
    45fc:	48 8b 45 e8          	mov    rax,QWORD PTR [rbp-0x18]
    4600:	48 8b 84 c5 68 ff ff 	mov    rax,QWORD PTR [rbp+rax*8-0x98]
    4607:	ff 
    4608:	48 83 f8 0d          	cmp    rax,0xd
    460c:	75 11                	jne    0x461f
    460e:	b8 11 00 00 00       	mov    eax,0x11
    4613:	48 2b 45 e8          	sub    rax,QWORD PTR [rbp-0x18]
    4617:	c6 84 05 55 ff ff ff 	mov    BYTE PTR [rbp+rax*1-0xab],0x64
    461e:	64 
    461f:	48 8b 45 e8          	mov    rax,QWORD PTR [rbp-0x18]
    4623:	48 8b 84 c5 68 ff ff 	mov    rax,QWORD PTR [rbp+rax*8-0x98]
    462a:	ff 
    462b:	48 83 f8 0e          	cmp    rax,0xe
    462f:	75 11                	jne    0x4642
    4631:	b8 11 00 00 00       	mov    eax,0x11
    4636:	48 2b 45 e8          	sub    rax,QWORD PTR [rbp-0x18]
    463a:	c6 84 05 55 ff ff ff 	mov    BYTE PTR [rbp+rax*1-0xab],0x65
    4641:	65 
    4642:	48 8b 45 e8          	mov    rax,QWORD PTR [rbp-0x18]
    4646:	48 8b 84 c5 68 ff ff 	mov    rax,QWORD PTR [rbp+rax*8-0x98]
    464d:	ff 
    464e:	48 83 f8 0f          	cmp    rax,0xf
    4652:	75 11                	jne    0x4665
    4654:	b8 11 00 00 00       	mov    eax,0x11
    4659:	48 2b 45 e8          	sub    rax,QWORD PTR [rbp-0x18]
    465d:	c6 84 05 55 ff ff ff 	mov    BYTE PTR [rbp+rax*1-0xab],0x66
    4664:	66 
    4665:	48 83 45 e8 01       	add    QWORD PTR [rbp-0x18],0x1
    466a:	48 83 7d e8 0f       	cmp    QWORD PTR [rbp-0x18],0xf
    466f:	0f 86 c1 fd ff ff    	jbe    0x4436
    4675:	48 8d 85 55 ff ff ff 	lea    rax,[rbp-0xab]
    467c:	48 89 c7             	mov    rdi,rax
    467f:	e8 7f fc ff ff       	call   0x4303
    4684:	90                   	nop
    4685:	48 81 c4 b8 00 00 00 	add    rsp,0xb8
    468c:	5b                   	pop    rbx
    468d:	5d                   	pop    rbp
    468e:	c3                   	ret    
0x000000000011468f: ps2_received
    468f:	55                   	push   rbp
    4690:	48 89 e5             	mov    rbp,rsp
    4693:	90                   	nop
    4694:	e8 18 fb ff ff       	call   0x41b1
    4699:	0f b6 c0             	movzx  eax,al
    469c:	83 e0 01             	and    eax,0x1
    469f:	85 c0                	test   eax,eax
    46a1:	74 f1                	je     0x4694
    46a3:	e8 06 fb ff ff       	call   0x41ae
    46a8:	5d                   	pop    rbp
    46a9:	c3                   	ret    
0x00000000001146aa: read_ps2
    46aa:	55                   	push   rbp
    46ab:	48 89 e5             	mov    rbp,rsp
    46ae:	48 83 ec 10          	sub    rsp,0x10
    46b2:	e8 d8 ff ff ff       	call   0x468f
    46b7:	88 45 ff             	mov    BYTE PTR [rbp-0x1],al
    46ba:	0f b6 45 ff          	movzx  eax,BYTE PTR [rbp-0x1]
    46be:	84 c0                	test   al,al
    46c0:	78 f0                	js     0x46b2
    46c2:	0f b6 45 ff          	movzx  eax,BYTE PTR [rbp-0x1]
    46c6:	c9                   	leave  
    46c7:	c3                   	ret    
0x00000000001146c8: map_scan_to_ascii_set1
    46c8:	55                   	push   rbp
    46c9:	48 89 e5             	mov    rbp,rsp
    46cc:	48 83 ec 10          	sub    rsp,0x10
    46d0:	89 f8                	mov    eax,edi
    46d2:	48 89 75 f0          	mov    QWORD PTR [rbp-0x10],rsi
    46d6:	88 45 fc             	mov    BYTE PTR [rbp-0x4],al
    46d9:	80 7d fc 2a          	cmp    BYTE PTR [rbp-0x4],0x2a
    46dd:	74 06                	je     0x46e5
    46df:	80 7d fc 36          	cmp    BYTE PTR [rbp-0x4],0x36
    46e3:	75 11                	jne    0x46f6
    46e5:	48 8b 45 f0          	mov    rax,QWORD PTR [rbp-0x10]
    46e9:	c6 00 01             	mov    BYTE PTR [rax],0x1
    46ec:	b8 00 00 00 00       	mov    eax,0x0
    46f1:	e9 26 04 00 00       	jmp    0x4b1c
    46f6:	80 7d fc aa          	cmp    BYTE PTR [rbp-0x4],0xaa
    46fa:	74 06                	je     0x4702
    46fc:	80 7d fc b6          	cmp    BYTE PTR [rbp-0x4],0xb6
    4700:	75 11                	jne    0x4713
    4702:	48 8b 45 f0          	mov    rax,QWORD PTR [rbp-0x10]
    4706:	c6 00 00             	mov    BYTE PTR [rax],0x0
    4709:	b8 00 00 00 00       	mov    eax,0x0
    470e:	e9 09 04 00 00       	jmp    0x4b1c
    4713:	48 8b 45 f0          	mov    rax,QWORD PTR [rbp-0x10]
    4717:	0f b6 00             	movzx  eax,BYTE PTR [rax]
    471a:	84 c0                	test   al,al
    471c:	0f 85 17 02 00 00    	jne    0x4939
    4722:	0f b6 45 fc          	movzx  eax,BYTE PTR [rbp-0x4]
    4726:	83 f8 7d             	cmp    eax,0x7d
    4729:	0f 87 e4 03 00 00    	ja     0x4b13
    472f:	89 c0                	mov    eax,eax
    4731:	48 8b 04 c5 48 62 11 	mov    rax,QWORD PTR [rax*8+0x116248]
    4738:	00 
    4739:	ff e0                	jmp    rax
    473b:	b8 61 00 00 00       	mov    eax,0x61
    4740:	e9 d7 03 00 00       	jmp    0x4b1c
    4745:	b8 62 00 00 00       	mov    eax,0x62
    474a:	e9 cd 03 00 00       	jmp    0x4b1c
    474f:	b8 63 00 00 00       	mov    eax,0x63
    4754:	e9 c3 03 00 00       	jmp    0x4b1c
    4759:	b8 64 00 00 00       	mov    eax,0x64
    475e:	e9 b9 03 00 00       	jmp    0x4b1c
    4763:	b8 65 00 00 00       	mov    eax,0x65
    4768:	e9 af 03 00 00       	jmp    0x4b1c
    476d:	b8 66 00 00 00       	mov    eax,0x66
    4772:	e9 a5 03 00 00       	jmp    0x4b1c
    4777:	b8 67 00 00 00       	mov    eax,0x67
    477c:	e9 9b 03 00 00       	jmp    0x4b1c
    4781:	b8 68 00 00 00       	mov    eax,0x68
    4786:	e9 91 03 00 00       	jmp    0x4b1c
    478b:	b8 69 00 00 00       	mov    eax,0x69
    4790:	e9 87 03 00 00       	jmp    0x4b1c
    4795:	b8 6a 00 00 00       	mov    eax,0x6a
    479a:	e9 7d 03 00 00       	jmp    0x4b1c
    479f:	b8 6b 00 00 00       	mov    eax,0x6b
    47a4:	e9 73 03 00 00       	jmp    0x4b1c
    47a9:	b8 6c 00 00 00       	mov    eax,0x6c
    47ae:	e9 69 03 00 00       	jmp    0x4b1c
    47b3:	b8 6d 00 00 00       	mov    eax,0x6d
    47b8:	e9 5f 03 00 00       	jmp    0x4b1c
    47bd:	b8 6e 00 00 00       	mov    eax,0x6e
    47c2:	e9 55 03 00 00       	jmp    0x4b1c
    47c7:	b8 6f 00 00 00       	mov    eax,0x6f
    47cc:	e9 4b 03 00 00       	jmp    0x4b1c
    47d1:	b8 70 00 00 00       	mov    eax,0x70
    47d6:	e9 41 03 00 00       	jmp    0x4b1c
    47db:	b8 71 00 00 00       	mov    eax,0x71
    47e0:	e9 37 03 00 00       	jmp    0x4b1c
    47e5:	b8 72 00 00 00       	mov    eax,0x72
    47ea:	e9 2d 03 00 00       	jmp    0x4b1c
    47ef:	b8 73 00 00 00       	mov    eax,0x73
    47f4:	e9 23 03 00 00       	jmp    0x4b1c
    47f9:	b8 74 00 00 00       	mov    eax,0x74
    47fe:	e9 19 03 00 00       	jmp    0x4b1c
    4803:	b8 75 00 00 00       	mov    eax,0x75
    4808:	e9 0f 03 00 00       	jmp    0x4b1c
    480d:	b8 76 00 00 00       	mov    eax,0x76
    4812:	e9 05 03 00 00       	jmp    0x4b1c
    4817:	b8 77 00 00 00       	mov    eax,0x77
    481c:	e9 fb 02 00 00       	jmp    0x4b1c
    4821:	b8 78 00 00 00       	mov    eax,0x78
    4826:	e9 f1 02 00 00       	jmp    0x4b1c
    482b:	b8 79 00 00 00       	mov    eax,0x79
    4830:	e9 e7 02 00 00       	jmp    0x4b1c
    4835:	b8 7a 00 00 00       	mov    eax,0x7a
    483a:	e9 dd 02 00 00       	jmp    0x4b1c
    483f:	b8 30 00 00 00       	mov    eax,0x30
    4844:	e9 d3 02 00 00       	jmp    0x4b1c
    4849:	b8 31 00 00 00       	mov    eax,0x31
    484e:	e9 c9 02 00 00       	jmp    0x4b1c
    4853:	b8 32 00 00 00       	mov    eax,0x32
    4858:	e9 bf 02 00 00       	jmp    0x4b1c
    485d:	b8 33 00 00 00       	mov    eax,0x33
    4862:	e9 b5 02 00 00       	jmp    0x4b1c
    4867:	b8 34 00 00 00       	mov    eax,0x34
    486c:	e9 ab 02 00 00       	jmp    0x4b1c
    4871:	b8 35 00 00 00       	mov    eax,0x35
    4876:	e9 a1 02 00 00       	jmp    0x4b1c
    487b:	b8 36 00 00 00       	mov    eax,0x36
    4880:	e9 97 02 00 00       	jmp    0x4b1c
    4885:	b8 37 00 00 00       	mov    eax,0x37
    488a:	e9 8d 02 00 00       	jmp    0x4b1c
    488f:	b8 38 00 00 00       	mov    eax,0x38
    4894:	e9 83 02 00 00       	jmp    0x4b1c
    4899:	b8 39 00 00 00       	mov    eax,0x39
    489e:	e9 79 02 00 00       	jmp    0x4b1c
    48a3:	b8 2d 00 00 00       	mov    eax,0x2d
    48a8:	e9 6f 02 00 00       	jmp    0x4b1c
    48ad:	b8 5e 00 00 00       	mov    eax,0x5e
    48b2:	e9 65 02 00 00       	jmp    0x4b1c
    48b7:	b8 5c 00 00 00       	mov    eax,0x5c
    48bc:	e9 5b 02 00 00       	jmp    0x4b1c
    48c1:	b8 5d 00 00 00       	mov    eax,0x5d
    48c6:	e9 51 02 00 00       	jmp    0x4b1c
    48cb:	b8 08 00 00 00       	mov    eax,0x8
    48d0:	e9 47 02 00 00       	jmp    0x4b1c
    48d5:	b8 20 00 00 00       	mov    eax,0x20
    48da:	e9 3d 02 00 00       	jmp    0x4b1c
    48df:	b8 0a 00 00 00       	mov    eax,0xa
    48e4:	e9 33 02 00 00       	jmp    0x4b1c
    48e9:	b8 40 00 00 00       	mov    eax,0x40
    48ee:	e9 29 02 00 00       	jmp    0x4b1c
    48f3:	b8 5b 00 00 00       	mov    eax,0x5b
    48f8:	e9 1f 02 00 00       	jmp    0x4b1c
    48fd:	b8 3b 00 00 00       	mov    eax,0x3b
    4902:	e9 15 02 00 00       	jmp    0x4b1c
    4907:	b8 3a 00 00 00       	mov    eax,0x3a
    490c:	e9 0b 02 00 00       	jmp    0x4b1c
    4911:	b8 2c 00 00 00       	mov    eax,0x2c
    4916:	e9 01 02 00 00       	jmp    0x4b1c
    491b:	b8 2e 00 00 00       	mov    eax,0x2e
    4920:	e9 f7 01 00 00       	jmp    0x4b1c
    4925:	b8 2f 00 00 00       	mov    eax,0x2f
    492a:	e9 ed 01 00 00       	jmp    0x4b1c
    492f:	b8 5c 00 00 00       	mov    eax,0x5c
    4934:	e9 e3 01 00 00       	jmp    0x4b1c
    4939:	0f b6 45 fc          	movzx  eax,BYTE PTR [rbp-0x4]
    493d:	83 f8 7d             	cmp    eax,0x7d
    4940:	0f 87 d0 01 00 00    	ja     0x4b16
    4946:	89 c0                	mov    eax,eax
    4948:	48 8b 04 c5 38 66 11 	mov    rax,QWORD PTR [rax*8+0x116638]
    494f:	00 
    4950:	ff e0                	jmp    rax
    4952:	b8 41 00 00 00       	mov    eax,0x41
    4957:	e9 c0 01 00 00       	jmp    0x4b1c
    495c:	b8 42 00 00 00       	mov    eax,0x42
    4961:	e9 b6 01 00 00       	jmp    0x4b1c
    4966:	b8 43 00 00 00       	mov    eax,0x43
    496b:	e9 ac 01 00 00       	jmp    0x4b1c
    4970:	b8 44 00 00 00       	mov    eax,0x44
    4975:	e9 a2 01 00 00       	jmp    0x4b1c
    497a:	b8 45 00 00 00       	mov    eax,0x45
    497f:	e9 98 01 00 00       	jmp    0x4b1c
    4984:	b8 46 00 00 00       	mov    eax,0x46
    4989:	e9 8e 01 00 00       	jmp    0x4b1c
    498e:	b8 47 00 00 00       	mov    eax,0x47
    4993:	e9 84 01 00 00       	jmp    0x4b1c
    4998:	b8 48 00 00 00       	mov    eax,0x48
    499d:	e9 7a 01 00 00       	jmp    0x4b1c
    49a2:	b8 49 00 00 00       	mov    eax,0x49
    49a7:	e9 70 01 00 00       	jmp    0x4b1c
    49ac:	b8 4a 00 00 00       	mov    eax,0x4a
    49b1:	e9 66 01 00 00       	jmp    0x4b1c
    49b6:	b8 4b 00 00 00       	mov    eax,0x4b
    49bb:	e9 5c 01 00 00       	jmp    0x4b1c
    49c0:	b8 4c 00 00 00       	mov    eax,0x4c
    49c5:	e9 52 01 00 00       	jmp    0x4b1c
    49ca:	b8 4d 00 00 00       	mov    eax,0x4d
    49cf:	e9 48 01 00 00       	jmp    0x4b1c
    49d4:	b8 4e 00 00 00       	mov    eax,0x4e
    49d9:	e9 3e 01 00 00       	jmp    0x4b1c
    49de:	b8 4f 00 00 00       	mov    eax,0x4f
    49e3:	e9 34 01 00 00       	jmp    0x4b1c
    49e8:	b8 50 00 00 00       	mov    eax,0x50
    49ed:	e9 2a 01 00 00       	jmp    0x4b1c
    49f2:	b8 51 00 00 00       	mov    eax,0x51
    49f7:	e9 20 01 00 00       	jmp    0x4b1c
    49fc:	b8 52 00 00 00       	mov    eax,0x52
    4a01:	e9 16 01 00 00       	jmp    0x4b1c
    4a06:	b8 53 00 00 00       	mov    eax,0x53
    4a0b:	e9 0c 01 00 00       	jmp    0x4b1c
    4a10:	b8 54 00 00 00       	mov    eax,0x54
    4a15:	e9 02 01 00 00       	jmp    0x4b1c
    4a1a:	b8 55 00 00 00       	mov    eax,0x55
    4a1f:	e9 f8 00 00 00       	jmp    0x4b1c
    4a24:	b8 56 00 00 00       	mov    eax,0x56
    4a29:	e9 ee 00 00 00       	jmp    0x4b1c
    4a2e:	b8 57 00 00 00       	mov    eax,0x57
    4a33:	e9 e4 00 00 00       	jmp    0x4b1c
    4a38:	b8 58 00 00 00       	mov    eax,0x58
    4a3d:	e9 da 00 00 00       	jmp    0x4b1c
    4a42:	b8 59 00 00 00       	mov    eax,0x59
    4a47:	e9 d0 00 00 00       	jmp    0x4b1c
    4a4c:	b8 5a 00 00 00       	mov    eax,0x5a
    4a51:	e9 c6 00 00 00       	jmp    0x4b1c
    4a56:	b8 21 00 00 00       	mov    eax,0x21
    4a5b:	e9 bc 00 00 00       	jmp    0x4b1c
    4a60:	b8 22 00 00 00       	mov    eax,0x22
    4a65:	e9 b2 00 00 00       	jmp    0x4b1c
    4a6a:	b8 23 00 00 00       	mov    eax,0x23
    4a6f:	e9 a8 00 00 00       	jmp    0x4b1c
    4a74:	b8 24 00 00 00       	mov    eax,0x24
    4a79:	e9 9e 00 00 00       	jmp    0x4b1c
    4a7e:	b8 25 00 00 00       	mov    eax,0x25
    4a83:	e9 94 00 00 00       	jmp    0x4b1c
    4a88:	b8 26 00 00 00       	mov    eax,0x26
    4a8d:	e9 8a 00 00 00       	jmp    0x4b1c
    4a92:	b8 27 00 00 00       	mov    eax,0x27
    4a97:	e9 80 00 00 00       	jmp    0x4b1c
    4a9c:	b8 28 00 00 00       	mov    eax,0x28
    4aa1:	eb 79                	jmp    0x4b1c
    4aa3:	b8 29 00 00 00       	mov    eax,0x29
    4aa8:	eb 72                	jmp    0x4b1c
    4aaa:	b8 3d 00 00 00       	mov    eax,0x3d
    4aaf:	eb 6b                	jmp    0x4b1c
    4ab1:	b8 7e 00 00 00       	mov    eax,0x7e
    4ab6:	eb 64                	jmp    0x4b1c
    4ab8:	b8 7c 00 00 00       	mov    eax,0x7c
    4abd:	eb 5d                	jmp    0x4b1c
    4abf:	b8 7d 00 00 00       	mov    eax,0x7d
    4ac4:	eb 56                	jmp    0x4b1c
    4ac6:	b8 08 00 00 00       	mov    eax,0x8
    4acb:	eb 4f                	jmp    0x4b1c
    4acd:	b8 20 00 00 00       	mov    eax,0x20
    4ad2:	eb 48                	jmp    0x4b1c
    4ad4:	b8 0a 00 00 00       	mov    eax,0xa
    4ad9:	eb 41                	jmp    0x4b1c
    4adb:	b8 60 00 00 00       	mov    eax,0x60
    4ae0:	eb 3a                	jmp    0x4b1c
    4ae2:	b8 7b 00 00 00       	mov    eax,0x7b
    4ae7:	eb 33                	jmp    0x4b1c
    4ae9:	b8 2b 00 00 00       	mov    eax,0x2b
    4aee:	eb 2c                	jmp    0x4b1c
    4af0:	b8 2a 00 00 00       	mov    eax,0x2a
    4af5:	eb 25                	jmp    0x4b1c
    4af7:	b8 3c 00 00 00       	mov    eax,0x3c
    4afc:	eb 1e                	jmp    0x4b1c
    4afe:	b8 3e 00 00 00       	mov    eax,0x3e
    4b03:	eb 17                	jmp    0x4b1c
    4b05:	b8 3f 00 00 00       	mov    eax,0x3f
    4b0a:	eb 10                	jmp    0x4b1c
    4b0c:	b8 5f 00 00 00       	mov    eax,0x5f
    4b11:	eb 09                	jmp    0x4b1c
    4b13:	90                   	nop
    4b14:	eb 01                	jmp    0x4b17
    4b16:	90                   	nop
    4b17:	b8 00 00 00 00       	mov    eax,0x0
    4b1c:	c9                   	leave  
    4b1d:	c3                   	ret    
0x0000000000114b1e: map_scan_to_ascii_set2
    4b1e:	55                   	push   rbp
    4b1f:	48 89 e5             	mov    rbp,rsp
    4b22:	48 83 ec 10          	sub    rsp,0x10
    4b26:	89 f8                	mov    eax,edi
    4b28:	48 89 75 f0          	mov    QWORD PTR [rbp-0x10],rsi
    4b2c:	88 45 fc             	mov    BYTE PTR [rbp-0x4],al
    4b2f:	80 7d fc 2a          	cmp    BYTE PTR [rbp-0x4],0x2a
    4b33:	74 06                	je     0x4b3b
    4b35:	80 7d fc 36          	cmp    BYTE PTR [rbp-0x4],0x36
    4b39:	75 11                	jne    0x4b4c
    4b3b:	48 8b 45 f0          	mov    rax,QWORD PTR [rbp-0x10]
    4b3f:	c6 00 01             	mov    BYTE PTR [rax],0x1
    4b42:	b8 00 00 00 00       	mov    eax,0x0
    4b47:	e9 26 04 00 00       	jmp    0x4f72
    4b4c:	80 7d fc aa          	cmp    BYTE PTR [rbp-0x4],0xaa
    4b50:	74 06                	je     0x4b58
    4b52:	80 7d fc b6          	cmp    BYTE PTR [rbp-0x4],0xb6
    4b56:	75 11                	jne    0x4b69
    4b58:	48 8b 45 f0          	mov    rax,QWORD PTR [rbp-0x10]
    4b5c:	c6 00 00             	mov    BYTE PTR [rax],0x0
    4b5f:	b8 00 00 00 00       	mov    eax,0x0
    4b64:	e9 09 04 00 00       	jmp    0x4f72
    4b69:	48 8b 45 f0          	mov    rax,QWORD PTR [rbp-0x10]
    4b6d:	0f b6 00             	movzx  eax,BYTE PTR [rax]
    4b70:	84 c0                	test   al,al
    4b72:	0f 85 17 02 00 00    	jne    0x4d8f
    4b78:	0f b6 45 fc          	movzx  eax,BYTE PTR [rbp-0x4]
    4b7c:	83 f8 7d             	cmp    eax,0x7d
    4b7f:	0f 87 e4 03 00 00    	ja     0x4f69
    4b85:	89 c0                	mov    eax,eax
    4b87:	48 8b 04 c5 28 6a 11 	mov    rax,QWORD PTR [rax*8+0x116a28]
    4b8e:	00 
    4b8f:	ff e0                	jmp    rax
    4b91:	b8 61 00 00 00       	mov    eax,0x61
    4b96:	e9 d7 03 00 00       	jmp    0x4f72
    4b9b:	b8 62 00 00 00       	mov    eax,0x62
    4ba0:	e9 cd 03 00 00       	jmp    0x4f72
    4ba5:	b8 63 00 00 00       	mov    eax,0x63
    4baa:	e9 c3 03 00 00       	jmp    0x4f72
    4baf:	b8 64 00 00 00       	mov    eax,0x64
    4bb4:	e9 b9 03 00 00       	jmp    0x4f72
    4bb9:	b8 65 00 00 00       	mov    eax,0x65
    4bbe:	e9 af 03 00 00       	jmp    0x4f72
    4bc3:	b8 66 00 00 00       	mov    eax,0x66
    4bc8:	e9 a5 03 00 00       	jmp    0x4f72
    4bcd:	b8 67 00 00 00       	mov    eax,0x67
    4bd2:	e9 9b 03 00 00       	jmp    0x4f72
    4bd7:	b8 68 00 00 00       	mov    eax,0x68
    4bdc:	e9 91 03 00 00       	jmp    0x4f72
    4be1:	b8 69 00 00 00       	mov    eax,0x69
    4be6:	e9 87 03 00 00       	jmp    0x4f72
    4beb:	b8 6a 00 00 00       	mov    eax,0x6a
    4bf0:	e9 7d 03 00 00       	jmp    0x4f72
    4bf5:	b8 6b 00 00 00       	mov    eax,0x6b
    4bfa:	e9 73 03 00 00       	jmp    0x4f72
    4bff:	b8 6c 00 00 00       	mov    eax,0x6c
    4c04:	e9 69 03 00 00       	jmp    0x4f72
    4c09:	b8 6d 00 00 00       	mov    eax,0x6d
    4c0e:	e9 5f 03 00 00       	jmp    0x4f72
    4c13:	b8 6e 00 00 00       	mov    eax,0x6e
    4c18:	e9 55 03 00 00       	jmp    0x4f72
    4c1d:	b8 6f 00 00 00       	mov    eax,0x6f
    4c22:	e9 4b 03 00 00       	jmp    0x4f72
    4c27:	b8 70 00 00 00       	mov    eax,0x70
    4c2c:	e9 41 03 00 00       	jmp    0x4f72
    4c31:	b8 71 00 00 00       	mov    eax,0x71
    4c36:	e9 37 03 00 00       	jmp    0x4f72
    4c3b:	b8 72 00 00 00       	mov    eax,0x72
    4c40:	e9 2d 03 00 00       	jmp    0x4f72
    4c45:	b8 73 00 00 00       	mov    eax,0x73
    4c4a:	e9 23 03 00 00       	jmp    0x4f72
    4c4f:	b8 74 00 00 00       	mov    eax,0x74
    4c54:	e9 19 03 00 00       	jmp    0x4f72
    4c59:	b8 75 00 00 00       	mov    eax,0x75
    4c5e:	e9 0f 03 00 00       	jmp    0x4f72
    4c63:	b8 76 00 00 00       	mov    eax,0x76
    4c68:	e9 05 03 00 00       	jmp    0x4f72
    4c6d:	b8 77 00 00 00       	mov    eax,0x77
    4c72:	e9 fb 02 00 00       	jmp    0x4f72
    4c77:	b8 78 00 00 00       	mov    eax,0x78
    4c7c:	e9 f1 02 00 00       	jmp    0x4f72
    4c81:	b8 79 00 00 00       	mov    eax,0x79
    4c86:	e9 e7 02 00 00       	jmp    0x4f72
    4c8b:	b8 7a 00 00 00       	mov    eax,0x7a
    4c90:	e9 dd 02 00 00       	jmp    0x4f72
    4c95:	b8 30 00 00 00       	mov    eax,0x30
    4c9a:	e9 d3 02 00 00       	jmp    0x4f72
    4c9f:	b8 31 00 00 00       	mov    eax,0x31
    4ca4:	e9 c9 02 00 00       	jmp    0x4f72
    4ca9:	b8 32 00 00 00       	mov    eax,0x32
    4cae:	e9 bf 02 00 00       	jmp    0x4f72
    4cb3:	b8 33 00 00 00       	mov    eax,0x33
    4cb8:	e9 b5 02 00 00       	jmp    0x4f72
    4cbd:	b8 34 00 00 00       	mov    eax,0x34
    4cc2:	e9 ab 02 00 00       	jmp    0x4f72
    4cc7:	b8 35 00 00 00       	mov    eax,0x35
    4ccc:	e9 a1 02 00 00       	jmp    0x4f72
    4cd1:	b8 36 00 00 00       	mov    eax,0x36
    4cd6:	e9 97 02 00 00       	jmp    0x4f72
    4cdb:	b8 37 00 00 00       	mov    eax,0x37
    4ce0:	e9 8d 02 00 00       	jmp    0x4f72
    4ce5:	b8 38 00 00 00       	mov    eax,0x38
    4cea:	e9 83 02 00 00       	jmp    0x4f72
    4cef:	b8 39 00 00 00       	mov    eax,0x39
    4cf4:	e9 79 02 00 00       	jmp    0x4f72
    4cf9:	b8 2d 00 00 00       	mov    eax,0x2d
    4cfe:	e9 6f 02 00 00       	jmp    0x4f72
    4d03:	b8 5e 00 00 00       	mov    eax,0x5e
    4d08:	e9 65 02 00 00       	jmp    0x4f72
    4d0d:	b8 5c 00 00 00       	mov    eax,0x5c
    4d12:	e9 5b 02 00 00       	jmp    0x4f72
    4d17:	b8 5d 00 00 00       	mov    eax,0x5d
    4d1c:	e9 51 02 00 00       	jmp    0x4f72
    4d21:	b8 08 00 00 00       	mov    eax,0x8
    4d26:	e9 47 02 00 00       	jmp    0x4f72
    4d2b:	b8 20 00 00 00       	mov    eax,0x20
    4d30:	e9 3d 02 00 00       	jmp    0x4f72
    4d35:	b8 0a 00 00 00       	mov    eax,0xa
    4d3a:	e9 33 02 00 00       	jmp    0x4f72
    4d3f:	b8 40 00 00 00       	mov    eax,0x40
    4d44:	e9 29 02 00 00       	jmp    0x4f72
    4d49:	b8 5b 00 00 00       	mov    eax,0x5b
    4d4e:	e9 1f 02 00 00       	jmp    0x4f72
    4d53:	b8 3b 00 00 00       	mov    eax,0x3b
    4d58:	e9 15 02 00 00       	jmp    0x4f72
    4d5d:	b8 3a 00 00 00       	mov    eax,0x3a
    4d62:	e9 0b 02 00 00       	jmp    0x4f72
    4d67:	b8 2c 00 00 00       	mov    eax,0x2c
    4d6c:	e9 01 02 00 00       	jmp    0x4f72
    4d71:	b8 2e 00 00 00       	mov    eax,0x2e
    4d76:	e9 f7 01 00 00       	jmp    0x4f72
    4d7b:	b8 2f 00 00 00       	mov    eax,0x2f
    4d80:	e9 ed 01 00 00       	jmp    0x4f72
    4d85:	b8 5c 00 00 00       	mov    eax,0x5c
    4d8a:	e9 e3 01 00 00       	jmp    0x4f72
    4d8f:	0f b6 45 fc          	movzx  eax,BYTE PTR [rbp-0x4]
    4d93:	83 f8 7d             	cmp    eax,0x7d
    4d96:	0f 87 d0 01 00 00    	ja     0x4f6c
    4d9c:	89 c0                	mov    eax,eax
    4d9e:	48 8b 04 c5 18 6e 11 	mov    rax,QWORD PTR [rax*8+0x116e18]
    4da5:	00 
    4da6:	ff e0                	jmp    rax
    4da8:	b8 41 00 00 00       	mov    eax,0x41
    4dad:	e9 c0 01 00 00       	jmp    0x4f72
    4db2:	b8 42 00 00 00       	mov    eax,0x42
    4db7:	e9 b6 01 00 00       	jmp    0x4f72
    4dbc:	b8 43 00 00 00       	mov    eax,0x43
    4dc1:	e9 ac 01 00 00       	jmp    0x4f72
    4dc6:	b8 44 00 00 00       	mov    eax,0x44
    4dcb:	e9 a2 01 00 00       	jmp    0x4f72
    4dd0:	b8 45 00 00 00       	mov    eax,0x45
    4dd5:	e9 98 01 00 00       	jmp    0x4f72
    4dda:	b8 46 00 00 00       	mov    eax,0x46
    4ddf:	e9 8e 01 00 00       	jmp    0x4f72
    4de4:	b8 47 00 00 00       	mov    eax,0x47
    4de9:	e9 84 01 00 00       	jmp    0x4f72
    4dee:	b8 48 00 00 00       	mov    eax,0x48
    4df3:	e9 7a 01 00 00       	jmp    0x4f72
    4df8:	b8 49 00 00 00       	mov    eax,0x49
    4dfd:	e9 70 01 00 00       	jmp    0x4f72
    4e02:	b8 4a 00 00 00       	mov    eax,0x4a
    4e07:	e9 66 01 00 00       	jmp    0x4f72
    4e0c:	b8 4b 00 00 00       	mov    eax,0x4b
    4e11:	e9 5c 01 00 00       	jmp    0x4f72
    4e16:	b8 4c 00 00 00       	mov    eax,0x4c
    4e1b:	e9 52 01 00 00       	jmp    0x4f72
    4e20:	b8 4d 00 00 00       	mov    eax,0x4d
    4e25:	e9 48 01 00 00       	jmp    0x4f72
    4e2a:	b8 4e 00 00 00       	mov    eax,0x4e
    4e2f:	e9 3e 01 00 00       	jmp    0x4f72
    4e34:	b8 4f 00 00 00       	mov    eax,0x4f
    4e39:	e9 34 01 00 00       	jmp    0x4f72
    4e3e:	b8 50 00 00 00       	mov    eax,0x50
    4e43:	e9 2a 01 00 00       	jmp    0x4f72
    4e48:	b8 51 00 00 00       	mov    eax,0x51
    4e4d:	e9 20 01 00 00       	jmp    0x4f72
    4e52:	b8 52 00 00 00       	mov    eax,0x52
    4e57:	e9 16 01 00 00       	jmp    0x4f72
    4e5c:	b8 53 00 00 00       	mov    eax,0x53
    4e61:	e9 0c 01 00 00       	jmp    0x4f72
    4e66:	b8 54 00 00 00       	mov    eax,0x54
    4e6b:	e9 02 01 00 00       	jmp    0x4f72
    4e70:	b8 55 00 00 00       	mov    eax,0x55
    4e75:	e9 f8 00 00 00       	jmp    0x4f72
    4e7a:	b8 56 00 00 00       	mov    eax,0x56
    4e7f:	e9 ee 00 00 00       	jmp    0x4f72
    4e84:	b8 57 00 00 00       	mov    eax,0x57
    4e89:	e9 e4 00 00 00       	jmp    0x4f72
    4e8e:	b8 58 00 00 00       	mov    eax,0x58
    4e93:	e9 da 00 00 00       	jmp    0x4f72
    4e98:	b8 59 00 00 00       	mov    eax,0x59
    4e9d:	e9 d0 00 00 00       	jmp    0x4f72
    4ea2:	b8 5a 00 00 00       	mov    eax,0x5a
    4ea7:	e9 c6 00 00 00       	jmp    0x4f72
    4eac:	b8 21 00 00 00       	mov    eax,0x21
    4eb1:	e9 bc 00 00 00       	jmp    0x4f72
    4eb6:	b8 22 00 00 00       	mov    eax,0x22
    4ebb:	e9 b2 00 00 00       	jmp    0x4f72
    4ec0:	b8 23 00 00 00       	mov    eax,0x23
    4ec5:	e9 a8 00 00 00       	jmp    0x4f72
    4eca:	b8 24 00 00 00       	mov    eax,0x24
    4ecf:	e9 9e 00 00 00       	jmp    0x4f72
    4ed4:	b8 25 00 00 00       	mov    eax,0x25
    4ed9:	e9 94 00 00 00       	jmp    0x4f72
    4ede:	b8 26 00 00 00       	mov    eax,0x26
    4ee3:	e9 8a 00 00 00       	jmp    0x4f72
    4ee8:	b8 27 00 00 00       	mov    eax,0x27
    4eed:	e9 80 00 00 00       	jmp    0x4f72
    4ef2:	b8 28 00 00 00       	mov    eax,0x28
    4ef7:	eb 79                	jmp    0x4f72
    4ef9:	b8 29 00 00 00       	mov    eax,0x29
    4efe:	eb 72                	jmp    0x4f72
    4f00:	b8 3d 00 00 00       	mov    eax,0x3d
    4f05:	eb 6b                	jmp    0x4f72
    4f07:	b8 7e 00 00 00       	mov    eax,0x7e
    4f0c:	eb 64                	jmp    0x4f72
    4f0e:	b8 7c 00 00 00       	mov    eax,0x7c
    4f13:	eb 5d                	jmp    0x4f72
    4f15:	b8 7d 00 00 00       	mov    eax,0x7d
    4f1a:	eb 56                	jmp    0x4f72
    4f1c:	b8 08 00 00 00       	mov    eax,0x8
    4f21:	eb 4f                	jmp    0x4f72
    4f23:	b8 20 00 00 00       	mov    eax,0x20
    4f28:	eb 48                	jmp    0x4f72
    4f2a:	b8 0a 00 00 00       	mov    eax,0xa
    4f2f:	eb 41                	jmp    0x4f72
    4f31:	b8 60 00 00 00       	mov    eax,0x60
    4f36:	eb 3a                	jmp    0x4f72
    4f38:	b8 7b 00 00 00       	mov    eax,0x7b
    4f3d:	eb 33                	jmp    0x4f72
    4f3f:	b8 2b 00 00 00       	mov    eax,0x2b
    4f44:	eb 2c                	jmp    0x4f72
    4f46:	b8 2a 00 00 00       	mov    eax,0x2a
    4f4b:	eb 25                	jmp    0x4f72
    4f4d:	b8 3c 00 00 00       	mov    eax,0x3c
    4f52:	eb 1e                	jmp    0x4f72
    4f54:	b8 3e 00 00 00       	mov    eax,0x3e
    4f59:	eb 17                	jmp    0x4f72
    4f5b:	b8 3f 00 00 00       	mov    eax,0x3f
    4f60:	eb 10                	jmp    0x4f72
    4f62:	b8 5f 00 00 00       	mov    eax,0x5f
    4f67:	eb 09                	jmp    0x4f72
    4f69:	90                   	nop
    4f6a:	eb 01                	jmp    0x4f6d
    4f6c:	90                   	nop
    4f6d:	b8 00 00 00 00       	mov    eax,0x0
    4f72:	c9                   	leave  
    4f73:	c3                   	ret    
0x0000000000114f74: readline_serial
    4f74:	55                   	push   rbp
    4f75:	48 89 e5             	mov    rbp,rsp
    4f78:	c6 05 01 31 00 00 00 	mov    BYTE PTR [rip+0x3101],0x0        # 0x8080
    4f7f:	48 8b 15 e2 2b 00 00 	mov    rdx,QWORD PTR [rip+0x2be2]        # 0x7b68
    4f86:	8b 35 fc 30 00 00    	mov    esi,DWORD PTR [rip+0x30fc]        # 0x8088
    4f8c:	8b 05 f2 30 00 00    	mov    eax,DWORD PTR [rip+0x30f2]        # 0x8084
    4f92:	41 b9 08 72 11 00    	mov    r9d,0x117208
    4f98:	49 89 d0             	mov    r8,rdx
    4f9b:	8b 0d fb 2b 00 00    	mov    ecx,DWORD PTR [rip+0x2bfb]        # 0x7b9c
    4fa1:	8b 15 91 2b 00 00    	mov    edx,DWORD PTR [rip+0x2b91]        # 0x7b38
    4fa7:	89 c7                	mov    edi,eax
    4fa9:	e8 3d b9 ff ff       	call   0x8eb
    4fae:	8b 05 d0 30 00 00    	mov    eax,DWORD PTR [rip+0x30d0]        # 0x8084
    4fb4:	83 c0 10             	add    eax,0x10
    4fb7:	89 05 c7 30 00 00    	mov    DWORD PTR [rip+0x30c7],eax        # 0x8084
    4fbd:	e9 8d 00 00 00       	jmp    0x504f
    4fc2:	c6 05 b7 30 00 00 00 	mov    BYTE PTR [rip+0x30b7],0x0        # 0x8080
    4fc9:	e8 85 f2 ff ff       	call   0x4253
    4fce:	0f b6 05 ab 30 00 00 	movzx  eax,BYTE PTR [rip+0x30ab]        # 0x8080
    4fd5:	3c 0d                	cmp    al,0xd
    4fd7:	74 76                	je     0x504f
    4fd9:	0f b6 05 a0 30 00 00 	movzx  eax,BYTE PTR [rip+0x30a0]        # 0x8080
    4fe0:	3c 0a                	cmp    al,0xa
    4fe2:	75 02                	jne    0x4fe6
    4fe4:	eb 69                	jmp    0x504f
    4fe6:	bf a0 80 11 00       	mov    edi,0x1180a0
    4feb:	e8 9a c0 ff ff       	call   0x108a
    4ff0:	84 c0                	test   al,al
    4ff2:	75 5b                	jne    0x504f
    4ff4:	0f b6 05 85 30 00 00 	movzx  eax,BYTE PTR [rip+0x3085]        # 0x8080
    4ffb:	0f be c0             	movsx  eax,al
    4ffe:	89 c6                	mov    esi,eax
    5000:	bf a0 80 11 00       	mov    edi,0x1180a0
    5005:	e8 bf c0 ff ff       	call   0x10c9
    500a:	0f b6 05 6f 30 00 00 	movzx  eax,BYTE PTR [rip+0x306f]        # 0x8080
    5011:	0f be c8             	movsx  ecx,al
    5014:	48 8b 15 4d 2b 00 00 	mov    rdx,QWORD PTR [rip+0x2b4d]        # 0x7b68
    501b:	8b 35 67 30 00 00    	mov    esi,DWORD PTR [rip+0x3067]        # 0x8088
    5021:	8b 05 5d 30 00 00    	mov    eax,DWORD PTR [rip+0x305d]        # 0x8084
    5027:	41 89 c9             	mov    r9d,ecx
    502a:	49 89 d0             	mov    r8,rdx
    502d:	8b 0d 69 2b 00 00    	mov    ecx,DWORD PTR [rip+0x2b69]        # 0x7b9c
    5033:	8b 15 f7 2a 00 00    	mov    edx,DWORD PTR [rip+0x2af7]        # 0x7b30
    5039:	89 c7                	mov    edi,eax
    503b:	e8 ac b6 ff ff       	call   0x6ec
    5040:	8b 05 3e 30 00 00    	mov    eax,DWORD PTR [rip+0x303e]        # 0x8084
    5046:	83 c0 08             	add    eax,0x8
    5049:	89 05 35 30 00 00    	mov    DWORD PTR [rip+0x3035],eax        # 0x8084
    504f:	0f b6 05 2a 30 00 00 	movzx  eax,BYTE PTR [rip+0x302a]        # 0x8080
    5056:	3c 0d                	cmp    al,0xd
    5058:	74 0f                	je     0x5069
    505a:	0f b6 05 1f 30 00 00 	movzx  eax,BYTE PTR [rip+0x301f]        # 0x8080
    5061:	3c 0a                	cmp    al,0xa
    5063:	0f 85 59 ff ff ff    	jne    0x4fc2
    5069:	c7 05 11 30 00 00 00 	mov    DWORD PTR [rip+0x3011],0x0        # 0x8084
    5070:	00 00 00 
    5073:	8b 05 0f 30 00 00    	mov    eax,DWORD PTR [rip+0x300f]        # 0x8088
    5079:	83 c0 10             	add    eax,0x10
    507c:	89 05 06 30 00 00    	mov    DWORD PTR [rip+0x3006],eax        # 0x8088
    5082:	90                   	nop
    5083:	5d                   	pop    rbp
    5084:	c3                   	ret    
0x0000000000115085: readline_ps2
    5085:	55                   	push   rbp
    5086:	48 89 e5             	mov    rbp,rsp
    5089:	48 83 ec 10          	sub    rsp,0x10
    508d:	48 89 7d f8          	mov    QWORD PTR [rbp-0x8],rdi
    5091:	c6 05 e8 2f 00 00 00 	mov    BYTE PTR [rip+0x2fe8],0x0        # 0x8080
    5098:	48 8b 15 c9 2a 00 00 	mov    rdx,QWORD PTR [rip+0x2ac9]        # 0x7b68
    509f:	8b 35 e3 2f 00 00    	mov    esi,DWORD PTR [rip+0x2fe3]        # 0x8088
    50a5:	8b 05 d9 2f 00 00    	mov    eax,DWORD PTR [rip+0x2fd9]        # 0x8084
    50ab:	41 b9 0b 72 11 00    	mov    r9d,0x11720b
    50b1:	49 89 d0             	mov    r8,rdx
    50b4:	8b 0d e2 2a 00 00    	mov    ecx,DWORD PTR [rip+0x2ae2]        # 0x7b9c
    50ba:	8b 15 78 2a 00 00    	mov    edx,DWORD PTR [rip+0x2a78]        # 0x7b38
    50c0:	89 c7                	mov    edi,eax
    50c2:	e8 24 b8 ff ff       	call   0x8eb
    50c7:	8b 05 b7 2f 00 00    	mov    eax,DWORD PTR [rip+0x2fb7]        # 0x8084
    50cd:	05 90 00 00 00       	add    eax,0x90
    50d2:	89 05 ac 2f 00 00    	mov    DWORD PTR [rip+0x2fac],eax        # 0x8084
    50d8:	e9 a3 00 00 00       	jmp    0x5180
    50dd:	e8 ad f5 ff ff       	call   0x468f
    50e2:	0f b6 c0             	movzx  eax,al
    50e5:	be 82 80 11 00       	mov    esi,0x118082
    50ea:	89 c7                	mov    edi,eax
    50ec:	e8 d7 f5 ff ff       	call   0x46c8
    50f1:	88 05 89 2f 00 00    	mov    BYTE PTR [rip+0x2f89],al        # 0x8080
    50f7:	0f b6 05 82 2f 00 00 	movzx  eax,BYTE PTR [rip+0x2f82]        # 0x8080
    50fe:	3c 0a                	cmp    al,0xa
    5100:	0f 84 8b 00 00 00    	je     0x5191
    5106:	0f b6 05 73 2f 00 00 	movzx  eax,BYTE PTR [rip+0x2f73]        # 0x8080
    510d:	84 c0                	test   al,al
    510f:	75 02                	jne    0x5113
    5111:	eb 6d                	jmp    0x5180
    5113:	48 8b 45 f8          	mov    rax,QWORD PTR [rbp-0x8]
    5117:	48 89 c7             	mov    rdi,rax
    511a:	e8 6b bf ff ff       	call   0x108a
    511f:	84 c0                	test   al,al
    5121:	75 5d                	jne    0x5180
    5123:	0f b6 05 56 2f 00 00 	movzx  eax,BYTE PTR [rip+0x2f56]        # 0x8080
    512a:	0f be d0             	movsx  edx,al
    512d:	48 8b 45 f8          	mov    rax,QWORD PTR [rbp-0x8]
    5131:	89 d6                	mov    esi,edx
    5133:	48 89 c7             	mov    rdi,rax
    5136:	e8 8e bf ff ff       	call   0x10c9
    513b:	0f b6 05 3e 2f 00 00 	movzx  eax,BYTE PTR [rip+0x2f3e]        # 0x8080
    5142:	0f be c8             	movsx  ecx,al
    5145:	48 8b 15 1c 2a 00 00 	mov    rdx,QWORD PTR [rip+0x2a1c]        # 0x7b68
    514c:	8b 35 36 2f 00 00    	mov    esi,DWORD PTR [rip+0x2f36]        # 0x8088
    5152:	8b 05 2c 2f 00 00    	mov    eax,DWORD PTR [rip+0x2f2c]        # 0x8084
    5158:	41 89 c9             	mov    r9d,ecx
    515b:	49 89 d0             	mov    r8,rdx
    515e:	8b 0d 38 2a 00 00    	mov    ecx,DWORD PTR [rip+0x2a38]        # 0x7b9c
    5164:	8b 15 c6 29 00 00    	mov    edx,DWORD PTR [rip+0x29c6]        # 0x7b30
    516a:	89 c7                	mov    edi,eax
    516c:	e8 7b b5 ff ff       	call   0x6ec
    5171:	8b 05 0d 2f 00 00    	mov    eax,DWORD PTR [rip+0x2f0d]        # 0x8084
    5177:	83 c0 08             	add    eax,0x8
    517a:	89 05 04 2f 00 00    	mov    DWORD PTR [rip+0x2f04],eax        # 0x8084
    5180:	0f b6 05 f9 2e 00 00 	movzx  eax,BYTE PTR [rip+0x2ef9]        # 0x8080
    5187:	3c 0a                	cmp    al,0xa
    5189:	0f 85 4e ff ff ff    	jne    0x50dd
    518f:	eb 01                	jmp    0x5192
    5191:	90                   	nop
    5192:	c7 05 e8 2e 00 00 00 	mov    DWORD PTR [rip+0x2ee8],0x0        # 0x8084
    5199:	00 00 00 
    519c:	8b 05 e6 2e 00 00    	mov    eax,DWORD PTR [rip+0x2ee6]        # 0x8088
    51a2:	83 c0 10             	add    eax,0x10
    51a5:	89 05 dd 2e 00 00    	mov    DWORD PTR [rip+0x2edd],eax        # 0x8088
    51ab:	90                   	nop
    51ac:	c9                   	leave  
    51ad:	c3                   	ret    
0x00000000001151ae: parse_line
    51ae:	55                   	push   rbp
    51af:	48 89 e5             	mov    rbp,rsp
    51b2:	48 83 ec 10          	sub    rsp,0x10
    51b6:	c7 45 fc 00 00 00 00 	mov    DWORD PTR [rbp-0x4],0x0
    51bd:	eb 1c                	jmp    0x51db
    51bf:	8b 45 fc             	mov    eax,DWORD PTR [rbp-0x4]
    51c2:	48 98                	cdqe   
    51c4:	48 05 c0 7b 11 00    	add    rax,0x117bc0
    51ca:	48 89 c6             	mov    rsi,rax
    51cd:	bf a0 80 11 00       	mov    edi,0x1180a0
    51d2:	e8 61 bf ff ff       	call   0x1138
    51d7:	83 45 fc 01          	add    DWORD PTR [rbp-0x4],0x1
    51db:	bf a0 80 11 00       	mov    edi,0x1180a0
    51e0:	e8 82 be ff ff       	call   0x1067
    51e5:	84 c0                	test   al,al
    51e7:	74 d6                	je     0x51bf
    51e9:	bf 1e 72 11 00       	mov    edi,0x11721e
    51ee:	e8 10 f1 ff ff       	call   0x4303
    51f3:	bf c0 7b 11 00       	mov    edi,0x117bc0
    51f8:	e8 06 f1 ff ff       	call   0x4303
    51fd:	bf 2b 72 11 00       	mov    edi,0x11722b
    5202:	e8 fc f0 ff ff       	call   0x4303
    5207:	c7 45 f4 00 00 00 00 	mov    DWORD PTR [rbp-0xc],0x0
    520e:	8b 45 f4             	mov    eax,DWORD PTR [rbp-0xc]
    5211:	48 98                	cdqe   
    5213:	48 c7 04 c5 c0 7f 11 	mov    QWORD PTR [rax*8+0x117fc0],0x117bc0
    521a:	00 c0 7b 11 00 
    521f:	83 45 f4 01          	add    DWORD PTR [rbp-0xc],0x1
    5223:	c7 45 f8 00 00 00 00 	mov    DWORD PTR [rbp-0x8],0x0
    522a:	eb 50                	jmp    0x527c
    522c:	8b 45 f8             	mov    eax,DWORD PTR [rbp-0x8]
    522f:	48 98                	cdqe   
    5231:	0f b6 80 c0 7b 11 00 	movzx  eax,BYTE PTR [rax+0x117bc0]
    5238:	84 c0                	test   al,al
    523a:	74 4a                	je     0x5286
    523c:	8b 45 f8             	mov    eax,DWORD PTR [rbp-0x8]
    523f:	48 98                	cdqe   
    5241:	0f b6 80 c0 7b 11 00 	movzx  eax,BYTE PTR [rax+0x117bc0]
    5248:	3c 20                	cmp    al,0x20
    524a:	75 2c                	jne    0x5278
    524c:	8b 45 f8             	mov    eax,DWORD PTR [rbp-0x8]
    524f:	83 c0 01             	add    eax,0x1
    5252:	48 98                	cdqe   
    5254:	48 8d 90 c0 7b 11 00 	lea    rdx,[rax+0x117bc0]
    525b:	8b 45 f4             	mov    eax,DWORD PTR [rbp-0xc]
    525e:	48 98                	cdqe   
    5260:	48 89 14 c5 c0 7f 11 	mov    QWORD PTR [rax*8+0x117fc0],rdx
    5267:	00 
    5268:	8b 45 f8             	mov    eax,DWORD PTR [rbp-0x8]
    526b:	48 98                	cdqe   
    526d:	c6 80 c0 7b 11 00 00 	mov    BYTE PTR [rax+0x117bc0],0x0
    5274:	83 45 f4 01          	add    DWORD PTR [rbp-0xc],0x1
    5278:	83 45 f8 01          	add    DWORD PTR [rbp-0x8],0x1
    527c:	8b 45 f8             	mov    eax,DWORD PTR [rbp-0x8]
    527f:	3b 45 fc             	cmp    eax,DWORD PTR [rbp-0x4]
    5282:	7c a8                	jl     0x522c
    5284:	eb 01                	jmp    0x5287
    5286:	90                   	nop
    5287:	90                   	nop
    5288:	c9                   	leave  
    5289:	c3                   	ret    
0x000000000011528a: do_command
    528a:	55                   	push   rbp
    528b:	48 89 e5             	mov    rbp,rsp
    528e:	48 83 ec 10          	sub    rsp,0x10
    5292:	48 8b 05 27 2d 00 00 	mov    rax,QWORD PTR [rip+0x2d27]        # 0x7fc0
    5299:	48 89 45 f0          	mov    QWORD PTR [rbp-0x10],rax
    529d:	c7 45 fc 00 00 00 00 	mov    DWORD PTR [rbp-0x4],0x0
    52a4:	c7 45 f8 00 00 00 00 	mov    DWORD PTR [rbp-0x8],0x0
    52ab:	eb 1a                	jmp    0x52c7
    52ad:	8b 45 f8             	mov    eax,DWORD PTR [rbp-0x8]
    52b0:	48 98                	cdqe   
    52b2:	48 8b 04 c5 c0 7f 11 	mov    rax,QWORD PTR [rax*8+0x117fc0]
    52b9:	00 
    52ba:	48 85 c0             	test   rax,rax
    52bd:	74 04                	je     0x52c3
    52bf:	83 45 fc 01          	add    DWORD PTR [rbp-0x4],0x1
    52c3:	83 45 f8 01          	add    DWORD PTR [rbp-0x8],0x1
    52c7:	83 7d f8 0f          	cmp    DWORD PTR [rbp-0x8],0xf
    52cb:	7e e0                	jle    0x52ad
    52cd:	48 8b 45 f0          	mov    rax,QWORD PTR [rbp-0x10]
    52d1:	ba 05 00 00 00       	mov    edx,0x5
    52d6:	be 2d 72 11 00       	mov    esi,0x11722d
    52db:	48 89 c7             	mov    rdi,rax
    52de:	e8 8f c0 ff ff       	call   0x1372
    52e3:	84 c0                	test   al,al
    52e5:	75 14                	jne    0x52fb
    52e7:	8b 45 fc             	mov    eax,DWORD PTR [rbp-0x4]
    52ea:	be c0 7f 11 00       	mov    esi,0x117fc0
    52ef:	89 c7                	mov    edi,eax
    52f1:	e8 a6 05 00 00       	call   0x589c
    52f6:	e9 90 00 00 00       	jmp    0x538b
    52fb:	48 8b 45 f0          	mov    rax,QWORD PTR [rbp-0x10]
    52ff:	ba 07 00 00 00       	mov    edx,0x7
    5304:	be 32 72 11 00       	mov    esi,0x117232
    5309:	48 89 c7             	mov    rdi,rax
    530c:	e8 61 c0 ff ff       	call   0x1372
    5311:	84 c0                	test   al,al
    5313:	75 11                	jne    0x5326
    5315:	8b 45 fc             	mov    eax,DWORD PTR [rbp-0x4]
    5318:	be c0 7f 11 00       	mov    esi,0x117fc0
    531d:	89 c7                	mov    edi,eax
    531f:	e8 01 06 00 00       	call   0x5925
    5324:	eb 65                	jmp    0x538b
    5326:	48 8b 45 f0          	mov    rax,QWORD PTR [rbp-0x10]
    532a:	ba 06 00 00 00       	mov    edx,0x6
    532f:	be 39 72 11 00       	mov    esi,0x117239
    5334:	48 89 c7             	mov    rdi,rax
    5337:	e8 36 c0 ff ff       	call   0x1372
    533c:	84 c0                	test   al,al
    533e:	75 11                	jne    0x5351
    5340:	8b 45 fc             	mov    eax,DWORD PTR [rbp-0x4]
    5343:	be c0 7f 11 00       	mov    esi,0x117fc0
    5348:	89 c7                	mov    edi,eax
    534a:	e8 26 06 00 00       	call   0x5975
    534f:	eb 3a                	jmp    0x538b
    5351:	48 8b 45 f0          	mov    rax,QWORD PTR [rbp-0x10]
    5355:	ba 01 00 00 00       	mov    edx,0x1
    535a:	be 3f 72 11 00       	mov    esi,0x11723f
    535f:	48 89 c7             	mov    rdi,rax
    5362:	e8 0b c0 ff ff       	call   0x1372
    5367:	84 c0                	test   al,al
    5369:	75 11                	jne    0x537c
    536b:	be 40 80 11 00       	mov    esi,0x118040
    5370:	bf 40 72 11 00       	mov    edi,0x117240
    5375:	e8 7d c0 ff ff       	call   0x13f7
    537a:	eb 0f                	jmp    0x538b
    537c:	be 40 80 11 00       	mov    esi,0x118040
    5381:	bf 49 72 11 00       	mov    edi,0x117249
    5386:	e8 6c c0 ff ff       	call   0x13f7
    538b:	90                   	nop
    538c:	c9                   	leave  
    538d:	c3                   	ret    
0x000000000011538e: writelines
    538e:	55                   	push   rbp
    538f:	48 89 e5             	mov    rbp,rsp
    5392:	0f b6 05 a7 2c 00 00 	movzx  eax,BYTE PTR [rip+0x2ca7]        # 0x8040
    5399:	84 c0                	test   al,al
    539b:	75 31                	jne    0x53ce
    539d:	48 8b 15 c4 27 00 00 	mov    rdx,QWORD PTR [rip+0x27c4]        # 0x7b68
    53a4:	8b 35 de 2c 00 00    	mov    esi,DWORD PTR [rip+0x2cde]        # 0x8088
    53aa:	8b 05 d4 2c 00 00    	mov    eax,DWORD PTR [rip+0x2cd4]        # 0x8084
    53b0:	41 b9 55 72 11 00    	mov    r9d,0x117255
    53b6:	49 89 d0             	mov    r8,rdx
    53b9:	8b 0d dd 27 00 00    	mov    ecx,DWORD PTR [rip+0x27dd]        # 0x7b9c
    53bf:	8b 15 6b 27 00 00    	mov    edx,DWORD PTR [rip+0x276b]        # 0x7b30
    53c5:	89 c7                	mov    edi,eax
    53c7:	e8 1f b5 ff ff       	call   0x8eb
    53cc:	eb 2f                	jmp    0x53fd
    53ce:	48 8b 15 93 27 00 00 	mov    rdx,QWORD PTR [rip+0x2793]        # 0x7b68
    53d5:	8b 35 ad 2c 00 00    	mov    esi,DWORD PTR [rip+0x2cad]        # 0x8088
    53db:	8b 05 a3 2c 00 00    	mov    eax,DWORD PTR [rip+0x2ca3]        # 0x8084
    53e1:	41 b9 40 80 11 00    	mov    r9d,0x118040
    53e7:	49 89 d0             	mov    r8,rdx
    53ea:	8b 0d ac 27 00 00    	mov    ecx,DWORD PTR [rip+0x27ac]        # 0x7b9c
    53f0:	8b 15 3a 27 00 00    	mov    edx,DWORD PTR [rip+0x273a]        # 0x7b30
    53f6:	89 c7                	mov    edi,eax
    53f8:	e8 ee b4 ff ff       	call   0x8eb
    53fd:	c7 05 7d 2c 00 00 00 	mov    DWORD PTR [rip+0x2c7d],0x0        # 0x8084
    5404:	00 00 00 
    5407:	8b 05 7b 2c 00 00    	mov    eax,DWORD PTR [rip+0x2c7b]        # 0x8088
    540d:	83 c0 10             	add    eax,0x10
    5410:	89 05 72 2c 00 00    	mov    DWORD PTR [rip+0x2c72],eax        # 0x8088
    5416:	90                   	nop
    5417:	5d                   	pop    rbp
    5418:	c3                   	ret    
0x0000000000115419: console
    5419:	55                   	push   rbp
    541a:	48 89 e5             	mov    rbp,rsp
    541d:	48 83 ec 60          	sub    rsp,0x60
    5421:	89 7d fc             	mov    DWORD PTR [rbp-0x4],edi
    5424:	48 89 75 f0          	mov    QWORD PTR [rbp-0x10],rsi
    5428:	bf 57 72 11 00       	mov    edi,0x117257
    542d:	e8 d1 ee ff ff       	call   0x4303
    5432:	48 8d 45 a0          	lea    rax,[rbp-0x60]
    5436:	48 89 c7             	mov    rdi,rax
    5439:	e8 a7 bb ff ff       	call   0xfe5
    543e:	48 8b 45 a0          	mov    rax,QWORD PTR [rbp-0x60]
    5442:	48 89 05 57 2c 00 00 	mov    QWORD PTR [rip+0x2c57],rax        # 0x80a0
    5449:	48 8b 45 a8          	mov    rax,QWORD PTR [rbp-0x58]
    544d:	48 89 05 54 2c 00 00 	mov    QWORD PTR [rip+0x2c54],rax        # 0x80a8
    5454:	48 8b 45 b0          	mov    rax,QWORD PTR [rbp-0x50]
    5458:	48 89 05 51 2c 00 00 	mov    QWORD PTR [rip+0x2c51],rax        # 0x80b0
    545f:	48 8b 45 b8          	mov    rax,QWORD PTR [rbp-0x48]
    5463:	48 89 05 4e 2c 00 00 	mov    QWORD PTR [rip+0x2c4e],rax        # 0x80b8
    546a:	48 8b 45 c0          	mov    rax,QWORD PTR [rbp-0x40]
    546e:	48 89 05 4b 2c 00 00 	mov    QWORD PTR [rip+0x2c4b],rax        # 0x80c0
    5475:	48 8b 45 c8          	mov    rax,QWORD PTR [rbp-0x38]
    5479:	48 89 05 48 2c 00 00 	mov    QWORD PTR [rip+0x2c48],rax        # 0x80c8
    5480:	48 8b 45 d0          	mov    rax,QWORD PTR [rbp-0x30]
    5484:	48 89 05 45 2c 00 00 	mov    QWORD PTR [rip+0x2c45],rax        # 0x80d0
    548b:	48 8b 45 d8          	mov    rax,QWORD PTR [rbp-0x28]
    548f:	48 89 05 42 2c 00 00 	mov    QWORD PTR [rip+0x2c42],rax        # 0x80d8
    5496:	0f b7 45 e0          	movzx  eax,WORD PTR [rbp-0x20]
    549a:	66 89 05 3f 2c 00 00 	mov    WORD PTR [rip+0x2c3f],ax        # 0x80e0
    54a1:	bf 67 72 11 00       	mov    edi,0x117267
    54a6:	e8 58 ee ff ff       	call   0x4303
    54ab:	e8 c4 fa ff ff       	call   0x4f74
    54b0:	bf 82 72 11 00       	mov    edi,0x117282
    54b5:	e8 49 ee ff ff       	call   0x4303
    54ba:	e8 ef fc ff ff       	call   0x51ae
    54bf:	bf 98 72 11 00       	mov    edi,0x117298
    54c4:	e8 3a ee ff ff       	call   0x4303
    54c9:	e8 bc fd ff ff       	call   0x528a
    54ce:	bf ae 72 11 00       	mov    edi,0x1172ae
    54d3:	e8 2b ee ff ff       	call   0x4303
    54d8:	b8 00 00 00 00       	mov    eax,0x0
    54dd:	e8 ac fe ff ff       	call   0x538e
    54e2:	bf c4 72 11 00       	mov    edi,0x1172c4
    54e7:	e8 17 ee ff ff       	call   0x4303
    54ec:	bf a0 80 11 00       	mov    edi,0x1180a0
    54f1:	e8 b3 bc ff ff       	call   0x11a9
    54f6:	bf 40 80 11 00       	mov    edi,0x118040
    54fb:	e8 e8 bc ff ff       	call   0x11e8
    5500:	bf c0 7b 11 00       	mov    edi,0x117bc0
    5505:	e8 de bc ff ff       	call   0x11e8
    550a:	bf c0 7f 11 00       	mov    edi,0x117fc0
    550f:	e8 2b bd ff ff       	call   0x123f
    5514:	bf d5 72 11 00       	mov    edi,0x1172d5
    5519:	e8 e5 ed ff ff       	call   0x4303
    551e:	eb 81                	jmp    0x54a1
0x0000000000115520: get_xsdt_other_table
    5520:	55                   	push   rbp
    5521:	48 89 e5             	mov    rbp,rsp
    5524:	48 83 ec 30          	sub    rsp,0x30
    5528:	48 89 7d d8          	mov    QWORD PTR [rbp-0x28],rdi
    552c:	48 8b 05 3d 26 00 00 	mov    rax,QWORD PTR [rip+0x263d]        # 0x7b70
    5533:	48 8b 40 18          	mov    rax,QWORD PTR [rax+0x18]
    5537:	48 89 45 f0          	mov    QWORD PTR [rbp-0x10],rax
    553b:	48 83 7d f0 00       	cmp    QWORD PTR [rbp-0x10],0x0
    5540:	75 0a                	jne    0x554c
    5542:	bf f4 72 11 00       	mov    edi,0x1172f4
    5547:	e8 b7 ed ff ff       	call   0x4303
    554c:	48 8b 45 f0          	mov    rax,QWORD PTR [rbp-0x10]
    5550:	8b 40 04             	mov    eax,DWORD PTR [rax+0x4]
    5553:	83 e8 04             	sub    eax,0x4
    5556:	89 45 ec             	mov    DWORD PTR [rbp-0x14],eax
    5559:	48 c7 45 f8 00 00 00 	mov    QWORD PTR [rbp-0x8],0x0
    5560:	00 
    5561:	eb 44                	jmp    0x55a7
    5563:	48 8b 45 f0          	mov    rax,QWORD PTR [rbp-0x10]
    5567:	48 8b 55 f8          	mov    rdx,QWORD PTR [rbp-0x8]
    556b:	48 83 c2 04          	add    rdx,0x4
    556f:	48 8b 44 d0 04       	mov    rax,QWORD PTR [rax+rdx*8+0x4]
    5574:	48 89 c1             	mov    rcx,rax
    5577:	48 8b 45 d8          	mov    rax,QWORD PTR [rbp-0x28]
    557b:	ba 04 00 00 00       	mov    edx,0x4
    5580:	48 89 ce             	mov    rsi,rcx
    5583:	48 89 c7             	mov    rdi,rax
    5586:	e8 e7 bd ff ff       	call   0x1372
    558b:	84 c0                	test   al,al
    558d:	75 13                	jne    0x55a2
    558f:	48 8b 45 f0          	mov    rax,QWORD PTR [rbp-0x10]
    5593:	48 8b 55 f8          	mov    rdx,QWORD PTR [rbp-0x8]
    5597:	48 83 c2 04          	add    rdx,0x4
    559b:	48 8b 44 d0 04       	mov    rax,QWORD PTR [rax+rdx*8+0x4]
    55a0:	eb 13                	jmp    0x55b5
    55a2:	48 83 45 f8 01       	add    QWORD PTR [rbp-0x8],0x1
    55a7:	8b 45 ec             	mov    eax,DWORD PTR [rbp-0x14]
    55aa:	48 39 45 f8          	cmp    QWORD PTR [rbp-0x8],rax
    55ae:	72 b3                	jb     0x5563
    55b0:	b8 00 00 00 00       	mov    eax,0x0
    55b5:	c9                   	leave  
    55b6:	c3                   	ret    
0x00000000001155b7: wait_milliseconds
    55b7:	55                   	push   rbp
    55b8:	48 89 e5             	mov    rbp,rsp
    55bb:	48 83 ec 20          	sub    rsp,0x20
    55bf:	48 89 7d e8          	mov    QWORD PTR [rbp-0x18],rdi
    55c3:	89 75 e4             	mov    DWORD PTR [rbp-0x1c],esi
    55c6:	bf 08 73 11 00       	mov    edi,0x117308
    55cb:	e8 33 ed ff ff       	call   0x4303
    55d0:	48 8b 45 e8          	mov    rax,QWORD PTR [rbp-0x18]
    55d4:	48 89 c7             	mov    rdi,rax
    55d7:	e8 7a ed ff ff       	call   0x4356
    55dc:	bf 18 73 11 00       	mov    edi,0x117318
    55e1:	e8 1d ed ff ff       	call   0x4303
    55e6:	48 8b 45 e8          	mov    rax,QWORD PTR [rbp-0x18]
    55ea:	48 89 c7             	mov    rdi,rax
    55ed:	e8 55 c4 ff ff       	call   0x1a47
    55f2:	89 45 fc             	mov    DWORD PTR [rbp-0x4],eax
    55f5:	bf 1a 73 11 00       	mov    edi,0x11731a
    55fa:	e8 04 ed ff ff       	call   0x4303
    55ff:	8b 45 fc             	mov    eax,DWORD PTR [rbp-0x4]
    5602:	48 89 c7             	mov    rdi,rax
    5605:	e8 4c ed ff ff       	call   0x4356
    560a:	bf 18 73 11 00       	mov    edi,0x117318
    560f:	e8 ef ec ff ff       	call   0x4303
    5614:	b8 99 9e 36 00       	mov    eax,0x369e99
    5619:	0f af 45 e4          	imul   eax,DWORD PTR [rbp-0x1c]
    561d:	ba d3 4d 62 10       	mov    edx,0x10624dd3
    5622:	f7 e2                	mul    edx
    5624:	c1 ea 06             	shr    edx,0x6
    5627:	8b 45 fc             	mov    eax,DWORD PTR [rbp-0x4]
    562a:	01 d0                	add    eax,edx
    562c:	89 45 f8             	mov    DWORD PTR [rbp-0x8],eax
    562f:	bf 22 73 11 00       	mov    edi,0x117322
    5634:	e8 ca ec ff ff       	call   0x4303
    5639:	8b 45 f8             	mov    eax,DWORD PTR [rbp-0x8]
    563c:	48 89 c7             	mov    rdi,rax
    563f:	e8 12 ed ff ff       	call   0x4356
    5644:	bf 18 73 11 00       	mov    edi,0x117318
    5649:	e8 b5 ec ff ff       	call   0x4303
    564e:	c7 45 f4 00 00 00 00 	mov    DWORD PTR [rbp-0xc],0x0
    5655:	bf 28 73 11 00       	mov    edi,0x117328
    565a:	e8 a4 ec ff ff       	call   0x4303
    565f:	90                   	nop
    5660:	48 8b 45 e8          	mov    rax,QWORD PTR [rbp-0x18]
    5664:	48 89 c7             	mov    rdi,rax
    5667:	e8 db c3 ff ff       	call   0x1a47
    566c:	89 45 f4             	mov    DWORD PTR [rbp-0xc],eax
    566f:	8b 45 f4             	mov    eax,DWORD PTR [rbp-0xc]
    5672:	3b 45 f8             	cmp    eax,DWORD PTR [rbp-0x8]
    5675:	77 e9                	ja     0x5660
    5677:	bf 32 73 11 00       	mov    edi,0x117332
    567c:	e8 82 ec ff ff       	call   0x4303
    5681:	90                   	nop
    5682:	c9                   	leave  
    5683:	c3                   	ret    
0x0000000000115684: measure_freq
    5684:	55                   	push   rbp
    5685:	48 89 e5             	mov    rbp,rsp
    5688:	48 83 ec 20          	sub    rsp,0x20
    568c:	48 89 7d e8          	mov    QWORD PTR [rbp-0x18],rdi
    5690:	48 8b 05 c9 24 00 00 	mov    rax,QWORD PTR [rip+0x24c9]        # 0x7b60
    5697:	c7 00 0b 00 00 00    	mov    DWORD PTR [rax],0xb
    569d:	48 8b 05 a4 24 00 00 	mov    rax,QWORD PTR [rip+0x24a4]        # 0x7b48
    56a4:	c7 00 20 00 01 00    	mov    DWORD PTR [rax],0x10020
    56aa:	bf 3f 73 11 00       	mov    edi,0x11733f
    56af:	e8 4f ec ff ff       	call   0x4303
    56b4:	48 8b 45 e8          	mov    rax,QWORD PTR [rbp-0x18]
    56b8:	be 64 00 00 00       	mov    esi,0x64
    56bd:	48 89 c7             	mov    rdi,rax
    56c0:	e8 f2 fe ff ff       	call   0x55b7
    56c5:	bf 59 73 11 00       	mov    edi,0x117359
    56ca:	e8 34 ec ff ff       	call   0x4303
    56cf:	48 8b 05 82 24 00 00 	mov    rax,QWORD PTR [rip+0x2482]        # 0x7b58
    56d6:	8b 00                	mov    eax,DWORD PTR [rax]
    56d8:	89 45 fc             	mov    DWORD PTR [rbp-0x4],eax
    56db:	b8 ff ff ff ff       	mov    eax,0xffffffff
    56e0:	2b 45 fc             	sub    eax,DWORD PTR [rbp-0x4]
    56e3:	89 c2                	mov    edx,eax
    56e5:	89 d0                	mov    eax,edx
    56e7:	c1 e0 02             	shl    eax,0x2
    56ea:	01 d0                	add    eax,edx
    56ec:	01 c0                	add    eax,eax
    56ee:	89 c0                	mov    eax,eax
    56f0:	c9                   	leave  
    56f1:	c3                   	ret    
0x00000000001156f2: init_local_APIC
    56f2:	55                   	push   rbp
    56f3:	48 89 e5             	mov    rbp,rsp
    56f6:	48 83 ec 20          	sub    rsp,0x20
    56fa:	bf 72 73 11 00       	mov    edi,0x117372
    56ff:	e8 ff eb ff ff       	call   0x4303
    5704:	bf 89 73 11 00       	mov    edi,0x117389
    5709:	e8 12 fe ff ff       	call   0x5520
    570e:	48 89 45 f0          	mov    QWORD PTR [rbp-0x10],rax
    5712:	48 83 7d f0 00       	cmp    QWORD PTR [rbp-0x10],0x0
    5717:	75 0f                	jne    0x5728
    5719:	bf 8e 73 11 00       	mov    edi,0x11738e
    571e:	e8 e0 eb ff ff       	call   0x4303
    5723:	e9 72 01 00 00       	jmp    0x589a
    5728:	c7 45 fc 00 00 00 00 	mov    DWORD PTR [rbp-0x4],0x0
    572f:	eb 45                	jmp    0x5776
    5731:	48 8b 55 f0          	mov    rdx,QWORD PTR [rbp-0x10]
    5735:	8b 45 fc             	mov    eax,DWORD PTR [rbp-0x4]
    5738:	48 98                	cdqe   
    573a:	0f b6 04 02          	movzx  eax,BYTE PTR [rdx+rax*1]
    573e:	0f be d0             	movsx  edx,al
    5741:	48 8b 05 20 24 00 00 	mov    rax,QWORD PTR [rip+0x2420]        # 0x7b68
    5748:	8b 4d fc             	mov    ecx,DWORD PTR [rbp-0x4]
    574b:	c1 e1 03             	shl    ecx,0x3
    574e:	81 c1 2c 01 00 00    	add    ecx,0x12c
    5754:	89 cf                	mov    edi,ecx
    5756:	41 89 d1             	mov    r9d,edx
    5759:	49 89 c0             	mov    r8,rax
    575c:	8b 0d ce 23 00 00    	mov    ecx,DWORD PTR [rip+0x23ce]        # 0x7b30
    5762:	8b 15 34 24 00 00    	mov    edx,DWORD PTR [rip+0x2434]        # 0x7b9c
    5768:	be 2c 01 00 00       	mov    esi,0x12c
    576d:	e8 7a af ff ff       	call   0x6ec
    5772:	83 45 fc 01          	add    DWORD PTR [rbp-0x4],0x1
    5776:	83 7d fc 03          	cmp    DWORD PTR [rbp-0x4],0x3
    577a:	7e b5                	jle    0x5731
    577c:	bf a2 73 11 00       	mov    edi,0x1173a2
    5781:	e8 7d eb ff ff       	call   0x4303
    5786:	48 8b 45 f0          	mov    rax,QWORD PTR [rbp-0x10]
    578a:	48 89 c7             	mov    rdi,rax
    578d:	e8 c4 eb ff ff       	call   0x4356
    5792:	bf 18 73 11 00       	mov    edi,0x117318
    5797:	e8 67 eb ff ff       	call   0x4303
    579c:	48 8b 45 f0          	mov    rax,QWORD PTR [rbp-0x10]
    57a0:	8b 40 50             	mov    eax,DWORD PTR [rax+0x50]
    57a3:	89 c0                	mov    eax,eax
    57a5:	48 89 45 e8          	mov    QWORD PTR [rbp-0x18],rax
    57a9:	bf a9 73 11 00       	mov    edi,0x1173a9
    57ae:	e8 50 eb ff ff       	call   0x4303
    57b3:	bf b9 73 11 00       	mov    edi,0x1173b9
    57b8:	e8 46 eb ff ff       	call   0x4303
    57bd:	48 8b 45 e8          	mov    rax,QWORD PTR [rbp-0x18]
    57c1:	48 89 c7             	mov    rdi,rax
    57c4:	e8 8d eb ff ff       	call   0x4356
    57c9:	bf 18 73 11 00       	mov    edi,0x117318
    57ce:	e8 30 eb ff ff       	call   0x4303
    57d3:	48 8b 45 f0          	mov    rax,QWORD PTR [rbp-0x10]
    57d7:	8b 40 78             	mov    eax,DWORD PTR [rax+0x78]
    57da:	80 cc 01             	or     ah,0x1
    57dd:	89 c2                	mov    edx,eax
    57df:	48 8b 45 f0          	mov    rax,QWORD PTR [rbp-0x10]
    57e3:	89 50 78             	mov    DWORD PTR [rax+0x78],edx
    57e6:	bf c6 73 11 00       	mov    edi,0x1173c6
    57eb:	e8 13 eb ff ff       	call   0x4303
    57f0:	48 8b 45 f0          	mov    rax,QWORD PTR [rbp-0x10]
    57f4:	8b 40 78             	mov    eax,DWORD PTR [rax+0x78]
    57f7:	89 c0                	mov    eax,eax
    57f9:	48 89 c7             	mov    rdi,rax
    57fc:	e8 55 eb ff ff       	call   0x4356
    5801:	bf 18 73 11 00       	mov    edi,0x117318
    5806:	e8 f8 ea ff ff       	call   0x4303
    580b:	48 8b 45 e8          	mov    rax,QWORD PTR [rbp-0x18]
    580f:	48 89 c7             	mov    rdi,rax
    5812:	e8 6d fe ff ff       	call   0x5684
    5817:	48 89 05 ca 28 00 00 	mov    QWORD PTR [rip+0x28ca],rax        # 0x80e8
    581e:	bf d4 73 11 00       	mov    edi,0x1173d4
    5823:	e8 db ea ff ff       	call   0x4303
    5828:	48 8b 05 b9 28 00 00 	mov    rax,QWORD PTR [rip+0x28b9]        # 0x80e8
    582f:	48 89 c7             	mov    rdi,rax
    5832:	e8 1f eb ff ff       	call   0x4356
    5837:	bf 18 73 11 00       	mov    edi,0x117318
    583c:	e8 c2 ea ff ff       	call   0x4303
    5841:	48 8b 05 00 23 00 00 	mov    rax,QWORD PTR [rip+0x2300]        # 0x7b48
    5848:	c7 00 20 00 02 00    	mov    DWORD PTR [rax],0x20020
    584e:	bf e1 73 11 00       	mov    edi,0x1173e1
    5853:	e8 ab ea ff ff       	call   0x4303
    5858:	48 8b 05 e9 22 00 00 	mov    rax,QWORD PTR [rip+0x22e9]        # 0x7b48
    585f:	8b 00                	mov    eax,DWORD PTR [rax]
    5861:	89 c0                	mov    eax,eax
    5863:	48 89 c7             	mov    rdi,rax
    5866:	e8 eb ea ff ff       	call   0x4356
    586b:	bf 18 73 11 00       	mov    edi,0x117318
    5870:	e8 8e ea ff ff       	call   0x4303
    5875:	48 8b 05 6c 28 00 00 	mov    rax,QWORD PTR [rip+0x286c]        # 0x80e8
    587c:	48 c1 e8 03          	shr    rax,0x3
    5880:	48 ba cf f7 53 e3 a5 	movabs rdx,0x20c49ba5e353f7cf
    5887:	9b c4 20 
    588a:	48 f7 e2             	mul    rdx
    588d:	48 c1 ea 04          	shr    rdx,0x4
    5891:	48 8b 05 b8 22 00 00 	mov    rax,QWORD PTR [rip+0x22b8]        # 0x7b50
    5898:	89 10                	mov    DWORD PTR [rax],edx
    589a:	c9                   	leave  
    589b:	c3                   	ret    
0x000000000011589c: echo
    589c:	55                   	push   rbp
    589d:	48 89 e5             	mov    rbp,rsp
    58a0:	48 83 ec 10          	sub    rsp,0x10
    58a4:	89 7d fc             	mov    DWORD PTR [rbp-0x4],edi
    58a7:	48 89 75 f0          	mov    QWORD PTR [rbp-0x10],rsi
    58ab:	bf ee 73 11 00       	mov    edi,0x1173ee
    58b0:	e8 4e ea ff ff       	call   0x4303
    58b5:	8b 45 fc             	mov    eax,DWORD PTR [rbp-0x4]
    58b8:	48 98                	cdqe   
    58ba:	48 89 c7             	mov    rdi,rax
    58bd:	e8 94 ea ff ff       	call   0x4356
    58c2:	bf f5 73 11 00       	mov    edi,0x1173f5
    58c7:	e8 37 ea ff ff       	call   0x4303
    58cc:	bf f7 73 11 00       	mov    edi,0x1173f7
    58d1:	e8 2d ea ff ff       	call   0x4303
    58d6:	48 8b 45 f0          	mov    rax,QWORD PTR [rbp-0x10]
    58da:	48 83 c0 08          	add    rax,0x8
    58de:	48 8b 00             	mov    rax,QWORD PTR [rax]
    58e1:	48 89 c7             	mov    rdi,rax
    58e4:	e8 1a ea ff ff       	call   0x4303
    58e9:	bf f5 73 11 00       	mov    edi,0x1173f5
    58ee:	e8 10 ea ff ff       	call   0x4303
    58f3:	83 7d fc 02          	cmp    DWORD PTR [rbp-0x4],0x2
    58f7:	74 11                	je     0x590a
    58f9:	be 40 80 11 00       	mov    esi,0x118040
    58fe:	bf 01 74 11 00       	mov    edi,0x117401
    5903:	e8 ef ba ff ff       	call   0x13f7
    5908:	eb 18                	jmp    0x5922
    590a:	48 8b 45 f0          	mov    rax,QWORD PTR [rbp-0x10]
    590e:	48 83 c0 08          	add    rax,0x8
    5912:	48 8b 00             	mov    rax,QWORD PTR [rax]
    5915:	be 40 80 11 00       	mov    esi,0x118040
    591a:	48 89 c7             	mov    rdi,rax
    591d:	e8 d5 ba ff ff       	call   0x13f7
    5922:	90                   	nop
    5923:	c9                   	leave  
    5924:	c3                   	ret    
0x0000000000115925: uptime
    5925:	55                   	push   rbp
    5926:	48 89 e5             	mov    rbp,rsp
    5929:	48 83 ec 30          	sub    rsp,0x30
    592d:	89 7d dc             	mov    DWORD PTR [rbp-0x24],edi
    5930:	48 89 75 d0          	mov    QWORD PTR [rbp-0x30],rsi
    5934:	83 7d dc 01          	cmp    DWORD PTR [rbp-0x24],0x1
    5938:	75 29                	jne    0x5963
    593a:	48 8b 15 5f 22 00 00 	mov    rdx,QWORD PTR [rip+0x225f]        # 0x7ba0
    5941:	48 8d 45 ed          	lea    rax,[rbp-0x13]
    5945:	48 89 d6             	mov    rsi,rdx
    5948:	48 89 c7             	mov    rdi,rax
    594b:	e8 12 bb ff ff       	call   0x1462
    5950:	48 8d 45 ed          	lea    rax,[rbp-0x13]
    5954:	be 40 80 11 00       	mov    esi,0x118040
    5959:	48 89 c7             	mov    rdi,rax
    595c:	e8 96 ba ff ff       	call   0x13f7
    5961:	eb 0f                	jmp    0x5972
    5963:	be 40 80 11 00       	mov    esi,0x118040
    5968:	bf 10 74 11 00       	mov    edi,0x117410
    596d:	e8 85 ba ff ff       	call   0x13f7
    5972:	90                   	nop
    5973:	c9                   	leave  
    5974:	c3                   	ret    
0x0000000000115975: sleep
    5975:	55                   	push   rbp
    5976:	48 89 e5             	mov    rbp,rsp
    5979:	48 83 ec 20          	sub    rsp,0x20
    597d:	89 7d ec             	mov    DWORD PTR [rbp-0x14],edi
    5980:	48 89 75 e0          	mov    QWORD PTR [rbp-0x20],rsi
    5984:	bf 21 74 11 00       	mov    edi,0x117421
    5989:	e8 75 e9 ff ff       	call   0x4303
    598e:	8b 45 ec             	mov    eax,DWORD PTR [rbp-0x14]
    5991:	48 98                	cdqe   
    5993:	48 89 c7             	mov    rdi,rax
    5996:	e8 bb e9 ff ff       	call   0x4356
    599b:	bf 28 74 11 00       	mov    edi,0x117428
    59a0:	e8 5e e9 ff ff       	call   0x4303
    59a5:	83 7d ec 02          	cmp    DWORD PTR [rbp-0x14],0x2
    59a9:	75 4d                	jne    0x59f8
    59ab:	48 8b 05 ee 21 00 00 	mov    rax,QWORD PTR [rip+0x21ee]        # 0x7ba0
    59b2:	48 89 45 f8          	mov    QWORD PTR [rbp-0x8],rax
    59b6:	48 8b 45 e0          	mov    rax,QWORD PTR [rbp-0x20]
    59ba:	48 83 c0 08          	add    rax,0x8
    59be:	48 8b 00             	mov    rax,QWORD PTR [rax]
    59c1:	48 89 c7             	mov    rdi,rax
    59c4:	e8 f1 be ff ff       	call   0x18ba
    59c9:	48 89 c2             	mov    rdx,rax
    59cc:	48 8b 45 f8          	mov    rax,QWORD PTR [rbp-0x8]
    59d0:	48 01 d0             	add    rax,rdx
    59d3:	48 89 45 f0          	mov    QWORD PTR [rbp-0x10],rax
    59d7:	eb 01                	jmp    0x59da
    59d9:	f4                   	hlt    
    59da:	48 8b 05 bf 21 00 00 	mov    rax,QWORD PTR [rip+0x21bf]        # 0x7ba0
    59e1:	48 39 45 f0          	cmp    QWORD PTR [rbp-0x10],rax
    59e5:	77 f2                	ja     0x59d9
    59e7:	be 40 80 11 00       	mov    esi,0x118040
    59ec:	bf 2a 74 11 00       	mov    edi,0x11742a
    59f1:	e8 01 ba ff ff       	call   0x13f7
    59f6:	eb 0f                	jmp    0x5a07
    59f8:	be 40 80 11 00       	mov    esi,0x118040
    59fd:	bf 2c 74 11 00       	mov    edi,0x11742c
    5a02:	e8 f0 b9 ff ff       	call   0x13f7
    5a07:	90                   	nop
    5a08:	c9                   	leave  
    5a09:	c3                   	ret    
0x0000000000115a0a: thread_gen
    5a0a:	55                   	push   rbp
    5a0b:	48 89 e5             	mov    rbp,rsp
    5a0e:	48 83 ec 70          	sub    rsp,0x70
    5a12:	48 89 7d b8          	mov    QWORD PTR [rbp-0x48],rdi
    5a16:	48 89 75 b0          	mov    QWORD PTR [rbp-0x50],rsi
    5a1a:	48 89 55 a8          	mov    QWORD PTR [rbp-0x58],rdx
    5a1e:	89 4d a4             	mov    DWORD PTR [rbp-0x5c],ecx
    5a21:	4c 89 45 98          	mov    QWORD PTR [rbp-0x68],r8
    5a25:	48 8b 45 b0          	mov    rax,QWORD PTR [rbp-0x50]
    5a29:	48 89 45 c8          	mov    QWORD PTR [rbp-0x38],rax
    5a2d:	48 8b 45 b0          	mov    rax,QWORD PTR [rbp-0x50]
    5a31:	48 05 00 80 00 00    	add    rax,0x8000
    5a37:	48 89 45 d0          	mov    QWORD PTR [rbp-0x30],rax
    5a3b:	48 8b 45 a8          	mov    rax,QWORD PTR [rbp-0x58]
    5a3f:	48 89 45 d8          	mov    QWORD PTR [rbp-0x28],rax
    5a43:	48 8b 45 a8          	mov    rax,QWORD PTR [rbp-0x58]
    5a47:	48 89 45 e0          	mov    QWORD PTR [rbp-0x20],rax
    5a4b:	8b 45 a4             	mov    eax,DWORD PTR [rbp-0x5c]
    5a4e:	89 45 e8             	mov    DWORD PTR [rbp-0x18],eax
    5a51:	48 8b 45 98          	mov    rax,QWORD PTR [rbp-0x68]
    5a55:	48 89 45 f0          	mov    QWORD PTR [rbp-0x10],rax
    5a59:	48 8b 55 a8          	mov    rdx,QWORD PTR [rbp-0x58]
    5a5d:	48 8b 45 d0          	mov    rax,QWORD PTR [rbp-0x30]
    5a61:	48 89 d6             	mov    rsi,rdx
    5a64:	48 89 c7             	mov    rdi,rax
    5a67:	e8 f4 03 00 00       	call   0x5e60
    5a6c:	48 89 45 d0          	mov    QWORD PTR [rbp-0x30],rax
    5a70:	bf 40 74 11 00       	mov    edi,0x117440
    5a75:	e8 89 e8 ff ff       	call   0x4303
    5a7a:	48 8b 45 c8          	mov    rax,QWORD PTR [rbp-0x38]
    5a7e:	48 05 00 10 00 00    	add    rax,0x1000
    5a84:	48 89 c7             	mov    rdi,rax
    5a87:	e8 ca e8 ff ff       	call   0x4356
    5a8c:	bf 56 74 11 00       	mov    edi,0x117456
    5a91:	e8 6d e8 ff ff       	call   0x4303
    5a96:	bf 58 74 11 00       	mov    edi,0x117458
    5a9b:	e8 63 e8 ff ff       	call   0x4303
    5aa0:	48 8b 45 d0          	mov    rax,QWORD PTR [rbp-0x30]
    5aa4:	48 89 c7             	mov    rdi,rax
    5aa7:	e8 aa e8 ff ff       	call   0x4356
    5aac:	bf 56 74 11 00       	mov    edi,0x117456
    5ab1:	e8 4d e8 ff ff       	call   0x4303
    5ab6:	48 8b 45 b8          	mov    rax,QWORD PTR [rbp-0x48]
    5aba:	48 8b 55 c8          	mov    rdx,QWORD PTR [rbp-0x38]
    5abe:	48 89 10             	mov    QWORD PTR [rax],rdx
    5ac1:	48 8b 55 d0          	mov    rdx,QWORD PTR [rbp-0x30]
    5ac5:	48 89 50 08          	mov    QWORD PTR [rax+0x8],rdx
    5ac9:	48 8b 55 d8          	mov    rdx,QWORD PTR [rbp-0x28]
    5acd:	48 89 50 10          	mov    QWORD PTR [rax+0x10],rdx
    5ad1:	48 8b 55 e0          	mov    rdx,QWORD PTR [rbp-0x20]
    5ad5:	48 89 50 18          	mov    QWORD PTR [rax+0x18],rdx
    5ad9:	48 8b 55 e8          	mov    rdx,QWORD PTR [rbp-0x18]
    5add:	48 89 50 20          	mov    QWORD PTR [rax+0x20],rdx
    5ae1:	48 8b 55 f0          	mov    rdx,QWORD PTR [rbp-0x10]
    5ae5:	48 89 50 28          	mov    QWORD PTR [rax+0x28],rdx
    5ae9:	48 8b 55 f8          	mov    rdx,QWORD PTR [rbp-0x8]
    5aed:	48 89 50 30          	mov    QWORD PTR [rax+0x30],rdx
    5af1:	48 8b 45 b8          	mov    rax,QWORD PTR [rbp-0x48]
    5af5:	c9                   	leave  
    5af6:	c3                   	ret    
0x0000000000115af7: thread_run
    5af7:	55                   	push   rbp
    5af8:	48 89 e5             	mov    rbp,rsp
    5afb:	48 83 ec 10          	sub    rsp,0x10
    5aff:	c7 45 fc 00 00 00 00 	mov    DWORD PTR [rbp-0x4],0x0
    5b06:	e9 98 00 00 00       	jmp    0x5ba3
    5b0b:	8b 45 fc             	mov    eax,DWORD PTR [rbp-0x4]
    5b0e:	48 63 d0             	movsxd rdx,eax
    5b11:	48 89 d0             	mov    rax,rdx
    5b14:	48 c1 e0 03          	shl    rax,0x3
    5b18:	48 29 d0             	sub    rax,rdx
    5b1b:	48 c1 e0 03          	shl    rax,0x3
    5b1f:	48 05 30 81 11 00    	add    rax,0x118130
    5b25:	8b 00                	mov    eax,DWORD PTR [rax]
    5b27:	83 f8 02             	cmp    eax,0x2
    5b2a:	75 73                	jne    0x5b9f
    5b2c:	8b 45 fc             	mov    eax,DWORD PTR [rbp-0x4]
    5b2f:	48 63 d0             	movsxd rdx,eax
    5b32:	48 89 d0             	mov    rax,rdx
    5b35:	48 c1 e0 03          	shl    rax,0x3
    5b39:	48 29 d0             	sub    rax,rdx
    5b3c:	48 c1 e0 03          	shl    rax,0x3
    5b40:	48 05 00 81 11 00    	add    rax,0x118100
    5b46:	48 8b 55 10          	mov    rdx,QWORD PTR [rbp+0x10]
    5b4a:	48 89 10             	mov    QWORD PTR [rax],rdx
    5b4d:	48 8b 55 18          	mov    rdx,QWORD PTR [rbp+0x18]
    5b51:	48 89 50 08          	mov    QWORD PTR [rax+0x8],rdx
    5b55:	48 8b 55 20          	mov    rdx,QWORD PTR [rbp+0x20]
    5b59:	48 89 50 10          	mov    QWORD PTR [rax+0x10],rdx
    5b5d:	48 8b 55 28          	mov    rdx,QWORD PTR [rbp+0x28]
    5b61:	48 89 50 18          	mov    QWORD PTR [rax+0x18],rdx
    5b65:	48 8b 55 30          	mov    rdx,QWORD PTR [rbp+0x30]
    5b69:	48 89 50 20          	mov    QWORD PTR [rax+0x20],rdx
    5b6d:	48 8b 55 38          	mov    rdx,QWORD PTR [rbp+0x38]
    5b71:	48 89 50 28          	mov    QWORD PTR [rax+0x28],rdx
    5b75:	48 8b 55 40          	mov    rdx,QWORD PTR [rbp+0x40]
    5b79:	48 89 50 30          	mov    QWORD PTR [rax+0x30],rdx
    5b7d:	8b 45 fc             	mov    eax,DWORD PTR [rbp-0x4]
    5b80:	48 63 d0             	movsxd rdx,eax
    5b83:	48 89 d0             	mov    rax,rdx
    5b86:	48 c1 e0 03          	shl    rax,0x3
    5b8a:	48 29 d0             	sub    rax,rdx
    5b8d:	48 c1 e0 03          	shl    rax,0x3
    5b91:	48 05 30 81 11 00    	add    rax,0x118130
    5b97:	c7 00 00 00 00 00    	mov    DWORD PTR [rax],0x0
    5b9d:	eb 0e                	jmp    0x5bad
    5b9f:	83 45 fc 01          	add    DWORD PTR [rbp-0x4],0x1
    5ba3:	83 7d fc 03          	cmp    DWORD PTR [rbp-0x4],0x3
    5ba7:	0f 8e 5e ff ff ff    	jle    0x5b0b
    5bad:	90                   	nop
    5bae:	c9                   	leave  
    5baf:	c3                   	ret    
0x0000000000115bb0: thread_end
    5bb0:	55                   	push   rbp
    5bb1:	48 89 e5             	mov    rbp,rsp
    5bb4:	48 83 ec 08          	sub    rsp,0x8
    5bb8:	89 7d fc             	mov    DWORD PTR [rbp-0x4],edi
    5bbb:	8b 45 fc             	mov    eax,DWORD PTR [rbp-0x4]
    5bbe:	48 63 d0             	movsxd rdx,eax
    5bc1:	48 89 d0             	mov    rax,rdx
    5bc4:	48 c1 e0 03          	shl    rax,0x3
    5bc8:	48 29 d0             	sub    rax,rdx
    5bcb:	48 c1 e0 03          	shl    rax,0x3
    5bcf:	48 05 30 81 11 00    	add    rax,0x118130
    5bd5:	c7 00 02 00 00 00    	mov    DWORD PTR [rax],0x2
    5bdb:	90                   	nop
    5bdc:	c9                   	leave  
    5bdd:	c3                   	ret    
0x0000000000115bde: threads_init
    5bde:	55                   	push   rbp
    5bdf:	48 89 e5             	mov    rbp,rsp
    5be2:	48 83 ec 40          	sub    rsp,0x40
    5be6:	48 c7 45 c0 00 00 00 	mov    QWORD PTR [rbp-0x40],0x0
    5bed:	00 
    5bee:	c7 45 f0 02 00 00 00 	mov    DWORD PTR [rbp-0x10],0x2
    5bf5:	c7 45 fc 00 00 00 00 	mov    DWORD PTR [rbp-0x4],0x0
    5bfc:	eb 55                	jmp    0x5c53
    5bfe:	8b 45 fc             	mov    eax,DWORD PTR [rbp-0x4]
    5c01:	48 63 d0             	movsxd rdx,eax
    5c04:	48 89 d0             	mov    rax,rdx
    5c07:	48 c1 e0 03          	shl    rax,0x3
    5c0b:	48 29 d0             	sub    rax,rdx
    5c0e:	48 c1 e0 03          	shl    rax,0x3
    5c12:	48 05 00 81 11 00    	add    rax,0x118100
    5c18:	48 8b 55 c0          	mov    rdx,QWORD PTR [rbp-0x40]
    5c1c:	48 89 10             	mov    QWORD PTR [rax],rdx
    5c1f:	48 8b 55 c8          	mov    rdx,QWORD PTR [rbp-0x38]
    5c23:	48 89 50 08          	mov    QWORD PTR [rax+0x8],rdx
    5c27:	48 8b 55 d0          	mov    rdx,QWORD PTR [rbp-0x30]
    5c2b:	48 89 50 10          	mov    QWORD PTR [rax+0x10],rdx
    5c2f:	48 8b 55 d8          	mov    rdx,QWORD PTR [rbp-0x28]
    5c33:	48 89 50 18          	mov    QWORD PTR [rax+0x18],rdx
    5c37:	48 8b 55 e0          	mov    rdx,QWORD PTR [rbp-0x20]
    5c3b:	48 89 50 20          	mov    QWORD PTR [rax+0x20],rdx
    5c3f:	48 8b 55 e8          	mov    rdx,QWORD PTR [rbp-0x18]
    5c43:	48 89 50 28          	mov    QWORD PTR [rax+0x28],rdx
    5c47:	48 8b 55 f0          	mov    rdx,QWORD PTR [rbp-0x10]
    5c4b:	48 89 50 30          	mov    QWORD PTR [rax+0x30],rdx
    5c4f:	83 45 fc 01          	add    DWORD PTR [rbp-0x4],0x1
    5c53:	83 7d fc 03          	cmp    DWORD PTR [rbp-0x4],0x3
    5c57:	7e a5                	jle    0x5bfe
    5c59:	90                   	nop
    5c5a:	c9                   	leave  
    5c5b:	c3                   	ret    
0x0000000000115c5c: schedule_period_init
    5c5c:	55                   	push   rbp
    5c5d:	48 89 e5             	mov    rbp,rsp
    5c60:	48 83 ec 08          	sub    rsp,0x8
    5c64:	48 89 7d f8          	mov    QWORD PTR [rbp-0x8],rdi
    5c68:	48 8b 45 f8          	mov    rax,QWORD PTR [rbp-0x8]
    5c6c:	48 89 05 8d 25 03 00 	mov    QWORD PTR [rip+0x3258d],rax        # 0x38200
    5c73:	90                   	nop
    5c74:	c9                   	leave  
    5c75:	c3                   	ret    
0x0000000000115c76: thread_scheduler
    5c76:	55                   	push   rbp
    5c77:	48 89 e5             	mov    rbp,rsp
    5c7a:	48 83 ec 20          	sub    rsp,0x20
    5c7e:	48 89 7d e8          	mov    QWORD PTR [rbp-0x18],rdi
    5c82:	8b 05 58 25 00 00    	mov    eax,DWORD PTR [rip+0x2558]        # 0x81e0
    5c88:	89 45 fc             	mov    DWORD PTR [rbp-0x4],eax
    5c8b:	8b 05 4f 25 00 00    	mov    eax,DWORD PTR [rip+0x254f]        # 0x81e0
    5c91:	8d 50 01             	lea    edx,[rax+0x1]
    5c94:	89 d0                	mov    eax,edx
    5c96:	c1 f8 1f             	sar    eax,0x1f
    5c99:	c1 e8 1e             	shr    eax,0x1e
    5c9c:	01 c2                	add    edx,eax
    5c9e:	83 e2 03             	and    edx,0x3
    5ca1:	29 c2                	sub    edx,eax
    5ca3:	89 d0                	mov    eax,edx
    5ca5:	89 05 35 25 00 00    	mov    DWORD PTR [rip+0x2535],eax        # 0x81e0
    5cab:	bf 65 74 11 00       	mov    edi,0x117465
    5cb0:	e8 4e e6 ff ff       	call   0x4303
    5cb5:	48 8b 45 e8          	mov    rax,QWORD PTR [rbp-0x18]
    5cb9:	48 89 c7             	mov    rdi,rax
    5cbc:	e8 95 e6 ff ff       	call   0x4356
    5cc1:	bf 56 74 11 00       	mov    edi,0x117456
    5cc6:	e8 38 e6 ff ff       	call   0x4303
    5ccb:	8b 45 fc             	mov    eax,DWORD PTR [rbp-0x4]
    5cce:	48 63 d0             	movsxd rdx,eax
    5cd1:	48 89 d0             	mov    rax,rdx
    5cd4:	48 c1 e0 03          	shl    rax,0x3
    5cd8:	48 29 d0             	sub    rax,rdx
    5cdb:	48 c1 e0 03          	shl    rax,0x3
    5cdf:	48 8d 90 10 81 11 00 	lea    rdx,[rax+0x118110]
    5ce6:	48 8b 45 e8          	mov    rax,QWORD PTR [rbp-0x18]
    5cea:	48 89 02             	mov    QWORD PTR [rdx],rax
    5ced:	bf 80 74 11 00       	mov    edi,0x117480
    5cf2:	e8 0c e6 ff ff       	call   0x4303
    5cf7:	8b 45 fc             	mov    eax,DWORD PTR [rbp-0x4]
    5cfa:	48 63 d0             	movsxd rdx,eax
    5cfd:	48 89 d0             	mov    rax,rdx
    5d00:	48 c1 e0 03          	shl    rax,0x3
    5d04:	48 29 d0             	sub    rax,rdx
    5d07:	48 c1 e0 03          	shl    rax,0x3
    5d0b:	48 05 10 81 11 00    	add    rax,0x118110
    5d11:	48 8b 00             	mov    rax,QWORD PTR [rax]
    5d14:	48 89 c7             	mov    rdi,rax
    5d17:	e8 3a e6 ff ff       	call   0x4356
    5d1c:	bf 56 74 11 00       	mov    edi,0x117456
    5d21:	e8 dd e5 ff ff       	call   0x4303
    5d26:	bf a0 74 11 00       	mov    edi,0x1174a0
    5d2b:	e8 d3 e5 ff ff       	call   0x4303
    5d30:	8b 05 aa 24 00 00    	mov    eax,DWORD PTR [rip+0x24aa]        # 0x81e0
    5d36:	48 98                	cdqe   
    5d38:	48 89 c7             	mov    rdi,rax
    5d3b:	e8 16 e6 ff ff       	call   0x4356
    5d40:	bf 56 74 11 00       	mov    edi,0x117456
    5d45:	e8 b9 e5 ff ff       	call   0x4303
    5d4a:	bf b4 74 11 00       	mov    edi,0x1174b4
    5d4f:	e8 af e5 ff ff       	call   0x4303
    5d54:	8b 05 86 24 00 00    	mov    eax,DWORD PTR [rip+0x2486]        # 0x81e0
    5d5a:	48 63 d0             	movsxd rdx,eax
    5d5d:	48 89 d0             	mov    rax,rdx
    5d60:	48 c1 e0 03          	shl    rax,0x3
    5d64:	48 29 d0             	sub    rax,rdx
    5d67:	48 c1 e0 03          	shl    rax,0x3
    5d6b:	48 05 08 81 11 00    	add    rax,0x118108
    5d71:	48 8b 00             	mov    rax,QWORD PTR [rax]
    5d74:	48 89 c7             	mov    rdi,rax
    5d77:	e8 da e5 ff ff       	call   0x4356
    5d7c:	bf 56 74 11 00       	mov    edi,0x117456
    5d81:	e8 7d e5 ff ff       	call   0x4303
    5d86:	bf c5 74 11 00       	mov    edi,0x1174c5
    5d8b:	e8 73 e5 ff ff       	call   0x4303
    5d90:	8b 05 4a 24 00 00    	mov    eax,DWORD PTR [rip+0x244a]        # 0x81e0
    5d96:	48 63 d0             	movsxd rdx,eax
    5d99:	48 89 d0             	mov    rax,rdx
    5d9c:	48 c1 e0 03          	shl    rax,0x3
    5da0:	48 29 d0             	sub    rax,rdx
    5da3:	48 c1 e0 03          	shl    rax,0x3
    5da7:	48 05 18 81 11 00    	add    rax,0x118118
    5dad:	48 8b 00             	mov    rax,QWORD PTR [rax]
    5db0:	48 89 c7             	mov    rdi,rax
    5db3:	e8 9e e5 ff ff       	call   0x4356
    5db8:	bf 56 74 11 00       	mov    edi,0x117456
    5dbd:	e8 41 e5 ff ff       	call   0x4303
    5dc2:	bf df 74 11 00       	mov    edi,0x1174df
    5dc7:	e8 37 e5 ff ff       	call   0x4303
    5dcc:	8b 05 0e 24 00 00    	mov    eax,DWORD PTR [rip+0x240e]        # 0x81e0
    5dd2:	48 63 d0             	movsxd rdx,eax
    5dd5:	48 89 d0             	mov    rax,rdx
    5dd8:	48 c1 e0 03          	shl    rax,0x3
    5ddc:	48 29 d0             	sub    rax,rdx
    5ddf:	48 c1 e0 03          	shl    rax,0x3
    5de3:	48 05 10 81 11 00    	add    rax,0x118110
    5de9:	48 8b 00             	mov    rax,QWORD PTR [rax]
    5dec:	48 89 c7             	mov    rdi,rax
    5def:	e8 62 e5 ff ff       	call   0x4356
    5df4:	bf f1 74 11 00       	mov    edi,0x1174f1
    5df9:	e8 05 e5 ff ff       	call   0x4303
    5dfe:	bf f4 74 11 00       	mov    edi,0x1174f4
    5e03:	e8 fb e4 ff ff       	call   0x4303
    5e08:	8b 05 d2 23 00 00    	mov    eax,DWORD PTR [rip+0x23d2]        # 0x81e0
    5e0e:	48 63 d0             	movsxd rdx,eax
    5e11:	48 89 d0             	mov    rax,rdx
    5e14:	48 c1 e0 03          	shl    rax,0x3
    5e18:	48 29 d0             	sub    rax,rdx
    5e1b:	48 c1 e0 03          	shl    rax,0x3
    5e1f:	48 05 08 81 11 00    	add    rax,0x118108
    5e25:	48 8b 08             	mov    rcx,QWORD PTR [rax]
    5e28:	8b 45 fc             	mov    eax,DWORD PTR [rbp-0x4]
    5e2b:	48 63 d0             	movsxd rdx,eax
    5e2e:	48 89 d0             	mov    rax,rdx
    5e31:	48 c1 e0 03          	shl    rax,0x3
    5e35:	48 29 d0             	sub    rax,rdx
    5e38:	48 c1 e0 03          	shl    rax,0x3
    5e3c:	48 05 00 81 11 00    	add    rax,0x118100
    5e42:	48 83 c0 08          	add    rax,0x8
    5e46:	48 89 ce             	mov    rsi,rcx
    5e49:	48 89 c7             	mov    rdi,rax
    5e4c:	e8 3f 00 00 00       	call   0x5e90
    5e51:	90                   	nop
    5e52:	c9                   	leave  
    5e53:	c3                   	ret    
    5e54:	66 2e 0f 1f 84 00 00 	nop    WORD PTR cs:[rax+rax*1+0x0]
    5e5b:	00 00 00 
    5e5e:	66 90                	xchg   ax,ax
0x0000000000115e60: init_stack
    5e60:	fa                   	cli    
    5e61:	48 89 e1             	mov    rcx,rsp
    5e64:	48 89 fc             	mov    rsp,rdi
    5e67:	56                   	push   rsi
    5e68:	6a 00                	push   0x0
    5e6a:	6a 00                	push   0x0
    5e6c:	6a 00                	push   0x0
    5e6e:	6a 00                	push   0x0
    5e70:	6a 00                	push   0x0
    5e72:	6a 00                	push   0x0
    5e74:	6a 00                	push   0x0
    5e76:	6a 00                	push   0x0
    5e78:	6a 00                	push   0x0
    5e7a:	6a 00                	push   0x0
    5e7c:	48 89 e0             	mov    rax,rsp
    5e7f:	48 89 cc             	mov    rsp,rcx
    5e82:	fb                   	sti    
    5e83:	c3                   	ret    
    5e84:	66 90                	xchg   ax,ax
    5e86:	66 2e 0f 1f 84 00 00 	nop    WORD PTR cs:[rax+rax*1+0x0]
    5e8d:	00 00 00 
0x0000000000115e90: switch_context
    5e90:	55                   	push   rbp
    5e91:	41 53                	push   r11
    5e93:	41 52                	push   r10
    5e95:	41 51                	push   r9
    5e97:	41 50                	push   r8
    5e99:	57                   	push   rdi
    5e9a:	56                   	push   rsi
    5e9b:	52                   	push   rdx
    5e9c:	51                   	push   rcx
    5e9d:	50                   	push   rax
    5e9e:	48 89 27             	mov    QWORD PTR [rdi],rsp
    5ea1:	48 89 f4             	mov    rsp,rsi
    5ea4:	58                   	pop    rax
    5ea5:	59                   	pop    rcx
    5ea6:	5a                   	pop    rdx
    5ea7:	5e                   	pop    rsi
    5ea8:	5f                   	pop    rdi
    5ea9:	41 58                	pop    r8
    5eab:	41 59                	pop    r9
    5ead:	41 5a                	pop    r10
    5eaf:	41 5b                	pop    r11
    5eb1:	5d                   	pop    rbp
    5eb2:	c3                   	ret    
    5eb3:	0f 1f 44 00 00       	nop    DWORD PTR [rax+rax*1+0x0]
    5eb8:	43 52                	rex.XB push r10
    5eba:	33 3a                	xor    edi,DWORD PTR [rdx]
    5ebc:	20 00                	and    BYTE PTR [rax],al
    5ebe:	43 52                	rex.XB push r10
    5ec0:	34 3a                	xor    al,0x3a
    5ec2:	20 00                	and    BYTE PTR [rax],al
    5ec4:	45                   	rex.RB
    5ec5:	46                   	rex.RX
    5ec6:	45 52                	rex.RB push r10
    5ec8:	3a 20                	cmp    ah,BYTE PTR [rax]
    5eca:	00 00                	add    BYTE PTR [rax],al
    5ecc:	00 00                	add    BYTE PTR [rax],al
    5ece:	00 00                	add    BYTE PTR [rax],al
    5ed0:	6d                   	ins    DWORD PTR es:[rdi],dx
    5ed1:	69 6e 4f 53 20 2d 20 	imul   ebp,DWORD PTR [rsi+0x4f],0x202d2053
    5ed8:	41 20 4d 69          	and    BYTE PTR [r13+0x69],cl
    5edc:	6e                   	outs   dx,BYTE PTR ds:[rsi]
    5edd:	69 6d 61 6c 20 4f 70 	imul   ebp,DWORD PTR [rbp+0x61],0x704f206c
    5ee4:	65 72 61             	gs jb  0x5f48
    5ee7:	74 69                	je     0x5f52
    5ee9:	6e                   	outs   dx,BYTE PTR ds:[rsi]
    5eea:	67 20 53 79          	and    BYTE PTR [ebx+0x79],dl
    5eee:	73 74                	jae    0x5f64
    5ef0:	65 6d                	gs ins DWORD PTR es:[rdi],dx
    5ef2:	2e 00 00             	add    BYTE PTR cs:[rax],al
    5ef5:	00 00                	add    BYTE PTR [rax],al
    5ef7:	00 44 65 76          	add    BYTE PTR [rbp+riz*2+0x76],al
    5efb:	65 6c                	gs ins BYTE PTR es:[rdi],dx
    5efd:	6f                   	outs   dx,DWORD PTR ds:[rsi]
    5efe:	70 65                	jo     0x5f65
    5f00:	72 20                	jb     0x5f22
    5f02:	3a 20                	cmp    ah,BYTE PTR [rax]
    5f04:	54                   	push   rsp
    5f05:	6f                   	outs   dx,DWORD PTR ds:[rsi]
    5f06:	74 73                	je     0x5f7b
    5f08:	75 67                	jne    0x5f71
    5f0a:	65 6b 69 74 61       	imul   ebp,DWORD PTR gs:[rcx+0x74],0x61
    5f0f:	69 28 40 74 6f 74    	imul   ebp,DWORD PTR [rax],0x746f7440
    5f15:	73 75                	jae    0x5f8c
    5f17:	67 65 6b 69 38 29    	imul   ebp,DWORD PTR gs:[ecx+0x38],0x29
    5f1d:	00 70 65             	add    BYTE PTR [rax+0x65],dh
    5f20:	72 69                	jb     0x5f8b
    5f22:	6f                   	outs   dx,DWORD PTR ds:[rsi]
    5f23:	64 20 69 6e          	and    BYTE PTR fs:[rcx+0x6e],ch
    5f27:	69 74 3a 20 00 0a 00 	imul   esi,DWORD PTR [rdx+rdi*1+0x20],0x74000a00
    5f2e:	74 
    5f2f:	68 72 65 61 64       	push   0x64616572
    5f34:	73 20                	jae    0x5f56
    5f36:	72 75                	jb     0x5fad
    5f38:	6e                   	outs   dx,BYTE PTR ds:[rsi]
    5f39:	0a 0a                	or     cl,BYTE PTR [rdx]
    5f3b:	00 6e 65             	add    BYTE PTR [rsi+0x65],ch
    5f3e:	78 74                	js     0x5fb4
    5f40:	20 73 74             	and    BYTE PTR [rbx+0x74],dh
    5f43:	61                   	(bad)  
    5f44:	72 74                	jb     0x5fba
    5f46:	20 72 73             	and    BYTE PTR [rdx+0x73],dh
    5f49:	70 3a                	jo     0x5f85
    5f4b:	20 00                	and    BYTE PTR [rax],al
    5f4d:	6e                   	outs   dx,BYTE PTR ds:[rsi]
    5f4e:	65 78 74             	gs js  0x5fc5
    5f51:	20 73 74             	and    BYTE PTR [rbx+0x74],dh
    5f54:	61                   	(bad)  
    5f55:	72 74                	jb     0x5fcb
    5f57:	20 66 75             	and    BYTE PTR [rsi+0x75],ah
    5f5a:	6e                   	outs   dx,BYTE PTR ds:[rsi]
    5f5b:	63 20                	movsxd esp,DWORD PTR [rax]
    5f5d:	61                   	(bad)  
    5f5e:	64 64 72 65          	fs fs jb 0x5fc7
    5f62:	73 73                	jae    0x5fd7
    5f64:	3a 20                	cmp    ah,BYTE PTR [rax]
    5f66:	00 6e 65             	add    BYTE PTR [rsi+0x65],ch
    5f69:	78 74                	js     0x5fdf
    5f6b:	20 74 68 72          	and    BYTE PTR [rax+rbp*2+0x72],dh
    5f6f:	65 61                	gs (bad) 
    5f71:	64 20 72 69          	and    BYTE PTR fs:[rdx+0x69],dh
    5f75:	70 3a                	jo     0x5fb1
    5f77:	20 00                	and    BYTE PTR [rax],al
    5f79:	0a 0a                	or     cl,BYTE PTR [rdx]
    5f7b:	00 66 69             	add    BYTE PTR [rsi+0x69],ah
    5f7e:	72 73                	jb     0x5ff3
    5f80:	74 20                	je     0x5fa2
    5f82:	64 69 73 70 61 74 63 	imul   esi,DWORD PTR fs:[rbx+0x70],0x68637461
    5f89:	68 
    5f8a:	20 73 74             	and    BYTE PTR [rbx+0x74],dh
    5f8d:	61                   	(bad)  
    5f8e:	72 74                	jb     0x6004
    5f90:	0a 0a                	or     cl,BYTE PTR [rdx]
    5f92:	00 6b 65             	add    BYTE PTR [rbx+0x65],ch
    5f95:	72 6e                	jb     0x6005
    5f97:	65 6c                	gs ins BYTE PTR es:[rdi],dx
    5f99:	20 65 6e             	and    BYTE PTR [rbp+0x6e],ah
    5f9c:	64 2e 0a 00          	fs or  al,BYTE PTR cs:[rax]
    5fa0:	0a 00                	or     al,BYTE PTR [rax]
    5fa2:	23 44 45 20          	and    eax,DWORD PTR [rbp+rax*2+0x20]
    5fa6:	45 52                	rex.RB push r10
    5fa8:	52                   	push   rdx
    5fa9:	4f 52                	rex.WRXB push r10
    5fab:	0a 00                	or     al,BYTE PTR [rax]
    5fad:	52                   	push   rdx
    5fae:	49 50                	rex.WB push r8
    5fb0:	3a 20                	cmp    ah,BYTE PTR [rax]
    5fb2:	00 0a                	add    BYTE PTR [rdx],cl
    5fb4:	00 43 53             	add    BYTE PTR [rbx+0x53],al
    5fb7:	3a 20                	cmp    ah,BYTE PTR [rax]
    5fb9:	00 52 46             	add    BYTE PTR [rdx+0x46],dl
    5fbc:	4c                   	rex.WR
    5fbd:	41                   	rex.B
    5fbe:	47 53                	rex.RXB push r11
    5fc0:	3a 20                	cmp    ah,BYTE PTR [rax]
    5fc2:	00 52 53             	add    BYTE PTR [rdx+0x53],dl
    5fc5:	50                   	push   rax
    5fc6:	3a 20                	cmp    ah,BYTE PTR [rax]
    5fc8:	00 53 53             	add    BYTE PTR [rbx+0x53],dl
    5fcb:	3a 20                	cmp    ah,BYTE PTR [rax]
    5fcd:	00 0a                	add    BYTE PTR [rdx],cl
    5fcf:	0a 00                	or     al,BYTE PTR [rax]
    5fd1:	23 44 45 00          	and    eax,DWORD PTR [rbp+rax*2+0x0]
    5fd5:	23 44 42 20          	and    eax,DWORD PTR [rdx+rax*2+0x20]
    5fd9:	45 52                	rex.RB push r10
    5fdb:	52                   	push   rdx
    5fdc:	4f 52                	rex.WRXB push r10
    5fde:	0a 00                	or     al,BYTE PTR [rax]
    5fe0:	23 44 42 00          	and    eax,DWORD PTR [rdx+rax*2+0x0]
    5fe4:	4e                   	rex.WRX
    5fe5:	4d                   	rex.WRB
    5fe6:	49 20 49 4e          	rex.WB and BYTE PTR [r9+0x4e],cl
    5fea:	54                   	push   rsp
    5feb:	45 52                	rex.RB push r10
    5fed:	52                   	push   rdx
    5fee:	55                   	push   rbp
    5fef:	50                   	push   rax
    5ff0:	54                   	push   rsp
    5ff1:	0a 00                	or     al,BYTE PTR [rax]
    5ff3:	4e                   	rex.WRX
    5ff4:	4d                   	rex.WRB
    5ff5:	49 00 23             	rex.WB add BYTE PTR [r11],spl
    5ff8:	42 50                	rex.X push rax
    5ffa:	20 44 45 42          	and    BYTE PTR [rbp+rax*2+0x42],al
    5ffe:	55                   	push   rbp
    5fff:	47                   	rex.RXB
    6000:	47                   	rex.RXB
    6001:	49                   	rex.WB
    6002:	4e                   	rex.WRX
    6003:	47 0a 00             	rex.RXB or r8b,BYTE PTR [r8]
    6006:	72 61                	jb     0x6069
    6008:	78 3a                	js     0x6044
    600a:	20 00                	and    BYTE PTR [rax],al
    600c:	72 62                	jb     0x6070
    600e:	78 3a                	js     0x604a
    6010:	20 00                	and    BYTE PTR [rax],al
    6012:	72 63                	jb     0x6077
    6014:	78 3a                	js     0x6050
    6016:	20 00                	and    BYTE PTR [rax],al
    6018:	72 64                	jb     0x607e
    601a:	78 3a                	js     0x6056
    601c:	20 00                	and    BYTE PTR [rax],al
    601e:	72 73                	jb     0x6093
    6020:	69 3a 20 00 72 64    	imul   edi,DWORD PTR [rdx],0x64720020
    6026:	69 3a 20 00 72 73    	imul   edi,DWORD PTR [rdx],0x73720020
    602c:	70 3a                	jo     0x6068
    602e:	20 00                	and    BYTE PTR [rax],al
    6030:	72 62                	jb     0x6094
    6032:	70 3a                	jo     0x606e
    6034:	20 00                	and    BYTE PTR [rax],al
    6036:	72 38                	jb     0x6070
    6038:	3a 20                	cmp    ah,BYTE PTR [rax]
    603a:	00 72 39             	add    BYTE PTR [rdx+0x39],dh
    603d:	3a 20                	cmp    ah,BYTE PTR [rax]
    603f:	00 72 31             	add    BYTE PTR [rdx+0x31],dh
    6042:	30 3a                	xor    BYTE PTR [rdx],bh
    6044:	20 00                	and    BYTE PTR [rax],al
    6046:	72 31                	jb     0x6079
    6048:	31 3a                	xor    DWORD PTR [rdx],edi
    604a:	20 00                	and    BYTE PTR [rax],al
    604c:	72 31                	jb     0x607f
    604e:	32 3a                	xor    bh,BYTE PTR [rdx]
    6050:	20 00                	and    BYTE PTR [rax],al
    6052:	72 31                	jb     0x6085
    6054:	33 3a                	xor    edi,DWORD PTR [rdx]
    6056:	20 00                	and    BYTE PTR [rax],al
    6058:	72 31                	jb     0x608b
    605a:	34 3a                	xor    al,0x3a
    605c:	20 00                	and    BYTE PTR [rax],al
    605e:	72 31                	jb     0x6091
    6060:	35 3a 20 00 23       	xor    eax,0x2300203a
    6065:	42 50                	rex.X push rax
    6067:	00 23                	add    BYTE PTR [rbx],ah
    6069:	4f                   	rex.WRXB
    606a:	46 20 45 52          	rex.RX and BYTE PTR [rbp+0x52],r8b
    606e:	52                   	push   rdx
    606f:	4f 52                	rex.WRXB push r10
    6071:	0a 00                	or     al,BYTE PTR [rax]
    6073:	23 4f 46             	and    ecx,DWORD PTR [rdi+0x46]
    6076:	00 23                	add    BYTE PTR [rbx],ah
    6078:	42 52                	rex.X push rdx
    607a:	20 45 52             	and    BYTE PTR [rbp+0x52],al
    607d:	52                   	push   rdx
    607e:	4f 52                	rex.WRXB push r10
    6080:	0a 00                	or     al,BYTE PTR [rax]
    6082:	23 42 52             	and    eax,DWORD PTR [rdx+0x52]
    6085:	00 23                	add    BYTE PTR [rbx],ah
    6087:	55                   	push   rbp
    6088:	44 20 45 52          	and    BYTE PTR [rbp+0x52],r8b
    608c:	52                   	push   rdx
    608d:	4f 52                	rex.WRXB push r10
    608f:	0a 00                	or     al,BYTE PTR [rax]
    6091:	23 55 44             	and    edx,DWORD PTR [rbp+0x44]
    6094:	00 23                	add    BYTE PTR [rbx],ah
    6096:	4e                   	rex.WRX
    6097:	4d 20 45 52          	rex.WRB and BYTE PTR [r13+0x52],r8b
    609b:	52                   	push   rdx
    609c:	4f 52                	rex.WRXB push r10
    609e:	0a 00                	or     al,BYTE PTR [rax]
    60a0:	23 4e 4d             	and    ecx,DWORD PTR [rsi+0x4d]
    60a3:	00 23                	add    BYTE PTR [rbx],ah
    60a5:	44                   	rex.R
    60a6:	46 20 45 52          	rex.RX and BYTE PTR [rbp+0x52],r8b
    60aa:	52                   	push   rdx
    60ab:	4f 52                	rex.WRXB push r10
    60ad:	20 43 4f             	and    BYTE PTR [rbx+0x4f],al
    60b0:	44                   	rex.R
    60b1:	45 20 3d 20 00 23 44 	and    BYTE PTR [rip+0x44230020],r15b        # 0x442360d8
    60b8:	46 00 23             	rex.RX add BYTE PTR [rbx],r12b
    60bb:	54                   	push   rsp
    60bc:	53                   	push   rbx
    60bd:	20 45 52             	and    BYTE PTR [rbp+0x52],al
    60c0:	52                   	push   rdx
    60c1:	4f 52                	rex.WRXB push r10
    60c3:	20 43 4f             	and    BYTE PTR [rbx+0x4f],al
    60c6:	44                   	rex.R
    60c7:	45 20 3d 20 00 23 54 	and    BYTE PTR [rip+0x54230020],r15b        # 0x542360ee
    60ce:	53                   	push   rbx
    60cf:	00 23                	add    BYTE PTR [rbx],ah
    60d1:	4e 50                	rex.WRX push rax
    60d3:	20 45 52             	and    BYTE PTR [rbp+0x52],al
    60d6:	52                   	push   rdx
    60d7:	4f 52                	rex.WRXB push r10
    60d9:	20 43 4f             	and    BYTE PTR [rbx+0x4f],al
    60dc:	44                   	rex.R
    60dd:	45 20 3d 20 00 23 4e 	and    BYTE PTR [rip+0x4e230020],r15b        # 0x4e236104
    60e4:	50                   	push   rax
    60e5:	00 23                	add    BYTE PTR [rbx],ah
    60e7:	53                   	push   rbx
    60e8:	53                   	push   rbx
    60e9:	20 45 52             	and    BYTE PTR [rbp+0x52],al
    60ec:	52                   	push   rdx
    60ed:	4f 52                	rex.WRXB push r10
    60ef:	20 43 4f             	and    BYTE PTR [rbx+0x4f],al
    60f2:	44                   	rex.R
    60f3:	45 20 3d 20 00 23 53 	and    BYTE PTR [rip+0x53230020],r15b        # 0x5323611a
    60fa:	53                   	push   rbx
    60fb:	00 23                	add    BYTE PTR [rbx],ah
    60fd:	47 50                	rex.RXB push r8
    60ff:	20 45 52             	and    BYTE PTR [rbp+0x52],al
    6102:	52                   	push   rdx
    6103:	4f 52                	rex.WRXB push r10
    6105:	20 43 4f             	and    BYTE PTR [rbx+0x4f],al
    6108:	44                   	rex.R
    6109:	45 20 3d 20 00 23 47 	and    BYTE PTR [rip+0x47230020],r15b        # 0x47236130
    6110:	50                   	push   rax
    6111:	00 23                	add    BYTE PTR [rbx],ah
    6113:	50                   	push   rax
    6114:	61                   	(bad)  
    6115:	67 65 20 66 61       	and    BYTE PTR gs:[esi+0x61],ah
    611a:	75 6c                	jne    0x6188
    611c:	74 0a                	je     0x6128
    611e:	00 23                	add    BYTE PTR [rbx],ah
    6120:	50                   	push   rax
    6121:	46 20 45 52          	rex.RX and BYTE PTR [rbp+0x52],r8b
    6125:	52                   	push   rdx
    6126:	4f 52                	rex.WRXB push r10
    6128:	20 43 4f             	and    BYTE PTR [rbx+0x4f],al
    612b:	44                   	rex.R
    612c:	45 20 3d 20 00 23 50 	and    BYTE PTR [rip+0x50230020],r15b        # 0x50236153
    6133:	46 00 23             	rex.RX add BYTE PTR [rbx],r12b
    6136:	4d                   	rex.WRB
    6137:	46 20 45 52          	rex.RX and BYTE PTR [rbp+0x52],r8b
    613b:	52                   	push   rdx
    613c:	4f 52                	rex.WRXB push r10
    613e:	0a 00                	or     al,BYTE PTR [rax]
    6140:	23 4d 46             	and    ecx,DWORD PTR [rbp+0x46]
    6143:	00 23                	add    BYTE PTR [rbx],ah
    6145:	41                   	rex.B
    6146:	43 20 45 52          	rex.XB and BYTE PTR [r13+0x52],al
    614a:	52                   	push   rdx
    614b:	4f 52                	rex.WRXB push r10
    614d:	20 43 4f             	and    BYTE PTR [rbx+0x4f],al
    6150:	44                   	rex.R
    6151:	45 20 3d 20 00 23 41 	and    BYTE PTR [rip+0x41230020],r15b        # 0x41236178
    6158:	43 00 23             	rex.XB add BYTE PTR [r11],spl
    615b:	4d                   	rex.WRB
    615c:	43 20 45 52          	rex.XB and BYTE PTR [r13+0x52],al
    6160:	52                   	push   rdx
    6161:	4f 52                	rex.WRXB push r10
    6163:	0a 00                	or     al,BYTE PTR [rax]
    6165:	23 4d 43             	and    ecx,DWORD PTR [rbp+0x43]
    6168:	00 23                	add    BYTE PTR [rbx],ah
    616a:	58                   	pop    rax
    616b:	4d 20 45 52          	rex.WRB and BYTE PTR [r13+0x52],r8b
    616f:	52                   	push   rdx
    6170:	4f 52                	rex.WRXB push r10
    6172:	0a 00                	or     al,BYTE PTR [rax]
    6174:	23 58 4d             	and    ebx,DWORD PTR [rax+0x4d]
    6177:	00 74 69 6d          	add    BYTE PTR [rcx+rbp*2+0x6d],dh
    617b:	65 72 5f             	gs jb  0x61dd
    617e:	68 61 6e 64 6c       	push   0x6c646e61
    6183:	65 72 20             	gs jb  0x61a6
    6186:	6f                   	outs   dx,DWORD PTR ds:[rsi]
    6187:	6c                   	ins    BYTE PTR es:[rdi],dx
    6188:	64 20 72 69          	and    BYTE PTR fs:[rdx+0x69],dh
    618c:	70 3a                	jo     0x61c8
    618e:	20 00                	and    BYTE PTR [rax],al
    6190:	0a 0a                	or     cl,BYTE PTR [rdx]
    6192:	00 6b 65             	add    BYTE PTR [rbx+0x65],ch
    6195:	79 62                	jns    0x61f9
    6197:	6f                   	outs   dx,DWORD PTR ds:[rsi]
    6198:	61                   	(bad)  
    6199:	72 64                	jb     0x61ff
    619b:	20 69 6e             	and    BYTE PTR [rcx+0x6e],ch
    619e:	74 65                	je     0x6205
    61a0:	72 72                	jb     0x6214
    61a2:	75 70                	jne    0x6214
    61a4:	74 0a                	je     0x61b0
    61a6:	00 49 6e             	add    BYTE PTR [rcx+0x6e],cl
    61a9:	74 65                	je     0x6210
    61ab:	72 72                	jb     0x621f
    61ad:	75 70                	jne    0x621f
    61af:	74 20                	je     0x61d1
    61b1:	43                   	rex.XB
    61b2:	4f                   	rex.WRXB
    61b3:	4d 31 0a             	xor    QWORD PTR [r10],r9
    61b6:	00 6d 6f             	add    BYTE PTR [rbp+0x6f],ch
    61b9:	75 73                	jne    0x622e
    61bb:	65 20 69 6e          	and    BYTE PTR gs:[rcx+0x6e],ch
    61bf:	74 65                	je     0x6226
    61c1:	72 72                	jb     0x6235
    61c3:	75 70                	jne    0x6235
    61c5:	74 0a                	je     0x61d1
    61c7:	00 65 6d             	add    BYTE PTR [rbp+0x6d],ah
    61ca:	70 74                	jo     0x6240
    61cc:	79 20                	jns    0x61ee
    61ce:	68 61 6e 64 6c       	push   0x6c646e61
    61d3:	65 72 0a             	gs jb  0x61e0
    61d6:	00 90 77 61 69 74    	add    BYTE PTR [rax+0x74696177],dl
    61dc:	5f                   	pop    rdi
    61dd:	73 65                	jae    0x6244
    61df:	72 69                	jb     0x624a
    61e1:	61                   	(bad)  
    61e2:	6c                   	ins    BYTE PTR es:[rdi],dx
    61e3:	5f                   	pop    rdi
    61e4:	69 6e 70 75 74 20 61 	imul   ebp,DWORD PTR [rsi+0x70],0x61207475
    61eb:	66 74 65             	data16 je 0x6253
    61ee:	72 20                	jb     0x6210
    61f0:	77 68                	ja     0x625a
    61f2:	69 6c 65 0a 00 00 72 	imul   ebp,DWORD PTR [rbp+riz*2+0xa],0x65720000
    61f9:	65 
    61fa:	63 65 69             	movsxd esp,DWORD PTR [rbp+0x69]
    61fd:	76 65                	jbe    0x6264
    61ff:	5f                   	pop    rdi
    6200:	73 65                	jae    0x6267
    6202:	72 69                	jb     0x626d
    6204:	61                   	(bad)  
    6205:	6c                   	ins    BYTE PTR es:[rdi],dx
    6206:	5f                   	pop    rdi
    6207:	69 6e 70 75 74 20 61 	imul   ebp,DWORD PTR [rsi+0x70],0x61207475
    620e:	66 74 65             	data16 je 0x6276
    6211:	72 20                	jb     0x6233
    6213:	77 68                	ja     0x627d
    6215:	69 6c 65 0a 00 00 00 	imul   ebp,DWORD PTR [rbp+riz*2+0xa],0x0
    621c:	00 
    621d:	00 00                	add    BYTE PTR [rax],al
    621f:	00 72 65             	add    BYTE PTR [rdx+0x65],dh
    6222:	63 65 69             	movsxd esp,DWORD PTR [rbp+0x69]
    6225:	76 65                	jbe    0x628c
    6227:	5f                   	pop    rdi
    6228:	73 65                	jae    0x628f
    622a:	72 69                	jb     0x6295
    622c:	61                   	(bad)  
    622d:	6c                   	ins    BYTE PTR es:[rdi],dx
    622e:	5f                   	pop    rdi
    622f:	69 6e 70 75 74 20 63 	imul   ebp,DWORD PTR [rsi+0x70],0x63207475
    6236:	20 3d 20 6b 65 79    	and    BYTE PTR [rip+0x79656b20],bh        # 0x7965cd5c
    623c:	63 6f 64             	movsxd ebp,DWORD PTR [rdi+0x64]
    623f:	65 0a 00             	or     al,BYTE PTR gs:[rax]
    6242:	00 00                	add    BYTE PTR [rax],al
    6244:	00 00                	add    BYTE PTR [rax],al
    6246:	00 00                	add    BYTE PTR [rax],al
    6248:	13 4b 11             	adc    ecx,DWORD PTR [rbx+0x11]
    624b:	00 00                	add    BYTE PTR [rax],al
    624d:	00 00                	add    BYTE PTR [rax],al
    624f:	00 13                	add    BYTE PTR [rbx],dl
    6251:	4b 11 00             	rex.WXB adc QWORD PTR [r8],rax
    6254:	00 00                	add    BYTE PTR [rax],al
    6256:	00 00                	add    BYTE PTR [rax],al
    6258:	49                   	rex.WB
    6259:	48 11 00             	adc    QWORD PTR [rax],rax
    625c:	00 00                	add    BYTE PTR [rax],al
    625e:	00 00                	add    BYTE PTR [rax],al
    6260:	53                   	push   rbx
    6261:	48 11 00             	adc    QWORD PTR [rax],rax
    6264:	00 00                	add    BYTE PTR [rax],al
    6266:	00 00                	add    BYTE PTR [rax],al
    6268:	5d                   	pop    rbp
    6269:	48 11 00             	adc    QWORD PTR [rax],rax
    626c:	00 00                	add    BYTE PTR [rax],al
    626e:	00 00                	add    BYTE PTR [rax],al
    6270:	67 48 11 00          	adc    QWORD PTR [eax],rax
    6274:	00 00                	add    BYTE PTR [rax],al
    6276:	00 00                	add    BYTE PTR [rax],al
    6278:	71 48                	jno    0x62c2
    627a:	11 00                	adc    DWORD PTR [rax],eax
    627c:	00 00                	add    BYTE PTR [rax],al
    627e:	00 00                	add    BYTE PTR [rax],al
    6280:	7b 48                	jnp    0x62ca
    6282:	11 00                	adc    DWORD PTR [rax],eax
    6284:	00 00                	add    BYTE PTR [rax],al
    6286:	00 00                	add    BYTE PTR [rax],al
    6288:	85 48 11             	test   DWORD PTR [rax+0x11],ecx
    628b:	00 00                	add    BYTE PTR [rax],al
    628d:	00 00                	add    BYTE PTR [rax],al
    628f:	00 8f 48 11 00 00    	add    BYTE PTR [rdi+0x1148],cl
    6295:	00 00                	add    BYTE PTR [rax],al
    6297:	00 99 48 11 00 00    	add    BYTE PTR [rcx+0x1148],bl
    629d:	00 00                	add    BYTE PTR [rax],al
    629f:	00 3f                	add    BYTE PTR [rdi],bh
    62a1:	48 11 00             	adc    QWORD PTR [rax],rax
    62a4:	00 00                	add    BYTE PTR [rax],al
    62a6:	00 00                	add    BYTE PTR [rax],al
    62a8:	a3 48 11 00 00 00 00 	movabs ds:0xad00000000001148,eax
    62af:	00 ad 
    62b1:	48 11 00             	adc    QWORD PTR [rax],rax
    62b4:	00 00                	add    BYTE PTR [rax],al
    62b6:	00 00                	add    BYTE PTR [rax],al
    62b8:	cb                   	retf   
    62b9:	48 11 00             	adc    QWORD PTR [rax],rax
    62bc:	00 00                	add    BYTE PTR [rax],al
    62be:	00 00                	add    BYTE PTR [rax],al
    62c0:	13 4b 11             	adc    ecx,DWORD PTR [rbx+0x11]
    62c3:	00 00                	add    BYTE PTR [rax],al
    62c5:	00 00                	add    BYTE PTR [rax],al
    62c7:	00 db                	add    bl,bl
    62c9:	47 11 00             	rex.RXB adc DWORD PTR [r8],r8d
    62cc:	00 00                	add    BYTE PTR [rax],al
    62ce:	00 00                	add    BYTE PTR [rax],al
    62d0:	17                   	(bad)  
    62d1:	48 11 00             	adc    QWORD PTR [rax],rax
    62d4:	00 00                	add    BYTE PTR [rax],al
    62d6:	00 00                	add    BYTE PTR [rax],al
    62d8:	63 47 11             	movsxd eax,DWORD PTR [rdi+0x11]
    62db:	00 00                	add    BYTE PTR [rax],al
    62dd:	00 00                	add    BYTE PTR [rax],al
    62df:	00 e5                	add    ch,ah
    62e1:	47 11 00             	rex.RXB adc DWORD PTR [r8],r8d
    62e4:	00 00                	add    BYTE PTR [rax],al
    62e6:	00 00                	add    BYTE PTR [rax],al
    62e8:	f9                   	stc    
    62e9:	47 11 00             	rex.RXB adc DWORD PTR [r8],r8d
    62ec:	00 00                	add    BYTE PTR [rax],al
    62ee:	00 00                	add    BYTE PTR [rax],al
    62f0:	2b 48 11             	sub    ecx,DWORD PTR [rax+0x11]
    62f3:	00 00                	add    BYTE PTR [rax],al
    62f5:	00 00                	add    BYTE PTR [rax],al
    62f7:	00 03                	add    BYTE PTR [rbx],al
    62f9:	48 11 00             	adc    QWORD PTR [rax],rax
    62fc:	00 00                	add    BYTE PTR [rax],al
    62fe:	00 00                	add    BYTE PTR [rax],al
    6300:	8b 47 11             	mov    eax,DWORD PTR [rdi+0x11]
    6303:	00 00                	add    BYTE PTR [rax],al
    6305:	00 00                	add    BYTE PTR [rax],al
    6307:	00 c7                	add    bh,al
    6309:	47 11 00             	rex.RXB adc DWORD PTR [r8],r8d
    630c:	00 00                	add    BYTE PTR [rax],al
    630e:	00 00                	add    BYTE PTR [rax],al
    6310:	d1 47 11             	rol    DWORD PTR [rdi+0x11],1
    6313:	00 00                	add    BYTE PTR [rax],al
    6315:	00 00                	add    BYTE PTR [rax],al
    6317:	00 e9                	add    cl,ch
    6319:	48 11 00             	adc    QWORD PTR [rax],rax
    631c:	00 00                	add    BYTE PTR [rax],al
    631e:	00 00                	add    BYTE PTR [rax],al
    6320:	f3 48 11 00          	repz adc QWORD PTR [rax],rax
    6324:	00 00                	add    BYTE PTR [rax],al
    6326:	00 00                	add    BYTE PTR [rax],al
    6328:	df 48 11             	fisttp WORD PTR [rax+0x11]
    632b:	00 00                	add    BYTE PTR [rax],al
    632d:	00 00                	add    BYTE PTR [rax],al
    632f:	00 13                	add    BYTE PTR [rbx],dl
    6331:	4b 11 00             	rex.WXB adc QWORD PTR [r8],rax
    6334:	00 00                	add    BYTE PTR [rax],al
    6336:	00 00                	add    BYTE PTR [rax],al
    6338:	3b 47 11             	cmp    eax,DWORD PTR [rdi+0x11]
    633b:	00 00                	add    BYTE PTR [rax],al
    633d:	00 00                	add    BYTE PTR [rax],al
    633f:	00 ef                	add    bh,ch
    6341:	47 11 00             	rex.RXB adc DWORD PTR [r8],r8d
    6344:	00 00                	add    BYTE PTR [rax],al
    6346:	00 00                	add    BYTE PTR [rax],al
    6348:	59                   	pop    rcx
    6349:	47 11 00             	rex.RXB adc DWORD PTR [r8],r8d
    634c:	00 00                	add    BYTE PTR [rax],al
    634e:	00 00                	add    BYTE PTR [rax],al
    6350:	6d                   	ins    DWORD PTR es:[rdi],dx
    6351:	47 11 00             	rex.RXB adc DWORD PTR [r8],r8d
    6354:	00 00                	add    BYTE PTR [rax],al
    6356:	00 00                	add    BYTE PTR [rax],al
    6358:	77 47                	ja     0x63a1
    635a:	11 00                	adc    DWORD PTR [rax],eax
    635c:	00 00                	add    BYTE PTR [rax],al
    635e:	00 00                	add    BYTE PTR [rax],al
    6360:	81 47 11 00 00 00 00 	add    DWORD PTR [rdi+0x11],0x0
    6367:	00 95 47 11 00 00    	add    BYTE PTR [rbp+0x1147],dl
    636d:	00 00                	add    BYTE PTR [rax],al
    636f:	00 9f 47 11 00 00    	add    BYTE PTR [rdi+0x1147],bl
    6375:	00 00                	add    BYTE PTR [rax],al
    6377:	00 a9 47 11 00 00    	add    BYTE PTR [rcx+0x1147],ch
    637d:	00 00                	add    BYTE PTR [rax],al
    637f:	00 fd                	add    ch,bh
    6381:	48 11 00             	adc    QWORD PTR [rax],rax
    6384:	00 00                	add    BYTE PTR [rax],al
    6386:	00 00                	add    BYTE PTR [rax],al
    6388:	07                   	(bad)  
    6389:	49 11 00             	adc    QWORD PTR [r8],rax
    638c:	00 00                	add    BYTE PTR [rax],al
    638e:	00 00                	add    BYTE PTR [rax],al
    6390:	13 4b 11             	adc    ecx,DWORD PTR [rbx+0x11]
    6393:	00 00                	add    BYTE PTR [rax],al
    6395:	00 00                	add    BYTE PTR [rax],al
    6397:	00 13                	add    BYTE PTR [rbx],dl
    6399:	4b 11 00             	rex.WXB adc QWORD PTR [r8],rax
    639c:	00 00                	add    BYTE PTR [rax],al
    639e:	00 00                	add    BYTE PTR [rax],al
    63a0:	c1 48 11 00          	ror    DWORD PTR [rax+0x11],0x0
    63a4:	00 00                	add    BYTE PTR [rax],al
    63a6:	00 00                	add    BYTE PTR [rax],al
    63a8:	35 48 11 00 00       	xor    eax,0x1148
    63ad:	00 00                	add    BYTE PTR [rax],al
    63af:	00 21                	add    BYTE PTR [rcx],ah
    63b1:	48 11 00             	adc    QWORD PTR [rax],rax
    63b4:	00 00                	add    BYTE PTR [rax],al
    63b6:	00 00                	add    BYTE PTR [rax],al
    63b8:	4f                   	rex.WRXB
    63b9:	47 11 00             	rex.RXB adc DWORD PTR [r8],r8d
    63bc:	00 00                	add    BYTE PTR [rax],al
    63be:	00 00                	add    BYTE PTR [rax],al
    63c0:	0d 48 11 00 00       	or     eax,0x1148
    63c5:	00 00                	add    BYTE PTR [rax],al
    63c7:	00 45 47             	add    BYTE PTR [rbp+0x47],al
    63ca:	11 00                	adc    DWORD PTR [rax],eax
    63cc:	00 00                	add    BYTE PTR [rax],al
    63ce:	00 00                	add    BYTE PTR [rax],al
    63d0:	bd 47 11 00 00       	mov    ebp,0x1147
    63d5:	00 00                	add    BYTE PTR [rax],al
    63d7:	00 b3 47 11 00 00    	add    BYTE PTR [rbx+0x1147],dh
    63dd:	00 00                	add    BYTE PTR [rax],al
    63df:	00 11                	add    BYTE PTR [rcx],dl
    63e1:	49 11 00             	adc    QWORD PTR [r8],rax
    63e4:	00 00                	add    BYTE PTR [rax],al
    63e6:	00 00                	add    BYTE PTR [rax],al
    63e8:	1b 49 11             	sbb    ecx,DWORD PTR [rcx+0x11]
    63eb:	00 00                	add    BYTE PTR [rax],al
    63ed:	00 00                	add    BYTE PTR [rax],al
    63ef:	00 25 49 11 00 00    	add    BYTE PTR [rip+0x1149],ah        # 0x753e
    63f5:	00 00                	add    BYTE PTR [rax],al
    63f7:	00 13                	add    BYTE PTR [rbx],dl
    63f9:	4b 11 00             	rex.WXB adc QWORD PTR [r8],rax
    63fc:	00 00                	add    BYTE PTR [rax],al
    63fe:	00 00                	add    BYTE PTR [rax],al
    6400:	13 4b 11             	adc    ecx,DWORD PTR [rbx+0x11]
    6403:	00 00                	add    BYTE PTR [rax],al
    6405:	00 00                	add    BYTE PTR [rax],al
    6407:	00 13                	add    BYTE PTR [rbx],dl
    6409:	4b 11 00             	rex.WXB adc QWORD PTR [r8],rax
    640c:	00 00                	add    BYTE PTR [rax],al
    640e:	00 00                	add    BYTE PTR [rax],al
    6410:	d5                   	(bad)  
    6411:	48 11 00             	adc    QWORD PTR [rax],rax
    6414:	00 00                	add    BYTE PTR [rax],al
    6416:	00 00                	add    BYTE PTR [rax],al
    6418:	13 4b 11             	adc    ecx,DWORD PTR [rbx+0x11]
    641b:	00 00                	add    BYTE PTR [rax],al
    641d:	00 00                	add    BYTE PTR [rax],al
    641f:	00 13                	add    BYTE PTR [rbx],dl
    6421:	4b 11 00             	rex.WXB adc QWORD PTR [r8],rax
    6424:	00 00                	add    BYTE PTR [rax],al
    6426:	00 00                	add    BYTE PTR [rax],al
    6428:	13 4b 11             	adc    ecx,DWORD PTR [rbx+0x11]
    642b:	00 00                	add    BYTE PTR [rax],al
    642d:	00 00                	add    BYTE PTR [rax],al
    642f:	00 13                	add    BYTE PTR [rbx],dl
    6431:	4b 11 00             	rex.WXB adc QWORD PTR [r8],rax
    6434:	00 00                	add    BYTE PTR [rax],al
    6436:	00 00                	add    BYTE PTR [rax],al
    6438:	13 4b 11             	adc    ecx,DWORD PTR [rbx+0x11]
    643b:	00 00                	add    BYTE PTR [rax],al
    643d:	00 00                	add    BYTE PTR [rax],al
    643f:	00 13                	add    BYTE PTR [rbx],dl
    6441:	4b 11 00             	rex.WXB adc QWORD PTR [r8],rax
    6444:	00 00                	add    BYTE PTR [rax],al
    6446:	00 00                	add    BYTE PTR [rax],al
    6448:	13 4b 11             	adc    ecx,DWORD PTR [rbx+0x11]
    644b:	00 00                	add    BYTE PTR [rax],al
    644d:	00 00                	add    BYTE PTR [rax],al
    644f:	00 13                	add    BYTE PTR [rbx],dl
    6451:	4b 11 00             	rex.WXB adc QWORD PTR [r8],rax
    6454:	00 00                	add    BYTE PTR [rax],al
    6456:	00 00                	add    BYTE PTR [rax],al
    6458:	13 4b 11             	adc    ecx,DWORD PTR [rbx+0x11]
    645b:	00 00                	add    BYTE PTR [rax],al
    645d:	00 00                	add    BYTE PTR [rax],al
    645f:	00 13                	add    BYTE PTR [rbx],dl
    6461:	4b 11 00             	rex.WXB adc QWORD PTR [r8],rax
    6464:	00 00                	add    BYTE PTR [rax],al
    6466:	00 00                	add    BYTE PTR [rax],al
    6468:	13 4b 11             	adc    ecx,DWORD PTR [rbx+0x11]
    646b:	00 00                	add    BYTE PTR [rax],al
    646d:	00 00                	add    BYTE PTR [rax],al
    646f:	00 13                	add    BYTE PTR [rbx],dl
    6471:	4b 11 00             	rex.WXB adc QWORD PTR [r8],rax
    6474:	00 00                	add    BYTE PTR [rax],al
    6476:	00 00                	add    BYTE PTR [rax],al
    6478:	13 4b 11             	adc    ecx,DWORD PTR [rbx+0x11]
    647b:	00 00                	add    BYTE PTR [rax],al
    647d:	00 00                	add    BYTE PTR [rax],al
    647f:	00 13                	add    BYTE PTR [rbx],dl
    6481:	4b 11 00             	rex.WXB adc QWORD PTR [r8],rax
    6484:	00 00                	add    BYTE PTR [rax],al
    6486:	00 00                	add    BYTE PTR [rax],al
    6488:	13 4b 11             	adc    ecx,DWORD PTR [rbx+0x11]
    648b:	00 00                	add    BYTE PTR [rax],al
    648d:	00 00                	add    BYTE PTR [rax],al
    648f:	00 13                	add    BYTE PTR [rbx],dl
    6491:	4b 11 00             	rex.WXB adc QWORD PTR [r8],rax
    6494:	00 00                	add    BYTE PTR [rax],al
    6496:	00 00                	add    BYTE PTR [rax],al
    6498:	13 4b 11             	adc    ecx,DWORD PTR [rbx+0x11]
    649b:	00 00                	add    BYTE PTR [rax],al
    649d:	00 00                	add    BYTE PTR [rax],al
    649f:	00 13                	add    BYTE PTR [rbx],dl
    64a1:	4b 11 00             	rex.WXB adc QWORD PTR [r8],rax
    64a4:	00 00                	add    BYTE PTR [rax],al
    64a6:	00 00                	add    BYTE PTR [rax],al
    64a8:	13 4b 11             	adc    ecx,DWORD PTR [rbx+0x11]
    64ab:	00 00                	add    BYTE PTR [rax],al
    64ad:	00 00                	add    BYTE PTR [rax],al
    64af:	00 13                	add    BYTE PTR [rbx],dl
    64b1:	4b 11 00             	rex.WXB adc QWORD PTR [r8],rax
    64b4:	00 00                	add    BYTE PTR [rax],al
    64b6:	00 00                	add    BYTE PTR [rax],al
    64b8:	13 4b 11             	adc    ecx,DWORD PTR [rbx+0x11]
    64bb:	00 00                	add    BYTE PTR [rax],al
    64bd:	00 00                	add    BYTE PTR [rax],al
    64bf:	00 13                	add    BYTE PTR [rbx],dl
    64c1:	4b 11 00             	rex.WXB adc QWORD PTR [r8],rax
    64c4:	00 00                	add    BYTE PTR [rax],al
    64c6:	00 00                	add    BYTE PTR [rax],al
    64c8:	13 4b 11             	adc    ecx,DWORD PTR [rbx+0x11]
    64cb:	00 00                	add    BYTE PTR [rax],al
    64cd:	00 00                	add    BYTE PTR [rax],al
    64cf:	00 13                	add    BYTE PTR [rbx],dl
    64d1:	4b 11 00             	rex.WXB adc QWORD PTR [r8],rax
    64d4:	00 00                	add    BYTE PTR [rax],al
    64d6:	00 00                	add    BYTE PTR [rax],al
    64d8:	13 4b 11             	adc    ecx,DWORD PTR [rbx+0x11]
    64db:	00 00                	add    BYTE PTR [rax],al
    64dd:	00 00                	add    BYTE PTR [rax],al
    64df:	00 13                	add    BYTE PTR [rbx],dl
    64e1:	4b 11 00             	rex.WXB adc QWORD PTR [r8],rax
    64e4:	00 00                	add    BYTE PTR [rax],al
    64e6:	00 00                	add    BYTE PTR [rax],al
    64e8:	13 4b 11             	adc    ecx,DWORD PTR [rbx+0x11]
    64eb:	00 00                	add    BYTE PTR [rax],al
    64ed:	00 00                	add    BYTE PTR [rax],al
    64ef:	00 13                	add    BYTE PTR [rbx],dl
    64f1:	4b 11 00             	rex.WXB adc QWORD PTR [r8],rax
    64f4:	00 00                	add    BYTE PTR [rax],al
    64f6:	00 00                	add    BYTE PTR [rax],al
    64f8:	13 4b 11             	adc    ecx,DWORD PTR [rbx+0x11]
    64fb:	00 00                	add    BYTE PTR [rax],al
    64fd:	00 00                	add    BYTE PTR [rax],al
    64ff:	00 13                	add    BYTE PTR [rbx],dl
    6501:	4b 11 00             	rex.WXB adc QWORD PTR [r8],rax
    6504:	00 00                	add    BYTE PTR [rax],al
    6506:	00 00                	add    BYTE PTR [rax],al
    6508:	13 4b 11             	adc    ecx,DWORD PTR [rbx+0x11]
    650b:	00 00                	add    BYTE PTR [rax],al
    650d:	00 00                	add    BYTE PTR [rax],al
    650f:	00 13                	add    BYTE PTR [rbx],dl
    6511:	4b 11 00             	rex.WXB adc QWORD PTR [r8],rax
    6514:	00 00                	add    BYTE PTR [rax],al
    6516:	00 00                	add    BYTE PTR [rax],al
    6518:	13 4b 11             	adc    ecx,DWORD PTR [rbx+0x11]
    651b:	00 00                	add    BYTE PTR [rax],al
    651d:	00 00                	add    BYTE PTR [rax],al
    651f:	00 13                	add    BYTE PTR [rbx],dl
    6521:	4b 11 00             	rex.WXB adc QWORD PTR [r8],rax
    6524:	00 00                	add    BYTE PTR [rax],al
    6526:	00 00                	add    BYTE PTR [rax],al
    6528:	13 4b 11             	adc    ecx,DWORD PTR [rbx+0x11]
    652b:	00 00                	add    BYTE PTR [rax],al
    652d:	00 00                	add    BYTE PTR [rax],al
    652f:	00 13                	add    BYTE PTR [rbx],dl
    6531:	4b 11 00             	rex.WXB adc QWORD PTR [r8],rax
    6534:	00 00                	add    BYTE PTR [rax],al
    6536:	00 00                	add    BYTE PTR [rax],al
    6538:	13 4b 11             	adc    ecx,DWORD PTR [rbx+0x11]
    653b:	00 00                	add    BYTE PTR [rax],al
    653d:	00 00                	add    BYTE PTR [rax],al
    653f:	00 13                	add    BYTE PTR [rbx],dl
    6541:	4b 11 00             	rex.WXB adc QWORD PTR [r8],rax
    6544:	00 00                	add    BYTE PTR [rax],al
    6546:	00 00                	add    BYTE PTR [rax],al
    6548:	13 4b 11             	adc    ecx,DWORD PTR [rbx+0x11]
    654b:	00 00                	add    BYTE PTR [rax],al
    654d:	00 00                	add    BYTE PTR [rax],al
    654f:	00 13                	add    BYTE PTR [rbx],dl
    6551:	4b 11 00             	rex.WXB adc QWORD PTR [r8],rax
    6554:	00 00                	add    BYTE PTR [rax],al
    6556:	00 00                	add    BYTE PTR [rax],al
    6558:	13 4b 11             	adc    ecx,DWORD PTR [rbx+0x11]
    655b:	00 00                	add    BYTE PTR [rax],al
    655d:	00 00                	add    BYTE PTR [rax],al
    655f:	00 13                	add    BYTE PTR [rbx],dl
    6561:	4b 11 00             	rex.WXB adc QWORD PTR [r8],rax
    6564:	00 00                	add    BYTE PTR [rax],al
    6566:	00 00                	add    BYTE PTR [rax],al
    6568:	13 4b 11             	adc    ecx,DWORD PTR [rbx+0x11]
    656b:	00 00                	add    BYTE PTR [rax],al
    656d:	00 00                	add    BYTE PTR [rax],al
    656f:	00 13                	add    BYTE PTR [rbx],dl
    6571:	4b 11 00             	rex.WXB adc QWORD PTR [r8],rax
    6574:	00 00                	add    BYTE PTR [rax],al
    6576:	00 00                	add    BYTE PTR [rax],al
    6578:	13 4b 11             	adc    ecx,DWORD PTR [rbx+0x11]
    657b:	00 00                	add    BYTE PTR [rax],al
    657d:	00 00                	add    BYTE PTR [rax],al
    657f:	00 13                	add    BYTE PTR [rbx],dl
    6581:	4b 11 00             	rex.WXB adc QWORD PTR [r8],rax
    6584:	00 00                	add    BYTE PTR [rax],al
    6586:	00 00                	add    BYTE PTR [rax],al
    6588:	13 4b 11             	adc    ecx,DWORD PTR [rbx+0x11]
    658b:	00 00                	add    BYTE PTR [rax],al
    658d:	00 00                	add    BYTE PTR [rax],al
    658f:	00 13                	add    BYTE PTR [rbx],dl
    6591:	4b 11 00             	rex.WXB adc QWORD PTR [r8],rax
    6594:	00 00                	add    BYTE PTR [rax],al
    6596:	00 00                	add    BYTE PTR [rax],al
    6598:	13 4b 11             	adc    ecx,DWORD PTR [rbx+0x11]
    659b:	00 00                	add    BYTE PTR [rax],al
    659d:	00 00                	add    BYTE PTR [rax],al
    659f:	00 13                	add    BYTE PTR [rbx],dl
    65a1:	4b 11 00             	rex.WXB adc QWORD PTR [r8],rax
    65a4:	00 00                	add    BYTE PTR [rax],al
    65a6:	00 00                	add    BYTE PTR [rax],al
    65a8:	13 4b 11             	adc    ecx,DWORD PTR [rbx+0x11]
    65ab:	00 00                	add    BYTE PTR [rax],al
    65ad:	00 00                	add    BYTE PTR [rax],al
    65af:	00 13                	add    BYTE PTR [rbx],dl
    65b1:	4b 11 00             	rex.WXB adc QWORD PTR [r8],rax
    65b4:	00 00                	add    BYTE PTR [rax],al
    65b6:	00 00                	add    BYTE PTR [rax],al
    65b8:	13 4b 11             	adc    ecx,DWORD PTR [rbx+0x11]
    65bb:	00 00                	add    BYTE PTR [rax],al
    65bd:	00 00                	add    BYTE PTR [rax],al
    65bf:	00 13                	add    BYTE PTR [rbx],dl
    65c1:	4b 11 00             	rex.WXB adc QWORD PTR [r8],rax
    65c4:	00 00                	add    BYTE PTR [rax],al
    65c6:	00 00                	add    BYTE PTR [rax],al
    65c8:	13 4b 11             	adc    ecx,DWORD PTR [rbx+0x11]
    65cb:	00 00                	add    BYTE PTR [rax],al
    65cd:	00 00                	add    BYTE PTR [rax],al
    65cf:	00 13                	add    BYTE PTR [rbx],dl
    65d1:	4b 11 00             	rex.WXB adc QWORD PTR [r8],rax
    65d4:	00 00                	add    BYTE PTR [rax],al
    65d6:	00 00                	add    BYTE PTR [rax],al
    65d8:	13 4b 11             	adc    ecx,DWORD PTR [rbx+0x11]
    65db:	00 00                	add    BYTE PTR [rax],al
    65dd:	00 00                	add    BYTE PTR [rax],al
    65df:	00 2f                	add    BYTE PTR [rdi],ch
    65e1:	49 11 00             	adc    QWORD PTR [r8],rax
    65e4:	00 00                	add    BYTE PTR [rax],al
    65e6:	00 00                	add    BYTE PTR [rax],al
    65e8:	13 4b 11             	adc    ecx,DWORD PTR [rbx+0x11]
    65eb:	00 00                	add    BYTE PTR [rax],al
    65ed:	00 00                	add    BYTE PTR [rax],al
    65ef:	00 13                	add    BYTE PTR [rbx],dl
    65f1:	4b 11 00             	rex.WXB adc QWORD PTR [r8],rax
    65f4:	00 00                	add    BYTE PTR [rax],al
    65f6:	00 00                	add    BYTE PTR [rax],al
    65f8:	13 4b 11             	adc    ecx,DWORD PTR [rbx+0x11]
    65fb:	00 00                	add    BYTE PTR [rax],al
    65fd:	00 00                	add    BYTE PTR [rax],al
    65ff:	00 13                	add    BYTE PTR [rbx],dl
    6601:	4b 11 00             	rex.WXB adc QWORD PTR [r8],rax
    6604:	00 00                	add    BYTE PTR [rax],al
    6606:	00 00                	add    BYTE PTR [rax],al
    6608:	13 4b 11             	adc    ecx,DWORD PTR [rbx+0x11]
    660b:	00 00                	add    BYTE PTR [rax],al
    660d:	00 00                	add    BYTE PTR [rax],al
    660f:	00 13                	add    BYTE PTR [rbx],dl
    6611:	4b 11 00             	rex.WXB adc QWORD PTR [r8],rax
    6614:	00 00                	add    BYTE PTR [rax],al
    6616:	00 00                	add    BYTE PTR [rax],al
    6618:	13 4b 11             	adc    ecx,DWORD PTR [rbx+0x11]
    661b:	00 00                	add    BYTE PTR [rax],al
    661d:	00 00                	add    BYTE PTR [rax],al
    661f:	00 13                	add    BYTE PTR [rbx],dl
    6621:	4b 11 00             	rex.WXB adc QWORD PTR [r8],rax
    6624:	00 00                	add    BYTE PTR [rax],al
    6626:	00 00                	add    BYTE PTR [rax],al
    6628:	13 4b 11             	adc    ecx,DWORD PTR [rbx+0x11]
    662b:	00 00                	add    BYTE PTR [rax],al
    662d:	00 00                	add    BYTE PTR [rax],al
    662f:	00 b7 48 11 00 00    	add    BYTE PTR [rdi+0x1148],dh
    6635:	00 00                	add    BYTE PTR [rax],al
    6637:	00 16                	add    BYTE PTR [rsi],dl
    6639:	4b 11 00             	rex.WXB adc QWORD PTR [r8],rax
    663c:	00 00                	add    BYTE PTR [rax],al
    663e:	00 00                	add    BYTE PTR [rax],al
    6640:	16                   	(bad)  
    6641:	4b 11 00             	rex.WXB adc QWORD PTR [r8],rax
    6644:	00 00                	add    BYTE PTR [rax],al
    6646:	00 00                	add    BYTE PTR [rax],al
    6648:	56                   	push   rsi
    6649:	4a 11 00             	rex.WX adc QWORD PTR [rax],rax
    664c:	00 00                	add    BYTE PTR [rax],al
    664e:	00 00                	add    BYTE PTR [rax],al
    6650:	60                   	(bad)  
    6651:	4a 11 00             	rex.WX adc QWORD PTR [rax],rax
    6654:	00 00                	add    BYTE PTR [rax],al
    6656:	00 00                	add    BYTE PTR [rax],al
    6658:	6a 4a                	push   0x4a
    665a:	11 00                	adc    DWORD PTR [rax],eax
    665c:	00 00                	add    BYTE PTR [rax],al
    665e:	00 00                	add    BYTE PTR [rax],al
    6660:	74 4a                	je     0x66ac
    6662:	11 00                	adc    DWORD PTR [rax],eax
    6664:	00 00                	add    BYTE PTR [rax],al
    6666:	00 00                	add    BYTE PTR [rax],al
    6668:	7e 4a                	jle    0x66b4
    666a:	11 00                	adc    DWORD PTR [rax],eax
    666c:	00 00                	add    BYTE PTR [rax],al
    666e:	00 00                	add    BYTE PTR [rax],al
    6670:	88 4a 11             	mov    BYTE PTR [rdx+0x11],cl
    6673:	00 00                	add    BYTE PTR [rax],al
    6675:	00 00                	add    BYTE PTR [rax],al
    6677:	00 92 4a 11 00 00    	add    BYTE PTR [rdx+0x114a],dl
    667d:	00 00                	add    BYTE PTR [rax],al
    667f:	00 9c 4a 11 00 00 00 	add    BYTE PTR [rdx+rcx*2+0x11],bl
    6686:	00 00                	add    BYTE PTR [rax],al
    6688:	a3 4a 11 00 00 00 00 	movabs ds:0x160000000000114a,eax
    668f:	00 16 
    6691:	4b 11 00             	rex.WXB adc QWORD PTR [r8],rax
    6694:	00 00                	add    BYTE PTR [rax],al
    6696:	00 00                	add    BYTE PTR [rax],al
    6698:	aa                   	stos   BYTE PTR es:[rdi],al
    6699:	4a 11 00             	rex.WX adc QWORD PTR [rax],rax
    669c:	00 00                	add    BYTE PTR [rax],al
    669e:	00 00                	add    BYTE PTR [rax],al
    66a0:	b1 4a                	mov    cl,0x4a
    66a2:	11 00                	adc    DWORD PTR [rax],eax
    66a4:	00 00                	add    BYTE PTR [rax],al
    66a6:	00 00                	add    BYTE PTR [rax],al
    66a8:	c6                   	(bad)  
    66a9:	4a 11 00             	rex.WX adc QWORD PTR [rax],rax
    66ac:	00 00                	add    BYTE PTR [rax],al
    66ae:	00 00                	add    BYTE PTR [rax],al
    66b0:	16                   	(bad)  
    66b1:	4b 11 00             	rex.WXB adc QWORD PTR [r8],rax
    66b4:	00 00                	add    BYTE PTR [rax],al
    66b6:	00 00                	add    BYTE PTR [rax],al
    66b8:	f2 49 11 00          	repnz adc QWORD PTR [r8],rax
    66bc:	00 00                	add    BYTE PTR [rax],al
    66be:	00 00                	add    BYTE PTR [rax],al
    66c0:	2e 4a 11 00          	rex.WX adc QWORD PTR cs:[rax],rax
    66c4:	00 00                	add    BYTE PTR [rax],al
    66c6:	00 00                	add    BYTE PTR [rax],al
    66c8:	7a 49                	jp     0x6713
    66ca:	11 00                	adc    DWORD PTR [rax],eax
    66cc:	00 00                	add    BYTE PTR [rax],al
    66ce:	00 00                	add    BYTE PTR [rax],al
    66d0:	fc                   	cld    
    66d1:	49 11 00             	adc    QWORD PTR [r8],rax
    66d4:	00 00                	add    BYTE PTR [rax],al
    66d6:	00 00                	add    BYTE PTR [rax],al
    66d8:	10 4a 11             	adc    BYTE PTR [rdx+0x11],cl
    66db:	00 00                	add    BYTE PTR [rax],al
    66dd:	00 00                	add    BYTE PTR [rax],al
    66df:	00 42 4a             	add    BYTE PTR [rdx+0x4a],al
    66e2:	11 00                	adc    DWORD PTR [rax],eax
    66e4:	00 00                	add    BYTE PTR [rax],al
    66e6:	00 00                	add    BYTE PTR [rax],al
    66e8:	1a 4a 11             	sbb    cl,BYTE PTR [rdx+0x11]
    66eb:	00 00                	add    BYTE PTR [rax],al
    66ed:	00 00                	add    BYTE PTR [rax],al
    66ef:	00 a2 49 11 00 00    	add    BYTE PTR [rdx+0x1149],ah
    66f5:	00 00                	add    BYTE PTR [rax],al
    66f7:	00 de                	add    dh,bl
    66f9:	49 11 00             	adc    QWORD PTR [r8],rax
    66fc:	00 00                	add    BYTE PTR [rax],al
    66fe:	00 00                	add    BYTE PTR [rax],al
    6700:	e8 49 11 00 00       	call   0x784e
    6705:	00 00                	add    BYTE PTR [rax],al
    6707:	00 db                	add    bl,bl
    6709:	4a 11 00             	rex.WX adc QWORD PTR [rax],rax
    670c:	00 00                	add    BYTE PTR [rax],al
    670e:	00 00                	add    BYTE PTR [rax],al
    6710:	e2 4a                	loop   0x675c
    6712:	11 00                	adc    DWORD PTR [rax],eax
    6714:	00 00                	add    BYTE PTR [rax],al
    6716:	00 00                	add    BYTE PTR [rax],al
    6718:	d4                   	(bad)  
    6719:	4a 11 00             	rex.WX adc QWORD PTR [rax],rax
    671c:	00 00                	add    BYTE PTR [rax],al
    671e:	00 00                	add    BYTE PTR [rax],al
    6720:	16                   	(bad)  
    6721:	4b 11 00             	rex.WXB adc QWORD PTR [r8],rax
    6724:	00 00                	add    BYTE PTR [rax],al
    6726:	00 00                	add    BYTE PTR [rax],al
    6728:	52                   	push   rdx
    6729:	49 11 00             	adc    QWORD PTR [r8],rax
    672c:	00 00                	add    BYTE PTR [rax],al
    672e:	00 00                	add    BYTE PTR [rax],al
    6730:	06                   	(bad)  
    6731:	4a 11 00             	rex.WX adc QWORD PTR [rax],rax
    6734:	00 00                	add    BYTE PTR [rax],al
    6736:	00 00                	add    BYTE PTR [rax],al
    6738:	70 49                	jo     0x6783
    673a:	11 00                	adc    DWORD PTR [rax],eax
    673c:	00 00                	add    BYTE PTR [rax],al
    673e:	00 00                	add    BYTE PTR [rax],al
    6740:	84 49 11             	test   BYTE PTR [rcx+0x11],cl
    6743:	00 00                	add    BYTE PTR [rax],al
    6745:	00 00                	add    BYTE PTR [rax],al
    6747:	00 8e 49 11 00 00    	add    BYTE PTR [rsi+0x1149],cl
    674d:	00 00                	add    BYTE PTR [rax],al
    674f:	00 98 49 11 00 00    	add    BYTE PTR [rax+0x1149],bl
    6755:	00 00                	add    BYTE PTR [rax],al
    6757:	00 ac 49 11 00 00 00 	add    BYTE PTR [rcx+rcx*2+0x11],ch
    675e:	00 00                	add    BYTE PTR [rax],al
    6760:	b6 49                	mov    dh,0x49
    6762:	11 00                	adc    DWORD PTR [rax],eax
    6764:	00 00                	add    BYTE PTR [rax],al
    6766:	00 00                	add    BYTE PTR [rax],al
    6768:	c0 49 11 00          	ror    BYTE PTR [rcx+0x11],0x0
    676c:	00 00                	add    BYTE PTR [rax],al
    676e:	00 00                	add    BYTE PTR [rax],al
    6770:	e9 4a 11 00 00       	jmp    0x78bf
    6775:	00 00                	add    BYTE PTR [rax],al
    6777:	00 f0                	add    al,dh
    6779:	4a 11 00             	rex.WX adc QWORD PTR [rax],rax
    677c:	00 00                	add    BYTE PTR [rax],al
    677e:	00 00                	add    BYTE PTR [rax],al
    6780:	16                   	(bad)  
    6781:	4b 11 00             	rex.WXB adc QWORD PTR [r8],rax
    6784:	00 00                	add    BYTE PTR [rax],al
    6786:	00 00                	add    BYTE PTR [rax],al
    6788:	16                   	(bad)  
    6789:	4b 11 00             	rex.WXB adc QWORD PTR [r8],rax
    678c:	00 00                	add    BYTE PTR [rax],al
    678e:	00 00                	add    BYTE PTR [rax],al
    6790:	bf 4a 11 00 00       	mov    edi,0x114a
    6795:	00 00                	add    BYTE PTR [rax],al
    6797:	00 4c 4a 11          	add    BYTE PTR [rdx+rcx*2+0x11],cl
    679b:	00 00                	add    BYTE PTR [rax],al
    679d:	00 00                	add    BYTE PTR [rax],al
    679f:	00 38                	add    BYTE PTR [rax],bh
    67a1:	4a 11 00             	rex.WX adc QWORD PTR [rax],rax
    67a4:	00 00                	add    BYTE PTR [rax],al
    67a6:	00 00                	add    BYTE PTR [rax],al
    67a8:	66 49 11 00          	data16 adc QWORD PTR [r8],rax
    67ac:	00 00                	add    BYTE PTR [rax],al
    67ae:	00 00                	add    BYTE PTR [rax],al
    67b0:	24 4a                	and    al,0x4a
    67b2:	11 00                	adc    DWORD PTR [rax],eax
    67b4:	00 00                	add    BYTE PTR [rax],al
    67b6:	00 00                	add    BYTE PTR [rax],al
    67b8:	5c                   	pop    rsp
    67b9:	49 11 00             	adc    QWORD PTR [r8],rax
    67bc:	00 00                	add    BYTE PTR [rax],al
    67be:	00 00                	add    BYTE PTR [rax],al
    67c0:	d4                   	(bad)  
    67c1:	49 11 00             	adc    QWORD PTR [r8],rax
    67c4:	00 00                	add    BYTE PTR [rax],al
    67c6:	00 00                	add    BYTE PTR [rax],al
    67c8:	ca 49 11             	retf   0x1149
    67cb:	00 00                	add    BYTE PTR [rax],al
    67cd:	00 00                	add    BYTE PTR [rax],al
    67cf:	00 f7                	add    bh,dh
    67d1:	4a 11 00             	rex.WX adc QWORD PTR [rax],rax
    67d4:	00 00                	add    BYTE PTR [rax],al
    67d6:	00 00                	add    BYTE PTR [rax],al
    67d8:	fe 4a 11             	dec    BYTE PTR [rdx+0x11]
    67db:	00 00                	add    BYTE PTR [rax],al
    67dd:	00 00                	add    BYTE PTR [rax],al
    67df:	00 05 4b 11 00 00    	add    BYTE PTR [rip+0x114b],al        # 0x7930
    67e5:	00 00                	add    BYTE PTR [rax],al
    67e7:	00 16                	add    BYTE PTR [rsi],dl
    67e9:	4b 11 00             	rex.WXB adc QWORD PTR [r8],rax
    67ec:	00 00                	add    BYTE PTR [rax],al
    67ee:	00 00                	add    BYTE PTR [rax],al
    67f0:	16                   	(bad)  
    67f1:	4b 11 00             	rex.WXB adc QWORD PTR [r8],rax
    67f4:	00 00                	add    BYTE PTR [rax],al
    67f6:	00 00                	add    BYTE PTR [rax],al
    67f8:	16                   	(bad)  
    67f9:	4b 11 00             	rex.WXB adc QWORD PTR [r8],rax
    67fc:	00 00                	add    BYTE PTR [rax],al
    67fe:	00 00                	add    BYTE PTR [rax],al
    6800:	cd 4a                	int    0x4a
    6802:	11 00                	adc    DWORD PTR [rax],eax
    6804:	00 00                	add    BYTE PTR [rax],al
    6806:	00 00                	add    BYTE PTR [rax],al
    6808:	16                   	(bad)  
    6809:	4b 11 00             	rex.WXB adc QWORD PTR [r8],rax
    680c:	00 00                	add    BYTE PTR [rax],al
    680e:	00 00                	add    BYTE PTR [rax],al
    6810:	16                   	(bad)  
    6811:	4b 11 00             	rex.WXB adc QWORD PTR [r8],rax
    6814:	00 00                	add    BYTE PTR [rax],al
    6816:	00 00                	add    BYTE PTR [rax],al
    6818:	16                   	(bad)  
    6819:	4b 11 00             	rex.WXB adc QWORD PTR [r8],rax
    681c:	00 00                	add    BYTE PTR [rax],al
    681e:	00 00                	add    BYTE PTR [rax],al
    6820:	16                   	(bad)  
    6821:	4b 11 00             	rex.WXB adc QWORD PTR [r8],rax
    6824:	00 00                	add    BYTE PTR [rax],al
    6826:	00 00                	add    BYTE PTR [rax],al
    6828:	16                   	(bad)  
    6829:	4b 11 00             	rex.WXB adc QWORD PTR [r8],rax
    682c:	00 00                	add    BYTE PTR [rax],al
    682e:	00 00                	add    BYTE PTR [rax],al
    6830:	16                   	(bad)  
    6831:	4b 11 00             	rex.WXB adc QWORD PTR [r8],rax
    6834:	00 00                	add    BYTE PTR [rax],al
    6836:	00 00                	add    BYTE PTR [rax],al
    6838:	16                   	(bad)  
    6839:	4b 11 00             	rex.WXB adc QWORD PTR [r8],rax
    683c:	00 00                	add    BYTE PTR [rax],al
    683e:	00 00                	add    BYTE PTR [rax],al
    6840:	16                   	(bad)  
    6841:	4b 11 00             	rex.WXB adc QWORD PTR [r8],rax
    6844:	00 00                	add    BYTE PTR [rax],al
    6846:	00 00                	add    BYTE PTR [rax],al
    6848:	16                   	(bad)  
    6849:	4b 11 00             	rex.WXB adc QWORD PTR [r8],rax
    684c:	00 00                	add    BYTE PTR [rax],al
    684e:	00 00                	add    BYTE PTR [rax],al
    6850:	16                   	(bad)  
    6851:	4b 11 00             	rex.WXB adc QWORD PTR [r8],rax
    6854:	00 00                	add    BYTE PTR [rax],al
    6856:	00 00                	add    BYTE PTR [rax],al
    6858:	16                   	(bad)  
    6859:	4b 11 00             	rex.WXB adc QWORD PTR [r8],rax
    685c:	00 00                	add    BYTE PTR [rax],al
    685e:	00 00                	add    BYTE PTR [rax],al
    6860:	16                   	(bad)  
    6861:	4b 11 00             	rex.WXB adc QWORD PTR [r8],rax
    6864:	00 00                	add    BYTE PTR [rax],al
    6866:	00 00                	add    BYTE PTR [rax],al
    6868:	16                   	(bad)  
    6869:	4b 11 00             	rex.WXB adc QWORD PTR [r8],rax
    686c:	00 00                	add    BYTE PTR [rax],al
    686e:	00 00                	add    BYTE PTR [rax],al
    6870:	16                   	(bad)  
    6871:	4b 11 00             	rex.WXB adc QWORD PTR [r8],rax
    6874:	00 00                	add    BYTE PTR [rax],al
    6876:	00 00                	add    BYTE PTR [rax],al
    6878:	16                   	(bad)  
    6879:	4b 11 00             	rex.WXB adc QWORD PTR [r8],rax
    687c:	00 00                	add    BYTE PTR [rax],al
    687e:	00 00                	add    BYTE PTR [rax],al
    6880:	16                   	(bad)  
    6881:	4b 11 00             	rex.WXB adc QWORD PTR [r8],rax
    6884:	00 00                	add    BYTE PTR [rax],al
    6886:	00 00                	add    BYTE PTR [rax],al
    6888:	16                   	(bad)  
    6889:	4b 11 00             	rex.WXB adc QWORD PTR [r8],rax
    688c:	00 00                	add    BYTE PTR [rax],al
    688e:	00 00                	add    BYTE PTR [rax],al
    6890:	16                   	(bad)  
    6891:	4b 11 00             	rex.WXB adc QWORD PTR [r8],rax
    6894:	00 00                	add    BYTE PTR [rax],al
    6896:	00 00                	add    BYTE PTR [rax],al
    6898:	16                   	(bad)  
    6899:	4b 11 00             	rex.WXB adc QWORD PTR [r8],rax
    689c:	00 00                	add    BYTE PTR [rax],al
    689e:	00 00                	add    BYTE PTR [rax],al
    68a0:	16                   	(bad)  
    68a1:	4b 11 00             	rex.WXB adc QWORD PTR [r8],rax
    68a4:	00 00                	add    BYTE PTR [rax],al
    68a6:	00 00                	add    BYTE PTR [rax],al
    68a8:	16                   	(bad)  
    68a9:	4b 11 00             	rex.WXB adc QWORD PTR [r8],rax
    68ac:	00 00                	add    BYTE PTR [rax],al
    68ae:	00 00                	add    BYTE PTR [rax],al
    68b0:	16                   	(bad)  
    68b1:	4b 11 00             	rex.WXB adc QWORD PTR [r8],rax
    68b4:	00 00                	add    BYTE PTR [rax],al
    68b6:	00 00                	add    BYTE PTR [rax],al
    68b8:	16                   	(bad)  
    68b9:	4b 11 00             	rex.WXB adc QWORD PTR [r8],rax
    68bc:	00 00                	add    BYTE PTR [rax],al
    68be:	00 00                	add    BYTE PTR [rax],al
    68c0:	16                   	(bad)  
    68c1:	4b 11 00             	rex.WXB adc QWORD PTR [r8],rax
    68c4:	00 00                	add    BYTE PTR [rax],al
    68c6:	00 00                	add    BYTE PTR [rax],al
    68c8:	16                   	(bad)  
    68c9:	4b 11 00             	rex.WXB adc QWORD PTR [r8],rax
    68cc:	00 00                	add    BYTE PTR [rax],al
    68ce:	00 00                	add    BYTE PTR [rax],al
    68d0:	16                   	(bad)  
    68d1:	4b 11 00             	rex.WXB adc QWORD PTR [r8],rax
    68d4:	00 00                	add    BYTE PTR [rax],al
    68d6:	00 00                	add    BYTE PTR [rax],al
    68d8:	16                   	(bad)  
    68d9:	4b 11 00             	rex.WXB adc QWORD PTR [r8],rax
    68dc:	00 00                	add    BYTE PTR [rax],al
    68de:	00 00                	add    BYTE PTR [rax],al
    68e0:	16                   	(bad)  
    68e1:	4b 11 00             	rex.WXB adc QWORD PTR [r8],rax
    68e4:	00 00                	add    BYTE PTR [rax],al
    68e6:	00 00                	add    BYTE PTR [rax],al
    68e8:	16                   	(bad)  
    68e9:	4b 11 00             	rex.WXB adc QWORD PTR [r8],rax
    68ec:	00 00                	add    BYTE PTR [rax],al
    68ee:	00 00                	add    BYTE PTR [rax],al
    68f0:	16                   	(bad)  
    68f1:	4b 11 00             	rex.WXB adc QWORD PTR [r8],rax
    68f4:	00 00                	add    BYTE PTR [rax],al
    68f6:	00 00                	add    BYTE PTR [rax],al
    68f8:	16                   	(bad)  
    68f9:	4b 11 00             	rex.WXB adc QWORD PTR [r8],rax
    68fc:	00 00                	add    BYTE PTR [rax],al
    68fe:	00 00                	add    BYTE PTR [rax],al
    6900:	16                   	(bad)  
    6901:	4b 11 00             	rex.WXB adc QWORD PTR [r8],rax
    6904:	00 00                	add    BYTE PTR [rax],al
    6906:	00 00                	add    BYTE PTR [rax],al
    6908:	16                   	(bad)  
    6909:	4b 11 00             	rex.WXB adc QWORD PTR [r8],rax
    690c:	00 00                	add    BYTE PTR [rax],al
    690e:	00 00                	add    BYTE PTR [rax],al
    6910:	16                   	(bad)  
    6911:	4b 11 00             	rex.WXB adc QWORD PTR [r8],rax
    6914:	00 00                	add    BYTE PTR [rax],al
    6916:	00 00                	add    BYTE PTR [rax],al
    6918:	16                   	(bad)  
    6919:	4b 11 00             	rex.WXB adc QWORD PTR [r8],rax
    691c:	00 00                	add    BYTE PTR [rax],al
    691e:	00 00                	add    BYTE PTR [rax],al
    6920:	16                   	(bad)  
    6921:	4b 11 00             	rex.WXB adc QWORD PTR [r8],rax
    6924:	00 00                	add    BYTE PTR [rax],al
    6926:	00 00                	add    BYTE PTR [rax],al
    6928:	16                   	(bad)  
    6929:	4b 11 00             	rex.WXB adc QWORD PTR [r8],rax
    692c:	00 00                	add    BYTE PTR [rax],al
    692e:	00 00                	add    BYTE PTR [rax],al
    6930:	16                   	(bad)  
    6931:	4b 11 00             	rex.WXB adc QWORD PTR [r8],rax
    6934:	00 00                	add    BYTE PTR [rax],al
    6936:	00 00                	add    BYTE PTR [rax],al
    6938:	16                   	(bad)  
    6939:	4b 11 00             	rex.WXB adc QWORD PTR [r8],rax
    693c:	00 00                	add    BYTE PTR [rax],al
    693e:	00 00                	add    BYTE PTR [rax],al
    6940:	16                   	(bad)  
    6941:	4b 11 00             	rex.WXB adc QWORD PTR [r8],rax
    6944:	00 00                	add    BYTE PTR [rax],al
    6946:	00 00                	add    BYTE PTR [rax],al
    6948:	16                   	(bad)  
    6949:	4b 11 00             	rex.WXB adc QWORD PTR [r8],rax
    694c:	00 00                	add    BYTE PTR [rax],al
    694e:	00 00                	add    BYTE PTR [rax],al
    6950:	16                   	(bad)  
    6951:	4b 11 00             	rex.WXB adc QWORD PTR [r8],rax
    6954:	00 00                	add    BYTE PTR [rax],al
    6956:	00 00                	add    BYTE PTR [rax],al
    6958:	16                   	(bad)  
    6959:	4b 11 00             	rex.WXB adc QWORD PTR [r8],rax
    695c:	00 00                	add    BYTE PTR [rax],al
    695e:	00 00                	add    BYTE PTR [rax],al
    6960:	16                   	(bad)  
    6961:	4b 11 00             	rex.WXB adc QWORD PTR [r8],rax
    6964:	00 00                	add    BYTE PTR [rax],al
    6966:	00 00                	add    BYTE PTR [rax],al
    6968:	16                   	(bad)  
    6969:	4b 11 00             	rex.WXB adc QWORD PTR [r8],rax
    696c:	00 00                	add    BYTE PTR [rax],al
    696e:	00 00                	add    BYTE PTR [rax],al
    6970:	16                   	(bad)  
    6971:	4b 11 00             	rex.WXB adc QWORD PTR [r8],rax
    6974:	00 00                	add    BYTE PTR [rax],al
    6976:	00 00                	add    BYTE PTR [rax],al
    6978:	16                   	(bad)  
    6979:	4b 11 00             	rex.WXB adc QWORD PTR [r8],rax
    697c:	00 00                	add    BYTE PTR [rax],al
    697e:	00 00                	add    BYTE PTR [rax],al
    6980:	16                   	(bad)  
    6981:	4b 11 00             	rex.WXB adc QWORD PTR [r8],rax
    6984:	00 00                	add    BYTE PTR [rax],al
    6986:	00 00                	add    BYTE PTR [rax],al
    6988:	16                   	(bad)  
    6989:	4b 11 00             	rex.WXB adc QWORD PTR [r8],rax
    698c:	00 00                	add    BYTE PTR [rax],al
    698e:	00 00                	add    BYTE PTR [rax],al
    6990:	16                   	(bad)  
    6991:	4b 11 00             	rex.WXB adc QWORD PTR [r8],rax
    6994:	00 00                	add    BYTE PTR [rax],al
    6996:	00 00                	add    BYTE PTR [rax],al
    6998:	16                   	(bad)  
    6999:	4b 11 00             	rex.WXB adc QWORD PTR [r8],rax
    699c:	00 00                	add    BYTE PTR [rax],al
    699e:	00 00                	add    BYTE PTR [rax],al
    69a0:	16                   	(bad)  
    69a1:	4b 11 00             	rex.WXB adc QWORD PTR [r8],rax
    69a4:	00 00                	add    BYTE PTR [rax],al
    69a6:	00 00                	add    BYTE PTR [rax],al
    69a8:	16                   	(bad)  
    69a9:	4b 11 00             	rex.WXB adc QWORD PTR [r8],rax
    69ac:	00 00                	add    BYTE PTR [rax],al
    69ae:	00 00                	add    BYTE PTR [rax],al
    69b0:	16                   	(bad)  
    69b1:	4b 11 00             	rex.WXB adc QWORD PTR [r8],rax
    69b4:	00 00                	add    BYTE PTR [rax],al
    69b6:	00 00                	add    BYTE PTR [rax],al
    69b8:	16                   	(bad)  
    69b9:	4b 11 00             	rex.WXB adc QWORD PTR [r8],rax
    69bc:	00 00                	add    BYTE PTR [rax],al
    69be:	00 00                	add    BYTE PTR [rax],al
    69c0:	16                   	(bad)  
    69c1:	4b 11 00             	rex.WXB adc QWORD PTR [r8],rax
    69c4:	00 00                	add    BYTE PTR [rax],al
    69c6:	00 00                	add    BYTE PTR [rax],al
    69c8:	16                   	(bad)  
    69c9:	4b 11 00             	rex.WXB adc QWORD PTR [r8],rax
    69cc:	00 00                	add    BYTE PTR [rax],al
    69ce:	00 00                	add    BYTE PTR [rax],al
    69d0:	0c 4b                	or     al,0x4b
    69d2:	11 00                	adc    DWORD PTR [rax],eax
    69d4:	00 00                	add    BYTE PTR [rax],al
    69d6:	00 00                	add    BYTE PTR [rax],al
    69d8:	16                   	(bad)  
    69d9:	4b 11 00             	rex.WXB adc QWORD PTR [r8],rax
    69dc:	00 00                	add    BYTE PTR [rax],al
    69de:	00 00                	add    BYTE PTR [rax],al
    69e0:	16                   	(bad)  
    69e1:	4b 11 00             	rex.WXB adc QWORD PTR [r8],rax
    69e4:	00 00                	add    BYTE PTR [rax],al
    69e6:	00 00                	add    BYTE PTR [rax],al
    69e8:	16                   	(bad)  
    69e9:	4b 11 00             	rex.WXB adc QWORD PTR [r8],rax
    69ec:	00 00                	add    BYTE PTR [rax],al
    69ee:	00 00                	add    BYTE PTR [rax],al
    69f0:	16                   	(bad)  
    69f1:	4b 11 00             	rex.WXB adc QWORD PTR [r8],rax
    69f4:	00 00                	add    BYTE PTR [rax],al
    69f6:	00 00                	add    BYTE PTR [rax],al
    69f8:	16                   	(bad)  
    69f9:	4b 11 00             	rex.WXB adc QWORD PTR [r8],rax
    69fc:	00 00                	add    BYTE PTR [rax],al
    69fe:	00 00                	add    BYTE PTR [rax],al
    6a00:	16                   	(bad)  
    6a01:	4b 11 00             	rex.WXB adc QWORD PTR [r8],rax
    6a04:	00 00                	add    BYTE PTR [rax],al
    6a06:	00 00                	add    BYTE PTR [rax],al
    6a08:	16                   	(bad)  
    6a09:	4b 11 00             	rex.WXB adc QWORD PTR [r8],rax
    6a0c:	00 00                	add    BYTE PTR [rax],al
    6a0e:	00 00                	add    BYTE PTR [rax],al
    6a10:	16                   	(bad)  
    6a11:	4b 11 00             	rex.WXB adc QWORD PTR [r8],rax
    6a14:	00 00                	add    BYTE PTR [rax],al
    6a16:	00 00                	add    BYTE PTR [rax],al
    6a18:	16                   	(bad)  
    6a19:	4b 11 00             	rex.WXB adc QWORD PTR [r8],rax
    6a1c:	00 00                	add    BYTE PTR [rax],al
    6a1e:	00 00                	add    BYTE PTR [rax],al
    6a20:	b8 4a 11 00 00       	mov    eax,0x114a
    6a25:	00 00                	add    BYTE PTR [rax],al
    6a27:	00 69 4f             	add    BYTE PTR [rcx+0x4f],ch
    6a2a:	11 00                	adc    DWORD PTR [rax],eax
    6a2c:	00 00                	add    BYTE PTR [rax],al
    6a2e:	00 00                	add    BYTE PTR [rax],al
    6a30:	69 4f 11 00 00 00 00 	imul   ecx,DWORD PTR [rdi+0x11],0x0
    6a37:	00 9f 4c 11 00 00    	add    BYTE PTR [rdi+0x114c],bl
    6a3d:	00 00                	add    BYTE PTR [rax],al
    6a3f:	00 a9 4c 11 00 00    	add    BYTE PTR [rcx+0x114c],ch
    6a45:	00 00                	add    BYTE PTR [rax],al
    6a47:	00 b3 4c 11 00 00    	add    BYTE PTR [rbx+0x114c],dh
    6a4d:	00 00                	add    BYTE PTR [rax],al
    6a4f:	00 bd 4c 11 00 00    	add    BYTE PTR [rbp+0x114c],bh
    6a55:	00 00                	add    BYTE PTR [rax],al
    6a57:	00 c7                	add    bh,al
    6a59:	4c 11 00             	adc    QWORD PTR [rax],r8
    6a5c:	00 00                	add    BYTE PTR [rax],al
    6a5e:	00 00                	add    BYTE PTR [rax],al
    6a60:	d1 4c 11 00          	ror    DWORD PTR [rcx+rdx*1+0x0],1
    6a64:	00 00                	add    BYTE PTR [rax],al
    6a66:	00 00                	add    BYTE PTR [rax],al
    6a68:	db 4c 11 00          	fisttp DWORD PTR [rcx+rdx*1+0x0]
    6a6c:	00 00                	add    BYTE PTR [rax],al
    6a6e:	00 00                	add    BYTE PTR [rax],al
    6a70:	e5 4c                	in     eax,0x4c
    6a72:	11 00                	adc    DWORD PTR [rax],eax
    6a74:	00 00                	add    BYTE PTR [rax],al
    6a76:	00 00                	add    BYTE PTR [rax],al
    6a78:	ef                   	out    dx,eax
    6a79:	4c 11 00             	adc    QWORD PTR [rax],r8
    6a7c:	00 00                	add    BYTE PTR [rax],al
    6a7e:	00 00                	add    BYTE PTR [rax],al
    6a80:	95                   	xchg   ebp,eax
    6a81:	4c 11 00             	adc    QWORD PTR [rax],r8
    6a84:	00 00                	add    BYTE PTR [rax],al
    6a86:	00 00                	add    BYTE PTR [rax],al
    6a88:	f9                   	stc    
    6a89:	4c 11 00             	adc    QWORD PTR [rax],r8
    6a8c:	00 00                	add    BYTE PTR [rax],al
    6a8e:	00 00                	add    BYTE PTR [rax],al
    6a90:	03 4d 11             	add    ecx,DWORD PTR [rbp+0x11]
    6a93:	00 00                	add    BYTE PTR [rax],al
    6a95:	00 00                	add    BYTE PTR [rax],al
    6a97:	00 21                	add    BYTE PTR [rcx],ah
    6a99:	4d 11 00             	adc    QWORD PTR [r8],r8
    6a9c:	00 00                	add    BYTE PTR [rax],al
    6a9e:	00 00                	add    BYTE PTR [rax],al
    6aa0:	69 4f 11 00 00 00 00 	imul   ecx,DWORD PTR [rdi+0x11],0x0
    6aa7:	00 31                	add    BYTE PTR [rcx],dh
    6aa9:	4c 11 00             	adc    QWORD PTR [rax],r8
    6aac:	00 00                	add    BYTE PTR [rax],al
    6aae:	00 00                	add    BYTE PTR [rax],al
    6ab0:	6d                   	ins    DWORD PTR es:[rdi],dx
    6ab1:	4c 11 00             	adc    QWORD PTR [rax],r8
    6ab4:	00 00                	add    BYTE PTR [rax],al
    6ab6:	00 00                	add    BYTE PTR [rax],al
    6ab8:	b9 4b 11 00 00       	mov    ecx,0x114b
    6abd:	00 00                	add    BYTE PTR [rax],al
    6abf:	00 3b                	add    BYTE PTR [rbx],bh
    6ac1:	4c 11 00             	adc    QWORD PTR [rax],r8
    6ac4:	00 00                	add    BYTE PTR [rax],al
    6ac6:	00 00                	add    BYTE PTR [rax],al
    6ac8:	4f                   	rex.WRXB
    6ac9:	4c 11 00             	adc    QWORD PTR [rax],r8
    6acc:	00 00                	add    BYTE PTR [rax],al
    6ace:	00 00                	add    BYTE PTR [rax],al
    6ad0:	81 4c 11 00 00 00 00 	or     DWORD PTR [rcx+rdx*1+0x0],0x0
    6ad7:	00 
    6ad8:	59                   	pop    rcx
    6ad9:	4c 11 00             	adc    QWORD PTR [rax],r8
    6adc:	00 00                	add    BYTE PTR [rax],al
    6ade:	00 00                	add    BYTE PTR [rax],al
    6ae0:	e1 4b                	loope  0x6b2d
    6ae2:	11 00                	adc    DWORD PTR [rax],eax
    6ae4:	00 00                	add    BYTE PTR [rax],al
    6ae6:	00 00                	add    BYTE PTR [rax],al
    6ae8:	1d 4c 11 00 00       	sbb    eax,0x114c
    6aed:	00 00                	add    BYTE PTR [rax],al
    6aef:	00 27                	add    BYTE PTR [rdi],ah
    6af1:	4c 11 00             	adc    QWORD PTR [rax],r8
    6af4:	00 00                	add    BYTE PTR [rax],al
    6af6:	00 00                	add    BYTE PTR [rax],al
    6af8:	3f                   	(bad)  
    6af9:	4d 11 00             	adc    QWORD PTR [r8],r8
    6afc:	00 00                	add    BYTE PTR [rax],al
    6afe:	00 00                	add    BYTE PTR [rax],al
    6b00:	49                   	rex.WB
    6b01:	4d 11 00             	adc    QWORD PTR [r8],r8
    6b04:	00 00                	add    BYTE PTR [rax],al
    6b06:	00 00                	add    BYTE PTR [rax],al
    6b08:	35 4d 11 00 00       	xor    eax,0x114d
    6b0d:	00 00                	add    BYTE PTR [rax],al
    6b0f:	00 69 4f             	add    BYTE PTR [rcx+0x4f],ch
    6b12:	11 00                	adc    DWORD PTR [rax],eax
    6b14:	00 00                	add    BYTE PTR [rax],al
    6b16:	00 00                	add    BYTE PTR [rax],al
    6b18:	91                   	xchg   ecx,eax
    6b19:	4b 11 00             	rex.WXB adc QWORD PTR [r8],rax
    6b1c:	00 00                	add    BYTE PTR [rax],al
    6b1e:	00 00                	add    BYTE PTR [rax],al
    6b20:	45                   	rex.RB
    6b21:	4c 11 00             	adc    QWORD PTR [rax],r8
    6b24:	00 00                	add    BYTE PTR [rax],al
    6b26:	00 00                	add    BYTE PTR [rax],al
    6b28:	af                   	scas   eax,DWORD PTR es:[rdi]
    6b29:	4b 11 00             	rex.WXB adc QWORD PTR [r8],rax
    6b2c:	00 00                	add    BYTE PTR [rax],al
    6b2e:	00 00                	add    BYTE PTR [rax],al
    6b30:	c3                   	ret    
    6b31:	4b 11 00             	rex.WXB adc QWORD PTR [r8],rax
    6b34:	00 00                	add    BYTE PTR [rax],al
    6b36:	00 00                	add    BYTE PTR [rax],al
    6b38:	cd 4b                	int    0x4b
    6b3a:	11 00                	adc    DWORD PTR [rax],eax
    6b3c:	00 00                	add    BYTE PTR [rax],al
    6b3e:	00 00                	add    BYTE PTR [rax],al
    6b40:	d7                   	xlat   BYTE PTR ds:[rbx]
    6b41:	4b 11 00             	rex.WXB adc QWORD PTR [r8],rax
    6b44:	00 00                	add    BYTE PTR [rax],al
    6b46:	00 00                	add    BYTE PTR [rax],al
    6b48:	eb 4b                	jmp    0x6b95
    6b4a:	11 00                	adc    DWORD PTR [rax],eax
    6b4c:	00 00                	add    BYTE PTR [rax],al
    6b4e:	00 00                	add    BYTE PTR [rax],al
    6b50:	f5                   	cmc    
    6b51:	4b 11 00             	rex.WXB adc QWORD PTR [r8],rax
    6b54:	00 00                	add    BYTE PTR [rax],al
    6b56:	00 00                	add    BYTE PTR [rax],al
    6b58:	ff 4b 11             	dec    DWORD PTR [rbx+0x11]
    6b5b:	00 00                	add    BYTE PTR [rax],al
    6b5d:	00 00                	add    BYTE PTR [rax],al
    6b5f:	00 53 4d             	add    BYTE PTR [rbx+0x4d],dl
    6b62:	11 00                	adc    DWORD PTR [rax],eax
    6b64:	00 00                	add    BYTE PTR [rax],al
    6b66:	00 00                	add    BYTE PTR [rax],al
    6b68:	5d                   	pop    rbp
    6b69:	4d 11 00             	adc    QWORD PTR [r8],r8
    6b6c:	00 00                	add    BYTE PTR [rax],al
    6b6e:	00 00                	add    BYTE PTR [rax],al
    6b70:	69 4f 11 00 00 00 00 	imul   ecx,DWORD PTR [rdi+0x11],0x0
    6b77:	00 69 4f             	add    BYTE PTR [rcx+0x4f],ch
    6b7a:	11 00                	adc    DWORD PTR [rax],eax
    6b7c:	00 00                	add    BYTE PTR [rax],al
    6b7e:	00 00                	add    BYTE PTR [rax],al
    6b80:	17                   	(bad)  
    6b81:	4d 11 00             	adc    QWORD PTR [r8],r8
    6b84:	00 00                	add    BYTE PTR [rax],al
    6b86:	00 00                	add    BYTE PTR [rax],al
    6b88:	8b 4c 11 00          	mov    ecx,DWORD PTR [rcx+rdx*1+0x0]
    6b8c:	00 00                	add    BYTE PTR [rax],al
    6b8e:	00 00                	add    BYTE PTR [rax],al
    6b90:	77 4c                	ja     0x6bde
    6b92:	11 00                	adc    DWORD PTR [rax],eax
    6b94:	00 00                	add    BYTE PTR [rax],al
    6b96:	00 00                	add    BYTE PTR [rax],al
    6b98:	a5                   	movs   DWORD PTR es:[rdi],DWORD PTR ds:[rsi]
    6b99:	4b 11 00             	rex.WXB adc QWORD PTR [r8],rax
    6b9c:	00 00                	add    BYTE PTR [rax],al
    6b9e:	00 00                	add    BYTE PTR [rax],al
    6ba0:	63 4c 11 00          	movsxd ecx,DWORD PTR [rcx+rdx*1+0x0]
    6ba4:	00 00                	add    BYTE PTR [rax],al
    6ba6:	00 00                	add    BYTE PTR [rax],al
    6ba8:	9b                   	fwait
    6ba9:	4b 11 00             	rex.WXB adc QWORD PTR [r8],rax
    6bac:	00 00                	add    BYTE PTR [rax],al
    6bae:	00 00                	add    BYTE PTR [rax],al
    6bb0:	13 4c 11 00          	adc    ecx,DWORD PTR [rcx+rdx*1+0x0]
    6bb4:	00 00                	add    BYTE PTR [rax],al
    6bb6:	00 00                	add    BYTE PTR [rax],al
    6bb8:	09 4c 11 00          	or     DWORD PTR [rcx+rdx*1+0x0],ecx
    6bbc:	00 00                	add    BYTE PTR [rax],al
    6bbe:	00 00                	add    BYTE PTR [rax],al
    6bc0:	67 4d 11 00          	adc    QWORD PTR [r8d],r8
    6bc4:	00 00                	add    BYTE PTR [rax],al
    6bc6:	00 00                	add    BYTE PTR [rax],al
    6bc8:	71 4d                	jno    0x6c17
    6bca:	11 00                	adc    DWORD PTR [rax],eax
    6bcc:	00 00                	add    BYTE PTR [rax],al
    6bce:	00 00                	add    BYTE PTR [rax],al
    6bd0:	7b 4d                	jnp    0x6c1f
    6bd2:	11 00                	adc    DWORD PTR [rax],eax
    6bd4:	00 00                	add    BYTE PTR [rax],al
    6bd6:	00 00                	add    BYTE PTR [rax],al
    6bd8:	69 4f 11 00 00 00 00 	imul   ecx,DWORD PTR [rdi+0x11],0x0
    6bdf:	00 69 4f             	add    BYTE PTR [rcx+0x4f],ch
    6be2:	11 00                	adc    DWORD PTR [rax],eax
    6be4:	00 00                	add    BYTE PTR [rax],al
    6be6:	00 00                	add    BYTE PTR [rax],al
    6be8:	69 4f 11 00 00 00 00 	imul   ecx,DWORD PTR [rdi+0x11],0x0
    6bef:	00 2b                	add    BYTE PTR [rbx],ch
    6bf1:	4d 11 00             	adc    QWORD PTR [r8],r8
    6bf4:	00 00                	add    BYTE PTR [rax],al
    6bf6:	00 00                	add    BYTE PTR [rax],al
    6bf8:	69 4f 11 00 00 00 00 	imul   ecx,DWORD PTR [rdi+0x11],0x0
    6bff:	00 69 4f             	add    BYTE PTR [rcx+0x4f],ch
    6c02:	11 00                	adc    DWORD PTR [rax],eax
    6c04:	00 00                	add    BYTE PTR [rax],al
    6c06:	00 00                	add    BYTE PTR [rax],al
    6c08:	69 4f 11 00 00 00 00 	imul   ecx,DWORD PTR [rdi+0x11],0x0
    6c0f:	00 69 4f             	add    BYTE PTR [rcx+0x4f],ch
    6c12:	11 00                	adc    DWORD PTR [rax],eax
    6c14:	00 00                	add    BYTE PTR [rax],al
    6c16:	00 00                	add    BYTE PTR [rax],al
    6c18:	69 4f 11 00 00 00 00 	imul   ecx,DWORD PTR [rdi+0x11],0x0
    6c1f:	00 69 4f             	add    BYTE PTR [rcx+0x4f],ch
    6c22:	11 00                	adc    DWORD PTR [rax],eax
    6c24:	00 00                	add    BYTE PTR [rax],al
    6c26:	00 00                	add    BYTE PTR [rax],al
    6c28:	69 4f 11 00 00 00 00 	imul   ecx,DWORD PTR [rdi+0x11],0x0
    6c2f:	00 69 4f             	add    BYTE PTR [rcx+0x4f],ch
    6c32:	11 00                	adc    DWORD PTR [rax],eax
    6c34:	00 00                	add    BYTE PTR [rax],al
    6c36:	00 00                	add    BYTE PTR [rax],al
    6c38:	69 4f 11 00 00 00 00 	imul   ecx,DWORD PTR [rdi+0x11],0x0
    6c3f:	00 69 4f             	add    BYTE PTR [rcx+0x4f],ch
    6c42:	11 00                	adc    DWORD PTR [rax],eax
    6c44:	00 00                	add    BYTE PTR [rax],al
    6c46:	00 00                	add    BYTE PTR [rax],al
    6c48:	69 4f 11 00 00 00 00 	imul   ecx,DWORD PTR [rdi+0x11],0x0
    6c4f:	00 69 4f             	add    BYTE PTR [rcx+0x4f],ch
    6c52:	11 00                	adc    DWORD PTR [rax],eax
    6c54:	00 00                	add    BYTE PTR [rax],al
    6c56:	00 00                	add    BYTE PTR [rax],al
    6c58:	69 4f 11 00 00 00 00 	imul   ecx,DWORD PTR [rdi+0x11],0x0
    6c5f:	00 69 4f             	add    BYTE PTR [rcx+0x4f],ch
    6c62:	11 00                	adc    DWORD PTR [rax],eax
    6c64:	00 00                	add    BYTE PTR [rax],al
    6c66:	00 00                	add    BYTE PTR [rax],al
    6c68:	69 4f 11 00 00 00 00 	imul   ecx,DWORD PTR [rdi+0x11],0x0
    6c6f:	00 69 4f             	add    BYTE PTR [rcx+0x4f],ch
    6c72:	11 00                	adc    DWORD PTR [rax],eax
    6c74:	00 00                	add    BYTE PTR [rax],al
    6c76:	00 00                	add    BYTE PTR [rax],al
    6c78:	69 4f 11 00 00 00 00 	imul   ecx,DWORD PTR [rdi+0x11],0x0
    6c7f:	00 69 4f             	add    BYTE PTR [rcx+0x4f],ch
    6c82:	11 00                	adc    DWORD PTR [rax],eax
    6c84:	00 00                	add    BYTE PTR [rax],al
    6c86:	00 00                	add    BYTE PTR [rax],al
    6c88:	69 4f 11 00 00 00 00 	imul   ecx,DWORD PTR [rdi+0x11],0x0
    6c8f:	00 69 4f             	add    BYTE PTR [rcx+0x4f],ch
    6c92:	11 00                	adc    DWORD PTR [rax],eax
    6c94:	00 00                	add    BYTE PTR [rax],al
    6c96:	00 00                	add    BYTE PTR [rax],al
    6c98:	69 4f 11 00 00 00 00 	imul   ecx,DWORD PTR [rdi+0x11],0x0
    6c9f:	00 69 4f             	add    BYTE PTR [rcx+0x4f],ch
    6ca2:	11 00                	adc    DWORD PTR [rax],eax
    6ca4:	00 00                	add    BYTE PTR [rax],al
    6ca6:	00 00                	add    BYTE PTR [rax],al
    6ca8:	69 4f 11 00 00 00 00 	imul   ecx,DWORD PTR [rdi+0x11],0x0
    6caf:	00 69 4f             	add    BYTE PTR [rcx+0x4f],ch
    6cb2:	11 00                	adc    DWORD PTR [rax],eax
    6cb4:	00 00                	add    BYTE PTR [rax],al
    6cb6:	00 00                	add    BYTE PTR [rax],al
    6cb8:	69 4f 11 00 00 00 00 	imul   ecx,DWORD PTR [rdi+0x11],0x0
    6cbf:	00 69 4f             	add    BYTE PTR [rcx+0x4f],ch
    6cc2:	11 00                	adc    DWORD PTR [rax],eax
    6cc4:	00 00                	add    BYTE PTR [rax],al
    6cc6:	00 00                	add    BYTE PTR [rax],al
    6cc8:	69 4f 11 00 00 00 00 	imul   ecx,DWORD PTR [rdi+0x11],0x0
    6ccf:	00 69 4f             	add    BYTE PTR [rcx+0x4f],ch
    6cd2:	11 00                	adc    DWORD PTR [rax],eax
    6cd4:	00 00                	add    BYTE PTR [rax],al
    6cd6:	00 00                	add    BYTE PTR [rax],al
    6cd8:	69 4f 11 00 00 00 00 	imul   ecx,DWORD PTR [rdi+0x11],0x0
    6cdf:	00 69 4f             	add    BYTE PTR [rcx+0x4f],ch
    6ce2:	11 00                	adc    DWORD PTR [rax],eax
    6ce4:	00 00                	add    BYTE PTR [rax],al
    6ce6:	00 00                	add    BYTE PTR [rax],al
    6ce8:	69 4f 11 00 00 00 00 	imul   ecx,DWORD PTR [rdi+0x11],0x0
    6cef:	00 69 4f             	add    BYTE PTR [rcx+0x4f],ch
    6cf2:	11 00                	adc    DWORD PTR [rax],eax
    6cf4:	00 00                	add    BYTE PTR [rax],al
    6cf6:	00 00                	add    BYTE PTR [rax],al
    6cf8:	69 4f 11 00 00 00 00 	imul   ecx,DWORD PTR [rdi+0x11],0x0
    6cff:	00 69 4f             	add    BYTE PTR [rcx+0x4f],ch
    6d02:	11 00                	adc    DWORD PTR [rax],eax
    6d04:	00 00                	add    BYTE PTR [rax],al
    6d06:	00 00                	add    BYTE PTR [rax],al
    6d08:	69 4f 11 00 00 00 00 	imul   ecx,DWORD PTR [rdi+0x11],0x0
    6d0f:	00 69 4f             	add    BYTE PTR [rcx+0x4f],ch
    6d12:	11 00                	adc    DWORD PTR [rax],eax
    6d14:	00 00                	add    BYTE PTR [rax],al
    6d16:	00 00                	add    BYTE PTR [rax],al
    6d18:	69 4f 11 00 00 00 00 	imul   ecx,DWORD PTR [rdi+0x11],0x0
    6d1f:	00 69 4f             	add    BYTE PTR [rcx+0x4f],ch
    6d22:	11 00                	adc    DWORD PTR [rax],eax
    6d24:	00 00                	add    BYTE PTR [rax],al
    6d26:	00 00                	add    BYTE PTR [rax],al
    6d28:	69 4f 11 00 00 00 00 	imul   ecx,DWORD PTR [rdi+0x11],0x0
    6d2f:	00 69 4f             	add    BYTE PTR [rcx+0x4f],ch
    6d32:	11 00                	adc    DWORD PTR [rax],eax
    6d34:	00 00                	add    BYTE PTR [rax],al
    6d36:	00 00                	add    BYTE PTR [rax],al
    6d38:	69 4f 11 00 00 00 00 	imul   ecx,DWORD PTR [rdi+0x11],0x0
    6d3f:	00 69 4f             	add    BYTE PTR [rcx+0x4f],ch
    6d42:	11 00                	adc    DWORD PTR [rax],eax
    6d44:	00 00                	add    BYTE PTR [rax],al
    6d46:	00 00                	add    BYTE PTR [rax],al
    6d48:	69 4f 11 00 00 00 00 	imul   ecx,DWORD PTR [rdi+0x11],0x0
    6d4f:	00 69 4f             	add    BYTE PTR [rcx+0x4f],ch
    6d52:	11 00                	adc    DWORD PTR [rax],eax
    6d54:	00 00                	add    BYTE PTR [rax],al
    6d56:	00 00                	add    BYTE PTR [rax],al
    6d58:	69 4f 11 00 00 00 00 	imul   ecx,DWORD PTR [rdi+0x11],0x0
    6d5f:	00 69 4f             	add    BYTE PTR [rcx+0x4f],ch
    6d62:	11 00                	adc    DWORD PTR [rax],eax
    6d64:	00 00                	add    BYTE PTR [rax],al
    6d66:	00 00                	add    BYTE PTR [rax],al
    6d68:	69 4f 11 00 00 00 00 	imul   ecx,DWORD PTR [rdi+0x11],0x0
    6d6f:	00 69 4f             	add    BYTE PTR [rcx+0x4f],ch
    6d72:	11 00                	adc    DWORD PTR [rax],eax
    6d74:	00 00                	add    BYTE PTR [rax],al
    6d76:	00 00                	add    BYTE PTR [rax],al
    6d78:	69 4f 11 00 00 00 00 	imul   ecx,DWORD PTR [rdi+0x11],0x0
    6d7f:	00 69 4f             	add    BYTE PTR [rcx+0x4f],ch
    6d82:	11 00                	adc    DWORD PTR [rax],eax
    6d84:	00 00                	add    BYTE PTR [rax],al
    6d86:	00 00                	add    BYTE PTR [rax],al
    6d88:	69 4f 11 00 00 00 00 	imul   ecx,DWORD PTR [rdi+0x11],0x0
    6d8f:	00 69 4f             	add    BYTE PTR [rcx+0x4f],ch
    6d92:	11 00                	adc    DWORD PTR [rax],eax
    6d94:	00 00                	add    BYTE PTR [rax],al
    6d96:	00 00                	add    BYTE PTR [rax],al
    6d98:	69 4f 11 00 00 00 00 	imul   ecx,DWORD PTR [rdi+0x11],0x0
    6d9f:	00 69 4f             	add    BYTE PTR [rcx+0x4f],ch
    6da2:	11 00                	adc    DWORD PTR [rax],eax
    6da4:	00 00                	add    BYTE PTR [rax],al
    6da6:	00 00                	add    BYTE PTR [rax],al
    6da8:	69 4f 11 00 00 00 00 	imul   ecx,DWORD PTR [rdi+0x11],0x0
    6daf:	00 69 4f             	add    BYTE PTR [rcx+0x4f],ch
    6db2:	11 00                	adc    DWORD PTR [rax],eax
    6db4:	00 00                	add    BYTE PTR [rax],al
    6db6:	00 00                	add    BYTE PTR [rax],al
    6db8:	69 4f 11 00 00 00 00 	imul   ecx,DWORD PTR [rdi+0x11],0x0
    6dbf:	00 85 4d 11 00 00    	add    BYTE PTR [rbp+0x114d],al
    6dc5:	00 00                	add    BYTE PTR [rax],al
    6dc7:	00 69 4f             	add    BYTE PTR [rcx+0x4f],ch
    6dca:	11 00                	adc    DWORD PTR [rax],eax
    6dcc:	00 00                	add    BYTE PTR [rax],al
    6dce:	00 00                	add    BYTE PTR [rax],al
    6dd0:	69 4f 11 00 00 00 00 	imul   ecx,DWORD PTR [rdi+0x11],0x0
    6dd7:	00 69 4f             	add    BYTE PTR [rcx+0x4f],ch
    6dda:	11 00                	adc    DWORD PTR [rax],eax
    6ddc:	00 00                	add    BYTE PTR [rax],al
    6dde:	00 00                	add    BYTE PTR [rax],al
    6de0:	69 4f 11 00 00 00 00 	imul   ecx,DWORD PTR [rdi+0x11],0x0
    6de7:	00 69 4f             	add    BYTE PTR [rcx+0x4f],ch
    6dea:	11 00                	adc    DWORD PTR [rax],eax
    6dec:	00 00                	add    BYTE PTR [rax],al
    6dee:	00 00                	add    BYTE PTR [rax],al
    6df0:	69 4f 11 00 00 00 00 	imul   ecx,DWORD PTR [rdi+0x11],0x0
    6df7:	00 69 4f             	add    BYTE PTR [rcx+0x4f],ch
    6dfa:	11 00                	adc    DWORD PTR [rax],eax
    6dfc:	00 00                	add    BYTE PTR [rax],al
    6dfe:	00 00                	add    BYTE PTR [rax],al
    6e00:	69 4f 11 00 00 00 00 	imul   ecx,DWORD PTR [rdi+0x11],0x0
    6e07:	00 69 4f             	add    BYTE PTR [rcx+0x4f],ch
    6e0a:	11 00                	adc    DWORD PTR [rax],eax
    6e0c:	00 00                	add    BYTE PTR [rax],al
    6e0e:	00 00                	add    BYTE PTR [rax],al
    6e10:	0d 4d 11 00 00       	or     eax,0x114d
    6e15:	00 00                	add    BYTE PTR [rax],al
    6e17:	00 6c 4f 11          	add    BYTE PTR [rdi+rcx*2+0x11],ch
    6e1b:	00 00                	add    BYTE PTR [rax],al
    6e1d:	00 00                	add    BYTE PTR [rax],al
    6e1f:	00 6c 4f 11          	add    BYTE PTR [rdi+rcx*2+0x11],ch
    6e23:	00 00                	add    BYTE PTR [rax],al
    6e25:	00 00                	add    BYTE PTR [rax],al
    6e27:	00 ac 4e 11 00 00 00 	add    BYTE PTR [rsi+rcx*2+0x11],ch
    6e2e:	00 00                	add    BYTE PTR [rax],al
    6e30:	b6 4e                	mov    dh,0x4e
    6e32:	11 00                	adc    DWORD PTR [rax],eax
    6e34:	00 00                	add    BYTE PTR [rax],al
    6e36:	00 00                	add    BYTE PTR [rax],al
    6e38:	c0 4e 11 00          	ror    BYTE PTR [rsi+0x11],0x0
    6e3c:	00 00                	add    BYTE PTR [rax],al
    6e3e:	00 00                	add    BYTE PTR [rax],al
    6e40:	ca 4e 11             	retf   0x114e
    6e43:	00 00                	add    BYTE PTR [rax],al
    6e45:	00 00                	add    BYTE PTR [rax],al
    6e47:	00 d4                	add    ah,dl
    6e49:	4e 11 00             	rex.WRX adc QWORD PTR [rax],r8
    6e4c:	00 00                	add    BYTE PTR [rax],al
    6e4e:	00 00                	add    BYTE PTR [rax],al
    6e50:	de 4e 11             	fimul  WORD PTR [rsi+0x11]
    6e53:	00 00                	add    BYTE PTR [rax],al
    6e55:	00 00                	add    BYTE PTR [rax],al
    6e57:	00 e8                	add    al,ch
    6e59:	4e 11 00             	rex.WRX adc QWORD PTR [rax],r8
    6e5c:	00 00                	add    BYTE PTR [rax],al
    6e5e:	00 00                	add    BYTE PTR [rax],al
    6e60:	f2 4e 11 00          	repnz rex.WRX adc QWORD PTR [rax],r8
    6e64:	00 00                	add    BYTE PTR [rax],al
    6e66:	00 00                	add    BYTE PTR [rax],al
    6e68:	f9                   	stc    
    6e69:	4e 11 00             	rex.WRX adc QWORD PTR [rax],r8
    6e6c:	00 00                	add    BYTE PTR [rax],al
    6e6e:	00 00                	add    BYTE PTR [rax],al
    6e70:	6c                   	ins    BYTE PTR es:[rdi],dx
    6e71:	4f 11 00             	rex.WRXB adc QWORD PTR [r8],r8
    6e74:	00 00                	add    BYTE PTR [rax],al
    6e76:	00 00                	add    BYTE PTR [rax],al
    6e78:	00 4f 11             	add    BYTE PTR [rdi+0x11],cl
    6e7b:	00 00                	add    BYTE PTR [rax],al
    6e7d:	00 00                	add    BYTE PTR [rax],al
    6e7f:	00 07                	add    BYTE PTR [rdi],al
    6e81:	4f 11 00             	rex.WRXB adc QWORD PTR [r8],r8
    6e84:	00 00                	add    BYTE PTR [rax],al
    6e86:	00 00                	add    BYTE PTR [rax],al
    6e88:	1c 4f                	sbb    al,0x4f
    6e8a:	11 00                	adc    DWORD PTR [rax],eax
    6e8c:	00 00                	add    BYTE PTR [rax],al
    6e8e:	00 00                	add    BYTE PTR [rax],al
    6e90:	6c                   	ins    BYTE PTR es:[rdi],dx
    6e91:	4f 11 00             	rex.WRXB adc QWORD PTR [r8],r8
    6e94:	00 00                	add    BYTE PTR [rax],al
    6e96:	00 00                	add    BYTE PTR [rax],al
    6e98:	48                   	rex.W
    6e99:	4e 11 00             	rex.WRX adc QWORD PTR [rax],r8
    6e9c:	00 00                	add    BYTE PTR [rax],al
    6e9e:	00 00                	add    BYTE PTR [rax],al
    6ea0:	84 4e 11             	test   BYTE PTR [rsi+0x11],cl
    6ea3:	00 00                	add    BYTE PTR [rax],al
    6ea5:	00 00                	add    BYTE PTR [rax],al
    6ea7:	00 d0                	add    al,dl
    6ea9:	4d 11 00             	adc    QWORD PTR [r8],r8
    6eac:	00 00                	add    BYTE PTR [rax],al
    6eae:	00 00                	add    BYTE PTR [rax],al
    6eb0:	52                   	push   rdx
    6eb1:	4e 11 00             	rex.WRX adc QWORD PTR [rax],r8
    6eb4:	00 00                	add    BYTE PTR [rax],al
    6eb6:	00 00                	add    BYTE PTR [rax],al
    6eb8:	66 4e 11 00          	data16 rex.WRX adc QWORD PTR [rax],r8
    6ebc:	00 00                	add    BYTE PTR [rax],al
    6ebe:	00 00                	add    BYTE PTR [rax],al
    6ec0:	98                   	cwde   
    6ec1:	4e 11 00             	rex.WRX adc QWORD PTR [rax],r8
    6ec4:	00 00                	add    BYTE PTR [rax],al
    6ec6:	00 00                	add    BYTE PTR [rax],al
    6ec8:	70 4e                	jo     0x6f18
    6eca:	11 00                	adc    DWORD PTR [rax],eax
    6ecc:	00 00                	add    BYTE PTR [rax],al
    6ece:	00 00                	add    BYTE PTR [rax],al
    6ed0:	f8                   	clc    
    6ed1:	4d 11 00             	adc    QWORD PTR [r8],r8
    6ed4:	00 00                	add    BYTE PTR [rax],al
    6ed6:	00 00                	add    BYTE PTR [rax],al
    6ed8:	34 4e                	xor    al,0x4e
    6eda:	11 00                	adc    DWORD PTR [rax],eax
    6edc:	00 00                	add    BYTE PTR [rax],al
    6ede:	00 00                	add    BYTE PTR [rax],al
    6ee0:	3e 4e 11 00          	rex.WRX adc QWORD PTR ds:[rax],r8
    6ee4:	00 00                	add    BYTE PTR [rax],al
    6ee6:	00 00                	add    BYTE PTR [rax],al
    6ee8:	31 4f 11             	xor    DWORD PTR [rdi+0x11],ecx
    6eeb:	00 00                	add    BYTE PTR [rax],al
    6eed:	00 00                	add    BYTE PTR [rax],al
    6eef:	00 38                	add    BYTE PTR [rax],bh
    6ef1:	4f 11 00             	rex.WRXB adc QWORD PTR [r8],r8
    6ef4:	00 00                	add    BYTE PTR [rax],al
    6ef6:	00 00                	add    BYTE PTR [rax],al
    6ef8:	2a 4f 11             	sub    cl,BYTE PTR [rdi+0x11]
    6efb:	00 00                	add    BYTE PTR [rax],al
    6efd:	00 00                	add    BYTE PTR [rax],al
    6eff:	00 6c 4f 11          	add    BYTE PTR [rdi+rcx*2+0x11],ch
    6f03:	00 00                	add    BYTE PTR [rax],al
    6f05:	00 00                	add    BYTE PTR [rax],al
    6f07:	00 a8 4d 11 00 00    	add    BYTE PTR [rax+0x114d],ch
    6f0d:	00 00                	add    BYTE PTR [rax],al
    6f0f:	00 5c 4e 11          	add    BYTE PTR [rsi+rcx*2+0x11],bl
    6f13:	00 00                	add    BYTE PTR [rax],al
    6f15:	00 00                	add    BYTE PTR [rax],al
    6f17:	00 c6                	add    dh,al
    6f19:	4d 11 00             	adc    QWORD PTR [r8],r8
    6f1c:	00 00                	add    BYTE PTR [rax],al
    6f1e:	00 00                	add    BYTE PTR [rax],al
    6f20:	da 4d 11             	fimul  DWORD PTR [rbp+0x11]
    6f23:	00 00                	add    BYTE PTR [rax],al
    6f25:	00 00                	add    BYTE PTR [rax],al
    6f27:	00 e4                	add    ah,ah
    6f29:	4d 11 00             	adc    QWORD PTR [r8],r8
    6f2c:	00 00                	add    BYTE PTR [rax],al
    6f2e:	00 00                	add    BYTE PTR [rax],al
    6f30:	ee                   	out    dx,al
    6f31:	4d 11 00             	adc    QWORD PTR [r8],r8
    6f34:	00 00                	add    BYTE PTR [rax],al
    6f36:	00 00                	add    BYTE PTR [rax],al
    6f38:	02 4e 11             	add    cl,BYTE PTR [rsi+0x11]
    6f3b:	00 00                	add    BYTE PTR [rax],al
    6f3d:	00 00                	add    BYTE PTR [rax],al
    6f3f:	00 0c 4e             	add    BYTE PTR [rsi+rcx*2],cl
    6f42:	11 00                	adc    DWORD PTR [rax],eax
    6f44:	00 00                	add    BYTE PTR [rax],al
    6f46:	00 00                	add    BYTE PTR [rax],al
    6f48:	16                   	(bad)  
    6f49:	4e 11 00             	rex.WRX adc QWORD PTR [rax],r8
    6f4c:	00 00                	add    BYTE PTR [rax],al
    6f4e:	00 00                	add    BYTE PTR [rax],al
    6f50:	3f                   	(bad)  
    6f51:	4f 11 00             	rex.WRXB adc QWORD PTR [r8],r8
    6f54:	00 00                	add    BYTE PTR [rax],al
    6f56:	00 00                	add    BYTE PTR [rax],al
    6f58:	46                   	rex.RX
    6f59:	4f 11 00             	rex.WRXB adc QWORD PTR [r8],r8
    6f5c:	00 00                	add    BYTE PTR [rax],al
    6f5e:	00 00                	add    BYTE PTR [rax],al
    6f60:	6c                   	ins    BYTE PTR es:[rdi],dx
    6f61:	4f 11 00             	rex.WRXB adc QWORD PTR [r8],r8
    6f64:	00 00                	add    BYTE PTR [rax],al
    6f66:	00 00                	add    BYTE PTR [rax],al
    6f68:	6c                   	ins    BYTE PTR es:[rdi],dx
    6f69:	4f 11 00             	rex.WRXB adc QWORD PTR [r8],r8
    6f6c:	00 00                	add    BYTE PTR [rax],al
    6f6e:	00 00                	add    BYTE PTR [rax],al
    6f70:	15 4f 11 00 00       	adc    eax,0x114f
    6f75:	00 00                	add    BYTE PTR [rax],al
    6f77:	00 a2 4e 11 00 00    	add    BYTE PTR [rdx+0x114e],ah
    6f7d:	00 00                	add    BYTE PTR [rax],al
    6f7f:	00 8e 4e 11 00 00    	add    BYTE PTR [rsi+0x114e],cl
    6f85:	00 00                	add    BYTE PTR [rax],al
    6f87:	00 bc 4d 11 00 00 00 	add    BYTE PTR [rbp+rcx*2+0x11],bh
    6f8e:	00 00                	add    BYTE PTR [rax],al
    6f90:	7a 4e                	jp     0x6fe0
    6f92:	11 00                	adc    DWORD PTR [rax],eax
    6f94:	00 00                	add    BYTE PTR [rax],al
    6f96:	00 00                	add    BYTE PTR [rax],al
    6f98:	b2 4d                	mov    dl,0x4d
    6f9a:	11 00                	adc    DWORD PTR [rax],eax
    6f9c:	00 00                	add    BYTE PTR [rax],al
    6f9e:	00 00                	add    BYTE PTR [rax],al
    6fa0:	2a 4e 11             	sub    cl,BYTE PTR [rsi+0x11]
    6fa3:	00 00                	add    BYTE PTR [rax],al
    6fa5:	00 00                	add    BYTE PTR [rax],al
    6fa7:	00 20                	add    BYTE PTR [rax],ah
    6fa9:	4e 11 00             	rex.WRX adc QWORD PTR [rax],r8
    6fac:	00 00                	add    BYTE PTR [rax],al
    6fae:	00 00                	add    BYTE PTR [rax],al
    6fb0:	4d                   	rex.WRB
    6fb1:	4f 11 00             	rex.WRXB adc QWORD PTR [r8],r8
    6fb4:	00 00                	add    BYTE PTR [rax],al
    6fb6:	00 00                	add    BYTE PTR [rax],al
    6fb8:	54                   	push   rsp
    6fb9:	4f 11 00             	rex.WRXB adc QWORD PTR [r8],r8
    6fbc:	00 00                	add    BYTE PTR [rax],al
    6fbe:	00 00                	add    BYTE PTR [rax],al
    6fc0:	5b                   	pop    rbx
    6fc1:	4f 11 00             	rex.WRXB adc QWORD PTR [r8],r8
    6fc4:	00 00                	add    BYTE PTR [rax],al
    6fc6:	00 00                	add    BYTE PTR [rax],al
    6fc8:	6c                   	ins    BYTE PTR es:[rdi],dx
    6fc9:	4f 11 00             	rex.WRXB adc QWORD PTR [r8],r8
    6fcc:	00 00                	add    BYTE PTR [rax],al
    6fce:	00 00                	add    BYTE PTR [rax],al
    6fd0:	6c                   	ins    BYTE PTR es:[rdi],dx
    6fd1:	4f 11 00             	rex.WRXB adc QWORD PTR [r8],r8
    6fd4:	00 00                	add    BYTE PTR [rax],al
    6fd6:	00 00                	add    BYTE PTR [rax],al
    6fd8:	6c                   	ins    BYTE PTR es:[rdi],dx
    6fd9:	4f 11 00             	rex.WRXB adc QWORD PTR [r8],r8
    6fdc:	00 00                	add    BYTE PTR [rax],al
    6fde:	00 00                	add    BYTE PTR [rax],al
    6fe0:	23 4f 11             	and    ecx,DWORD PTR [rdi+0x11]
    6fe3:	00 00                	add    BYTE PTR [rax],al
    6fe5:	00 00                	add    BYTE PTR [rax],al
    6fe7:	00 6c 4f 11          	add    BYTE PTR [rdi+rcx*2+0x11],ch
    6feb:	00 00                	add    BYTE PTR [rax],al
    6fed:	00 00                	add    BYTE PTR [rax],al
    6fef:	00 6c 4f 11          	add    BYTE PTR [rdi+rcx*2+0x11],ch
    6ff3:	00 00                	add    BYTE PTR [rax],al
    6ff5:	00 00                	add    BYTE PTR [rax],al
    6ff7:	00 6c 4f 11          	add    BYTE PTR [rdi+rcx*2+0x11],ch
    6ffb:	00 00                	add    BYTE PTR [rax],al
    6ffd:	00 00                	add    BYTE PTR [rax],al
    6fff:	00 6c 4f 11          	add    BYTE PTR [rdi+rcx*2+0x11],ch
    7003:	00 00                	add    BYTE PTR [rax],al
    7005:	00 00                	add    BYTE PTR [rax],al
    7007:	00 6c 4f 11          	add    BYTE PTR [rdi+rcx*2+0x11],ch
    700b:	00 00                	add    BYTE PTR [rax],al
    700d:	00 00                	add    BYTE PTR [rax],al
    700f:	00 6c 4f 11          	add    BYTE PTR [rdi+rcx*2+0x11],ch
    7013:	00 00                	add    BYTE PTR [rax],al
    7015:	00 00                	add    BYTE PTR [rax],al
    7017:	00 6c 4f 11          	add    BYTE PTR [rdi+rcx*2+0x11],ch
    701b:	00 00                	add    BYTE PTR [rax],al
    701d:	00 00                	add    BYTE PTR [rax],al
    701f:	00 6c 4f 11          	add    BYTE PTR [rdi+rcx*2+0x11],ch
    7023:	00 00                	add    BYTE PTR [rax],al
    7025:	00 00                	add    BYTE PTR [rax],al
    7027:	00 6c 4f 11          	add    BYTE PTR [rdi+rcx*2+0x11],ch
    702b:	00 00                	add    BYTE PTR [rax],al
    702d:	00 00                	add    BYTE PTR [rax],al
    702f:	00 6c 4f 11          	add    BYTE PTR [rdi+rcx*2+0x11],ch
    7033:	00 00                	add    BYTE PTR [rax],al
    7035:	00 00                	add    BYTE PTR [rax],al
    7037:	00 6c 4f 11          	add    BYTE PTR [rdi+rcx*2+0x11],ch
    703b:	00 00                	add    BYTE PTR [rax],al
    703d:	00 00                	add    BYTE PTR [rax],al
    703f:	00 6c 4f 11          	add    BYTE PTR [rdi+rcx*2+0x11],ch
    7043:	00 00                	add    BYTE PTR [rax],al
    7045:	00 00                	add    BYTE PTR [rax],al
    7047:	00 6c 4f 11          	add    BYTE PTR [rdi+rcx*2+0x11],ch
    704b:	00 00                	add    BYTE PTR [rax],al
    704d:	00 00                	add    BYTE PTR [rax],al
    704f:	00 6c 4f 11          	add    BYTE PTR [rdi+rcx*2+0x11],ch
    7053:	00 00                	add    BYTE PTR [rax],al
    7055:	00 00                	add    BYTE PTR [rax],al
    7057:	00 6c 4f 11          	add    BYTE PTR [rdi+rcx*2+0x11],ch
    705b:	00 00                	add    BYTE PTR [rax],al
    705d:	00 00                	add    BYTE PTR [rax],al
    705f:	00 6c 4f 11          	add    BYTE PTR [rdi+rcx*2+0x11],ch
    7063:	00 00                	add    BYTE PTR [rax],al
    7065:	00 00                	add    BYTE PTR [rax],al
    7067:	00 6c 4f 11          	add    BYTE PTR [rdi+rcx*2+0x11],ch
    706b:	00 00                	add    BYTE PTR [rax],al
    706d:	00 00                	add    BYTE PTR [rax],al
    706f:	00 6c 4f 11          	add    BYTE PTR [rdi+rcx*2+0x11],ch
    7073:	00 00                	add    BYTE PTR [rax],al
    7075:	00 00                	add    BYTE PTR [rax],al
    7077:	00 6c 4f 11          	add    BYTE PTR [rdi+rcx*2+0x11],ch
    707b:	00 00                	add    BYTE PTR [rax],al
    707d:	00 00                	add    BYTE PTR [rax],al
    707f:	00 6c 4f 11          	add    BYTE PTR [rdi+rcx*2+0x11],ch
    7083:	00 00                	add    BYTE PTR [rax],al
    7085:	00 00                	add    BYTE PTR [rax],al
    7087:	00 6c 4f 11          	add    BYTE PTR [rdi+rcx*2+0x11],ch
    708b:	00 00                	add    BYTE PTR [rax],al
    708d:	00 00                	add    BYTE PTR [rax],al
    708f:	00 6c 4f 11          	add    BYTE PTR [rdi+rcx*2+0x11],ch
    7093:	00 00                	add    BYTE PTR [rax],al
    7095:	00 00                	add    BYTE PTR [rax],al
    7097:	00 6c 4f 11          	add    BYTE PTR [rdi+rcx*2+0x11],ch
    709b:	00 00                	add    BYTE PTR [rax],al
    709d:	00 00                	add    BYTE PTR [rax],al
    709f:	00 6c 4f 11          	add    BYTE PTR [rdi+rcx*2+0x11],ch
    70a3:	00 00                	add    BYTE PTR [rax],al
    70a5:	00 00                	add    BYTE PTR [rax],al
    70a7:	00 6c 4f 11          	add    BYTE PTR [rdi+rcx*2+0x11],ch
    70ab:	00 00                	add    BYTE PTR [rax],al
    70ad:	00 00                	add    BYTE PTR [rax],al
    70af:	00 6c 4f 11          	add    BYTE PTR [rdi+rcx*2+0x11],ch
    70b3:	00 00                	add    BYTE PTR [rax],al
    70b5:	00 00                	add    BYTE PTR [rax],al
    70b7:	00 6c 4f 11          	add    BYTE PTR [rdi+rcx*2+0x11],ch
    70bb:	00 00                	add    BYTE PTR [rax],al
    70bd:	00 00                	add    BYTE PTR [rax],al
    70bf:	00 6c 4f 11          	add    BYTE PTR [rdi+rcx*2+0x11],ch
    70c3:	00 00                	add    BYTE PTR [rax],al
    70c5:	00 00                	add    BYTE PTR [rax],al
    70c7:	00 6c 4f 11          	add    BYTE PTR [rdi+rcx*2+0x11],ch
    70cb:	00 00                	add    BYTE PTR [rax],al
    70cd:	00 00                	add    BYTE PTR [rax],al
    70cf:	00 6c 4f 11          	add    BYTE PTR [rdi+rcx*2+0x11],ch
    70d3:	00 00                	add    BYTE PTR [rax],al
    70d5:	00 00                	add    BYTE PTR [rax],al
    70d7:	00 6c 4f 11          	add    BYTE PTR [rdi+rcx*2+0x11],ch
    70db:	00 00                	add    BYTE PTR [rax],al
    70dd:	00 00                	add    BYTE PTR [rax],al
    70df:	00 6c 4f 11          	add    BYTE PTR [rdi+rcx*2+0x11],ch
    70e3:	00 00                	add    BYTE PTR [rax],al
    70e5:	00 00                	add    BYTE PTR [rax],al
    70e7:	00 6c 4f 11          	add    BYTE PTR [rdi+rcx*2+0x11],ch
    70eb:	00 00                	add    BYTE PTR [rax],al
    70ed:	00 00                	add    BYTE PTR [rax],al
    70ef:	00 6c 4f 11          	add    BYTE PTR [rdi+rcx*2+0x11],ch
    70f3:	00 00                	add    BYTE PTR [rax],al
    70f5:	00 00                	add    BYTE PTR [rax],al
    70f7:	00 6c 4f 11          	add    BYTE PTR [rdi+rcx*2+0x11],ch
    70fb:	00 00                	add    BYTE PTR [rax],al
    70fd:	00 00                	add    BYTE PTR [rax],al
    70ff:	00 6c 4f 11          	add    BYTE PTR [rdi+rcx*2+0x11],ch
    7103:	00 00                	add    BYTE PTR [rax],al
    7105:	00 00                	add    BYTE PTR [rax],al
    7107:	00 6c 4f 11          	add    BYTE PTR [rdi+rcx*2+0x11],ch
    710b:	00 00                	add    BYTE PTR [rax],al
    710d:	00 00                	add    BYTE PTR [rax],al
    710f:	00 6c 4f 11          	add    BYTE PTR [rdi+rcx*2+0x11],ch
    7113:	00 00                	add    BYTE PTR [rax],al
    7115:	00 00                	add    BYTE PTR [rax],al
    7117:	00 6c 4f 11          	add    BYTE PTR [rdi+rcx*2+0x11],ch
    711b:	00 00                	add    BYTE PTR [rax],al
    711d:	00 00                	add    BYTE PTR [rax],al
    711f:	00 6c 4f 11          	add    BYTE PTR [rdi+rcx*2+0x11],ch
    7123:	00 00                	add    BYTE PTR [rax],al
    7125:	00 00                	add    BYTE PTR [rax],al
    7127:	00 6c 4f 11          	add    BYTE PTR [rdi+rcx*2+0x11],ch
    712b:	00 00                	add    BYTE PTR [rax],al
    712d:	00 00                	add    BYTE PTR [rax],al
    712f:	00 6c 4f 11          	add    BYTE PTR [rdi+rcx*2+0x11],ch
    7133:	00 00                	add    BYTE PTR [rax],al
    7135:	00 00                	add    BYTE PTR [rax],al
    7137:	00 6c 4f 11          	add    BYTE PTR [rdi+rcx*2+0x11],ch
    713b:	00 00                	add    BYTE PTR [rax],al
    713d:	00 00                	add    BYTE PTR [rax],al
    713f:	00 6c 4f 11          	add    BYTE PTR [rdi+rcx*2+0x11],ch
    7143:	00 00                	add    BYTE PTR [rax],al
    7145:	00 00                	add    BYTE PTR [rax],al
    7147:	00 6c 4f 11          	add    BYTE PTR [rdi+rcx*2+0x11],ch
    714b:	00 00                	add    BYTE PTR [rax],al
    714d:	00 00                	add    BYTE PTR [rax],al
    714f:	00 6c 4f 11          	add    BYTE PTR [rdi+rcx*2+0x11],ch
    7153:	00 00                	add    BYTE PTR [rax],al
    7155:	00 00                	add    BYTE PTR [rax],al
    7157:	00 6c 4f 11          	add    BYTE PTR [rdi+rcx*2+0x11],ch
    715b:	00 00                	add    BYTE PTR [rax],al
    715d:	00 00                	add    BYTE PTR [rax],al
    715f:	00 6c 4f 11          	add    BYTE PTR [rdi+rcx*2+0x11],ch
    7163:	00 00                	add    BYTE PTR [rax],al
    7165:	00 00                	add    BYTE PTR [rax],al
    7167:	00 6c 4f 11          	add    BYTE PTR [rdi+rcx*2+0x11],ch
    716b:	00 00                	add    BYTE PTR [rax],al
    716d:	00 00                	add    BYTE PTR [rax],al
    716f:	00 6c 4f 11          	add    BYTE PTR [rdi+rcx*2+0x11],ch
    7173:	00 00                	add    BYTE PTR [rax],al
    7175:	00 00                	add    BYTE PTR [rax],al
    7177:	00 6c 4f 11          	add    BYTE PTR [rdi+rcx*2+0x11],ch
    717b:	00 00                	add    BYTE PTR [rax],al
    717d:	00 00                	add    BYTE PTR [rax],al
    717f:	00 6c 4f 11          	add    BYTE PTR [rdi+rcx*2+0x11],ch
    7183:	00 00                	add    BYTE PTR [rax],al
    7185:	00 00                	add    BYTE PTR [rax],al
    7187:	00 6c 4f 11          	add    BYTE PTR [rdi+rcx*2+0x11],ch
    718b:	00 00                	add    BYTE PTR [rax],al
    718d:	00 00                	add    BYTE PTR [rax],al
    718f:	00 6c 4f 11          	add    BYTE PTR [rdi+rcx*2+0x11],ch
    7193:	00 00                	add    BYTE PTR [rax],al
    7195:	00 00                	add    BYTE PTR [rax],al
    7197:	00 6c 4f 11          	add    BYTE PTR [rdi+rcx*2+0x11],ch
    719b:	00 00                	add    BYTE PTR [rax],al
    719d:	00 00                	add    BYTE PTR [rax],al
    719f:	00 6c 4f 11          	add    BYTE PTR [rdi+rcx*2+0x11],ch
    71a3:	00 00                	add    BYTE PTR [rax],al
    71a5:	00 00                	add    BYTE PTR [rax],al
    71a7:	00 6c 4f 11          	add    BYTE PTR [rdi+rcx*2+0x11],ch
    71ab:	00 00                	add    BYTE PTR [rax],al
    71ad:	00 00                	add    BYTE PTR [rax],al
    71af:	00 62 4f             	add    BYTE PTR [rdx+0x4f],ah
    71b2:	11 00                	adc    DWORD PTR [rax],eax
    71b4:	00 00                	add    BYTE PTR [rax],al
    71b6:	00 00                	add    BYTE PTR [rax],al
    71b8:	6c                   	ins    BYTE PTR es:[rdi],dx
    71b9:	4f 11 00             	rex.WRXB adc QWORD PTR [r8],r8
    71bc:	00 00                	add    BYTE PTR [rax],al
    71be:	00 00                	add    BYTE PTR [rax],al
    71c0:	6c                   	ins    BYTE PTR es:[rdi],dx
    71c1:	4f 11 00             	rex.WRXB adc QWORD PTR [r8],r8
    71c4:	00 00                	add    BYTE PTR [rax],al
    71c6:	00 00                	add    BYTE PTR [rax],al
    71c8:	6c                   	ins    BYTE PTR es:[rdi],dx
    71c9:	4f 11 00             	rex.WRXB adc QWORD PTR [r8],r8
    71cc:	00 00                	add    BYTE PTR [rax],al
    71ce:	00 00                	add    BYTE PTR [rax],al
    71d0:	6c                   	ins    BYTE PTR es:[rdi],dx
    71d1:	4f 11 00             	rex.WRXB adc QWORD PTR [r8],r8
    71d4:	00 00                	add    BYTE PTR [rax],al
    71d6:	00 00                	add    BYTE PTR [rax],al
    71d8:	6c                   	ins    BYTE PTR es:[rdi],dx
    71d9:	4f 11 00             	rex.WRXB adc QWORD PTR [r8],r8
    71dc:	00 00                	add    BYTE PTR [rax],al
    71de:	00 00                	add    BYTE PTR [rax],al
    71e0:	6c                   	ins    BYTE PTR es:[rdi],dx
    71e1:	4f 11 00             	rex.WRXB adc QWORD PTR [r8],r8
    71e4:	00 00                	add    BYTE PTR [rax],al
    71e6:	00 00                	add    BYTE PTR [rax],al
    71e8:	6c                   	ins    BYTE PTR es:[rdi],dx
    71e9:	4f 11 00             	rex.WRXB adc QWORD PTR [r8],r8
    71ec:	00 00                	add    BYTE PTR [rax],al
    71ee:	00 00                	add    BYTE PTR [rax],al
    71f0:	6c                   	ins    BYTE PTR es:[rdi],dx
    71f1:	4f 11 00             	rex.WRXB adc QWORD PTR [r8],r8
    71f4:	00 00                	add    BYTE PTR [rax],al
    71f6:	00 00                	add    BYTE PTR [rax],al
    71f8:	6c                   	ins    BYTE PTR es:[rdi],dx
    71f9:	4f 11 00             	rex.WRXB adc QWORD PTR [r8],r8
    71fc:	00 00                	add    BYTE PTR [rax],al
    71fe:	00 00                	add    BYTE PTR [rax],al
    7200:	0e                   	(bad)  
    7201:	4f 11 00             	rex.WRXB adc QWORD PTR [r8],r8
    7204:	00 00                	add    BYTE PTR [rax],al
    7206:	00 00                	add    BYTE PTR [rax],al
    7208:	24 20                	and    al,0x20
    720a:	00 74 6f 74          	add    BYTE PTR [rdi+rbp*2+0x74],dh
    720e:	73 75                	jae    0x7285
    7210:	67 65 6b 69 40 6d    	imul   ebp,DWORD PTR gs:[ecx+0x40],0x6d
    7216:	69 6e 4f 53 20 24 20 	imul   ebp,DWORD PTR [rsi+0x4f],0x20242053
    721d:	00 61 72             	add    BYTE PTR [rcx+0x72],ah
    7220:	67 73 5f             	addr32 jae 0x7282
    7223:	61                   	(bad)  
    7224:	72 72                	jb     0x7298
    7226:	61                   	(bad)  
    7227:	79 3a                	jns    0x7263
    7229:	20 00                	and    BYTE PTR [rax],al
    722b:	0a 00                	or     al,BYTE PTR [rax]
    722d:	65 63 68 6f          	movsxd ebp,DWORD PTR gs:[rax+0x6f]
    7231:	00 75 70             	add    BYTE PTR [rbp+0x70],dh
    7234:	74 69                	je     0x729f
    7236:	6d                   	ins    DWORD PTR es:[rdi],dx
    7237:	65 00 73 6c          	add    BYTE PTR gs:[rbx+0x6c],dh
    723b:	65 65 70 00          	gs gs jo 0x723f
    723f:	00 6e 6f             	add    BYTE PTR [rsi+0x6f],ch
    7242:	20 69 6e             	and    BYTE PTR [rcx+0x6e],ch
    7245:	70 75                	jo     0x72bc
    7247:	74 00                	je     0x7249
    7249:	62 61 64 20 63       	(bad)  
    724e:	6f                   	outs   dx,DWORD PTR ds:[rsi]
    724f:	6d                   	ins    DWORD PTR es:[rdi],dx
    7250:	6d                   	ins    DWORD PTR es:[rdi],dx
    7251:	61                   	(bad)  
    7252:	6e                   	outs   dx,BYTE PTR ds:[rsi]
    7253:	64 00 20             	add    BYTE PTR fs:[rax],ah
    7256:	00 65 6e             	add    BYTE PTR [rbp+0x6e],ah
    7259:	74 65                	je     0x72c0
    725b:	72 20                	jb     0x727d
    725d:	63 6f 6e             	movsxd ebp,DWORD PTR [rdi+0x6e]
    7260:	73 6f                	jae    0x72d1
    7262:	6c                   	ins    BYTE PTR es:[rdi],dx
    7263:	65 0a 0a             	or     cl,BYTE PTR gs:[rdx]
    7266:	00 63 6f             	add    BYTE PTR [rbx+0x6f],ah
    7269:	6e                   	outs   dx,BYTE PTR ds:[rsi]
    726a:	73 6f                	jae    0x72db
    726c:	6c                   	ins    BYTE PTR es:[rdi],dx
    726d:	65 3a 20             	cmp    ah,BYTE PTR gs:[rax]
    7270:	72 65                	jb     0x72d7
    7272:	61                   	(bad)  
    7273:	64 6c                	fs ins BYTE PTR es:[rdi],dx
    7275:	69 6e 65 5f 73 65 72 	imul   ebp,DWORD PTR [rsi+0x65],0x7265735f
    727c:	69 61 6c 0a 0a 00 63 	imul   esp,DWORD PTR [rcx+0x6c],0x63000a0a
    7283:	6f                   	outs   dx,DWORD PTR ds:[rsi]
    7284:	6e                   	outs   dx,BYTE PTR ds:[rsi]
    7285:	73 6f                	jae    0x72f6
    7287:	6c                   	ins    BYTE PTR es:[rdi],dx
    7288:	65 3a 20             	cmp    ah,BYTE PTR gs:[rax]
    728b:	70 61                	jo     0x72ee
    728d:	72 73                	jb     0x7302
    728f:	65 5f                	gs pop rdi
    7291:	6c                   	ins    BYTE PTR es:[rdi],dx
    7292:	69 6e 65 0a 0a 00 63 	imul   ebp,DWORD PTR [rsi+0x65],0x63000a0a
    7299:	6f                   	outs   dx,DWORD PTR ds:[rsi]
    729a:	6e                   	outs   dx,BYTE PTR ds:[rsi]
    729b:	73 6f                	jae    0x730c
    729d:	6c                   	ins    BYTE PTR es:[rdi],dx
    729e:	65 3a 20             	cmp    ah,BYTE PTR gs:[rax]
    72a1:	64 6f                	outs   dx,DWORD PTR fs:[rsi]
    72a3:	5f                   	pop    rdi
    72a4:	63 6f 6d             	movsxd ebp,DWORD PTR [rdi+0x6d]
    72a7:	6d                   	ins    DWORD PTR es:[rdi],dx
    72a8:	61                   	(bad)  
    72a9:	6e                   	outs   dx,BYTE PTR ds:[rsi]
    72aa:	64 0a 0a             	or     cl,BYTE PTR fs:[rdx]
    72ad:	00 63 6f             	add    BYTE PTR [rbx+0x6f],ah
    72b0:	6e                   	outs   dx,BYTE PTR ds:[rsi]
    72b1:	73 6f                	jae    0x7322
    72b3:	6c                   	ins    BYTE PTR es:[rdi],dx
    72b4:	65 3a 20             	cmp    ah,BYTE PTR gs:[rax]
    72b7:	77 72                	ja     0x732b
    72b9:	69 74 65 6c 69 6e 65 	imul   esi,DWORD PTR [rbp+riz*2+0x6c],0x73656e69
    72c0:	73 
    72c1:	0a 0a                	or     cl,BYTE PTR [rdx]
    72c3:	00 63 6f             	add    BYTE PTR [rbx+0x6f],ah
    72c6:	6e                   	outs   dx,BYTE PTR ds:[rsi]
    72c7:	73 6f                	jae    0x7338
    72c9:	6c                   	ins    BYTE PTR es:[rdi],dx
    72ca:	65 3a 20             	cmp    ah,BYTE PTR gs:[rax]
    72cd:	66 6c                	data16 ins BYTE PTR es:[rdi],dx
    72cf:	75 73                	jne    0x7344
    72d1:	68 0a 0a 00 63       	push   0x63000a0a
    72d6:	6f                   	outs   dx,DWORD PTR ds:[rsi]
    72d7:	6e                   	outs   dx,BYTE PTR ds:[rsi]
    72d8:	73 6f                	jae    0x7349
    72da:	6c                   	ins    BYTE PTR es:[rdi],dx
    72db:	65 3a 20             	cmp    ah,BYTE PTR gs:[rax]
    72de:	6c                   	ins    BYTE PTR es:[rdi],dx
    72df:	6f                   	outs   dx,DWORD PTR ds:[rsi]
    72e0:	6f                   	outs   dx,DWORD PTR ds:[rsi]
    72e1:	70 20                	jo     0x7303
    72e3:	62                   	(bad)  
    72e4:	6f                   	outs   dx,DWORD PTR ds:[rsi]
    72e5:	74 74                	je     0x735b
    72e7:	6f                   	outs   dx,DWORD PTR ds:[rsi]
    72e8:	6d                   	ins    DWORD PTR es:[rdi],dx
    72e9:	0a 0a                	or     cl,BYTE PTR [rdx]
    72eb:	00 99 9e 36 00 ff    	add    BYTE PTR [rcx-0xffc962],bl
    72f1:	ff                   	(bad)  
    72f2:	ff                   	(bad)  
    72f3:	ff 66 61             	jmp    QWORD PTR [rsi+0x61]
    72f6:	69 6c 65 64 20 74 6f 	imul   ebp,DWORD PTR [rbp+riz*2+0x64],0x206f7420
    72fd:	20 
    72fe:	67 65 74 20          	addr32 gs je 0x7322
    7302:	58                   	pop    rax
    7303:	53                   	push   rbx
    7304:	44 54                	rex.R push rsp
    7306:	0a 00                	or     al,BYTE PTR [rax]
    7308:	70 6d                	jo     0x7377
    730a:	5f                   	pop    rdi
    730b:	74 69                	je     0x7376
    730d:	6d                   	ins    DWORD PTR es:[rdi],dx
    730e:	65 72 5f             	gs jb  0x7370
    7311:	61                   	(bad)  
    7312:	64 64 72 3a          	fs fs jb 0x7350
    7316:	20 00                	and    BYTE PTR [rax],al
    7318:	0a 00                	or     al,BYTE PTR [rax]
    731a:	73 74                	jae    0x7390
    731c:	61                   	(bad)  
    731d:	72 74                	jb     0x7393
    731f:	3a 20                	cmp    ah,BYTE PTR [rax]
    7321:	00 65 6e             	add    BYTE PTR [rbp+0x6e],ah
    7324:	64 3a 20             	cmp    ah,BYTE PTR fs:[rax]
    7327:	00 61 66             	add    BYTE PTR [rcx+0x66],ah
    732a:	74 65                	je     0x7391
    732c:	72 20                	jb     0x734e
    732e:	69 66 0a 00 61 66 74 	imul   esp,DWORD PTR [rsi+0xa],0x74666100
    7335:	65 72 20             	gs jb  0x7358
    7338:	77 68                	ja     0x73a2
    733a:	69 6c 65 0a 00 62 65 	imul   ebp,DWORD PTR [rbp+riz*2+0xa],0x66656200
    7341:	66 
    7342:	6f                   	outs   dx,DWORD PTR ds:[rsi]
    7343:	72 65                	jb     0x73aa
    7345:	20 77 61             	and    BYTE PTR [rdi+0x61],dh
    7348:	69 74 5f 6d 69 6c 6c 	imul   esi,DWORD PTR [rdi+rbx*2+0x6d],0x696c6c69
    734f:	69 
    7350:	73 65                	jae    0x73b7
    7352:	63 6f 6e             	movsxd ebp,DWORD PTR [rdi+0x6e]
    7355:	64 73 0a             	fs jae 0x7362
    7358:	00 61 66             	add    BYTE PTR [rcx+0x66],ah
    735b:	74 65                	je     0x73c2
    735d:	72 20                	jb     0x737f
    735f:	77 61                	ja     0x73c2
    7361:	69 74 5f 6d 69 6c 6c 	imul   esi,DWORD PTR [rdi+rbx*2+0x6d],0x696c6c69
    7368:	69 
    7369:	73 65                	jae    0x73d0
    736b:	63 6f 6e             	movsxd ebp,DWORD PTR [rdi+0x6e]
    736e:	64 73 0a             	fs jae 0x737b
    7371:	00 73 74             	add    BYTE PTR [rbx+0x74],dh
    7374:	61                   	(bad)  
    7375:	72 74                	jb     0x73eb
    7377:	20 69 6e             	and    BYTE PTR [rcx+0x6e],ch
    737a:	69 74 5f 6c 6f 63 61 	imul   esi,DWORD PTR [rdi+rbx*2+0x6c],0x6c61636f
    7381:	6c 
    7382:	5f                   	pop    rdi
    7383:	41 50                	push   r8
    7385:	49                   	rex.WB
    7386:	43 0a 00             	rex.XB or al,BYTE PTR [r8]
    7389:	46                   	rex.RX
    738a:	41                   	rex.B
    738b:	43 50                	rex.XB push r8
    738d:	00 66 61             	add    BYTE PTR [rsi+0x61],ah
    7390:	69 6c 65 64 20 74 6f 	imul   ebp,DWORD PTR [rbp+riz*2+0x64],0x206f7420
    7397:	20 
    7398:	67 65 74 20          	addr32 gs je 0x73bc
    739c:	46                   	rex.RX
    739d:	41                   	rex.B
    739e:	44 54                	rex.R push rsp
    73a0:	0a 00                	or     al,BYTE PTR [rax]
    73a2:	46                   	rex.RX
    73a3:	41                   	rex.B
    73a4:	44 54                	rex.R push rsp
    73a6:	3a 20                	cmp    ah,BYTE PTR [rax]
    73a8:	00 67 65             	add    BYTE PTR [rdi+0x65],ah
    73ab:	74 20                	je     0x73cd
    73ad:	50                   	push   rax
    73ae:	4d 5f                	rex.WRB pop r15
    73b0:	54                   	push   rsp
    73b1:	4d 52                	rex.WRB push r10
    73b3:	5f                   	pop    rdi
    73b4:	42                   	rex.X
    73b5:	4c                   	rex.WR
    73b6:	4b 0a 00             	rex.WXB or al,BYTE PTR [r8]
    73b9:	50                   	push   rax
    73ba:	4d 5f                	rex.WRB pop r15
    73bc:	54                   	push   rsp
    73bd:	4d 52                	rex.WRB push r10
    73bf:	5f                   	pop    rdi
    73c0:	42                   	rex.X
    73c1:	4c                   	rex.WR
    73c2:	4b 3a 20             	rex.WXB cmp spl,BYTE PTR [r8]
    73c5:	00 66 61             	add    BYTE PTR [rsi+0x61],ah
    73c8:	64 74 2d             	fs je  0x73f8
    73cb:	3e 66 6c             	ds data16 ins BYTE PTR es:[rdi],dx
    73ce:	61                   	(bad)  
    73cf:	67 73 3a             	addr32 jae 0x740c
    73d2:	20 00                	and    BYTE PTR [rax],al
    73d4:	6c                   	ins    BYTE PTR es:[rdi],dx
    73d5:	61                   	(bad)  
    73d6:	70 69                	jo     0x7441
    73d8:	63 5f 66             	movsxd ebx,DWORD PTR [rdi+0x66]
    73db:	72 65                	jb     0x7442
    73dd:	71 3a                	jno    0x7419
    73df:	20 00                	and    BYTE PTR [rax],al
    73e1:	2a 4c 56 54          	sub    cl,BYTE PTR [rsi+rdx*2+0x54]
    73e5:	5f                   	pop    rdi
    73e6:	54                   	push   rsp
    73e7:	69 6d 65 72 3a 20 00 	imul   ebp,DWORD PTR [rbp+0x65],0x203a72
    73ee:	61                   	(bad)  
    73ef:	72 67                	jb     0x7458
    73f1:	63 3a                	movsxd edi,DWORD PTR [rdx]
    73f3:	20 00                	and    BYTE PTR [rax],al
    73f5:	0a 00                	or     al,BYTE PTR [rax]
    73f7:	61                   	(bad)  
    73f8:	72 67                	jb     0x7461
    73fa:	76 5b                	jbe    0x7457
    73fc:	31 5d 3a             	xor    DWORD PTR [rbp+0x3a],ebx
    73ff:	20 00                	and    BYTE PTR [rax],al
    7401:	65 63 68 6f          	movsxd ebp,DWORD PTR gs:[rax+0x6f]
    7405:	3a 20                	cmp    ah,BYTE PTR [rax]
    7407:	62 61 64 20 61       	(bad)  
    740c:	72 67                	jb     0x7475
    740e:	73 00                	jae    0x7410
    7410:	75 70                	jne    0x7482
    7412:	74 69                	je     0x747d
    7414:	6d                   	ins    DWORD PTR es:[rdi],dx
    7415:	65 3a 20             	cmp    ah,BYTE PTR gs:[rax]
    7418:	62 61 64 20 61       	(bad)  
    741d:	72 67                	jb     0x7486
    741f:	73 00                	jae    0x7421
    7421:	61                   	(bad)  
    7422:	72 67                	jb     0x748b
    7424:	63 3a                	movsxd edi,DWORD PTR [rdx]
    7426:	20 00                	and    BYTE PTR [rax],al
    7428:	0a 00                	or     al,BYTE PTR [rax]
    742a:	20 00                	and    BYTE PTR [rax],al
    742c:	73 6c                	jae    0x749a
    742e:	65 65 70 3a          	gs gs jo 0x746c
    7432:	20 62 61             	and    BYTE PTR [rdx+0x61],ah
    7435:	64 20 61 72          	and    BYTE PTR fs:[rcx+0x72],ah
    7439:	67 73 00             	addr32 jae 0x743c
    743c:	0f 1f 40 00          	nop    DWORD PTR [rax+0x0]
    7440:	74 68                	je     0x74aa
    7442:	72 65                	jb     0x74a9
    7444:	61                   	(bad)  
    7445:	64 20 73 74          	and    BYTE PTR fs:[rbx+0x74],dh
    7449:	61                   	(bad)  
    744a:	63 6b 20             	movsxd ebp,DWORD PTR [rbx+0x20]
    744d:	62                   	(bad)  
    744e:	6f                   	outs   dx,DWORD PTR ds:[rsi]
    744f:	74 74                	je     0x74c5
    7451:	6f                   	outs   dx,DWORD PTR ds:[rsi]
    7452:	6d                   	ins    DWORD PTR es:[rdi],dx
    7453:	3a 20                	cmp    ah,BYTE PTR [rax]
    7455:	00 0a                	add    BYTE PTR [rdx],cl
    7457:	00 74 68 72          	add    BYTE PTR [rax+rbp*2+0x72],dh
    745b:	65 61                	gs (bad) 
    745d:	64 20 72 73          	and    BYTE PTR fs:[rdx+0x73],dh
    7461:	70 3a                	jo     0x749d
    7463:	20 00                	and    BYTE PTR [rax],al
    7465:	74 68                	je     0x74cf
    7467:	72 65                	jb     0x74ce
    7469:	61                   	(bad)  
    746a:	64 5f                	fs pop rdi
    746c:	73 63                	jae    0x74d1
    746e:	68 65 64 75 6c       	push   0x6c756465
    7473:	65 72 20             	gs jb  0x7496
    7476:	6f                   	outs   dx,DWORD PTR ds:[rsi]
    7477:	6c                   	ins    BYTE PTR es:[rdi],dx
    7478:	64 5f                	fs pop rdi
    747a:	72 69                	jb     0x74e5
    747c:	70 3a                	jo     0x74b8
    747e:	20 00                	and    BYTE PTR [rax],al
    7480:	74 68                	je     0x74ea
    7482:	72 65                	jb     0x74e9
    7484:	61                   	(bad)  
    7485:	64 73 5b             	fs jae 0x74e3
    7488:	6f                   	outs   dx,DWORD PTR ds:[rsi]
    7489:	6c                   	ins    BYTE PTR es:[rdi],dx
    748a:	64 5f                	fs pop rdi
    748c:	74 68                	je     0x74f6
    748e:	72 65                	jb     0x74f5
    7490:	61                   	(bad)  
    7491:	64 5f                	fs pop rdi
    7493:	69 6e 64 65 78 5d 2e 	imul   ebp,DWORD PTR [rsi+0x64],0x2e5d7865
    749a:	72 69                	jb     0x7505
    749c:	70 3a                	jo     0x74d8
    749e:	20 00                	and    BYTE PTR [rax],al
    74a0:	6e                   	outs   dx,BYTE PTR ds:[rsi]
    74a1:	65 78 74             	gs js  0x7518
    74a4:	20 74 68 72          	and    BYTE PTR [rax+rbp*2+0x72],dh
    74a8:	65 61                	gs (bad) 
    74aa:	64 20 69 6e          	and    BYTE PTR fs:[rcx+0x6e],ch
    74ae:	64 65 78 3a          	fs gs js 0x74ec
    74b2:	20 00                	and    BYTE PTR [rax],al
    74b4:	6e                   	outs   dx,BYTE PTR ds:[rsi]
    74b5:	65 78 74             	gs js  0x752c
    74b8:	20 73 74             	and    BYTE PTR [rbx+0x74],dh
    74bb:	61                   	(bad)  
    74bc:	72 74                	jb     0x7532
    74be:	20 72 73             	and    BYTE PTR [rdx+0x73],dh
    74c1:	70 3a                	jo     0x74fd
    74c3:	20 00                	and    BYTE PTR [rax],al
    74c5:	6e                   	outs   dx,BYTE PTR ds:[rsi]
    74c6:	65 78 74             	gs js  0x753d
    74c9:	20 73 74             	and    BYTE PTR [rbx+0x74],dh
    74cc:	61                   	(bad)  
    74cd:	72 74                	jb     0x7543
    74cf:	20 66 75             	and    BYTE PTR [rsi+0x75],ah
    74d2:	6e                   	outs   dx,BYTE PTR ds:[rsi]
    74d3:	63 20                	movsxd esp,DWORD PTR [rax]
    74d5:	61                   	(bad)  
    74d6:	64 64 72 65          	fs fs jb 0x753f
    74da:	73 73                	jae    0x754f
    74dc:	3a 20                	cmp    ah,BYTE PTR [rax]
    74de:	00 6e 65             	add    BYTE PTR [rsi+0x65],ch
    74e1:	78 74                	js     0x7557
    74e3:	20 74 68 72          	and    BYTE PTR [rax+rbp*2+0x72],dh
    74e7:	65 61                	gs (bad) 
    74e9:	64 20 72 69          	and    BYTE PTR fs:[rdx+0x69],dh
    74ed:	70 3a                	jo     0x7529
    74ef:	20 00                	and    BYTE PTR [rax],al
    74f1:	0a 0a                	or     cl,BYTE PTR [rdx]
    74f3:	00 64 69 73          	add    BYTE PTR [rcx+rbp*2+0x73],ah
    74f7:	70 61                	jo     0x755a
    74f9:	74 63                	je     0x755e
    74fb:	68 20 73 74 61       	push   0x61747320
    7500:	72 74                	jb     0x7576
    7502:	0a 0a                	or     cl,BYTE PTR [rdx]
    7504:	00 0f                	add    BYTE PTR [rdi],cl
    7506:	1f                   	(bad)  
    7507:	00 80 00 00 00 00    	add    BYTE PTR [rax+0x0],al
    750d:	00 00                	add    BYTE PTR [rax],al
    750f:	00 00                	add    BYTE PTR [rax],al
    7511:	10 00                	adc    BYTE PTR [rax],al
    7513:	00 00                	add    BYTE PTR [rax],al
    7515:	00 00                	add    BYTE PTR [rax],al
    7517:	00 00                	add    BYTE PTR [rax],al
    7519:	20 00                	and    BYTE PTR [rax],al
    751b:	00 00                	add    BYTE PTR [rax],al
    751d:	00 00                	add    BYTE PTR [rax],al
    751f:	00 00                	add    BYTE PTR [rax],al
    7521:	30 00                	xor    BYTE PTR [rax],al
    7523:	00 00                	add    BYTE PTR [rax],al
    7525:	00 00                	add    BYTE PTR [rax],al
    7527:	00 00                	add    BYTE PTR [rax],al
    7529:	30 01                	xor    BYTE PTR [rcx],al
    752b:	00 00                	add    BYTE PTR [rax],al
    752d:	00 00                	add    BYTE PTR [rax],al
    752f:	00 66 2e             	add    BYTE PTR [rsi+0x2e],ah
    7532:	0f 1f 84 00 00 00 00 	nop    DWORD PTR [rax+rax*1+0x0]
    7539:	00 
    753a:	66 0f 1f 44 00 00    	nop    WORD PTR [rax+rax*1+0x0]
    7550:	00 10                	add    BYTE PTR [rax],dl
    7552:	10 10                	adc    BYTE PTR [rax],dl
    7554:	10 10                	adc    BYTE PTR [rax],dl
    7556:	10 10                	adc    BYTE PTR [rax],dl
    7558:	10 10                	adc    BYTE PTR [rax],dl
    755a:	00 00                	add    BYTE PTR [rax],al
    755c:	10 10                	adc    BYTE PTR [rax],dl
    755e:	00 00                	add    BYTE PTR [rax],al
    7560:	28 28                	sub    BYTE PTR [rax],ch
    7562:	28 00                	sub    BYTE PTR [rax],al
    7570:	00 44 44 44          	add    BYTE PTR [rsp+rax*2+0x44],al
    7574:	fe 44 44 44          	inc    BYTE PTR [rsp+rax*2+0x44]
    7578:	44                   	rex.R
    7579:	44 fe 44 44 44       	rex.R inc BYTE PTR [rsp+rax*2+0x44]
    757e:	00 00                	add    BYTE PTR [rax],al
    7580:	10 3a                	adc    BYTE PTR [rdx],bh
    7582:	56                   	push   rsi
    7583:	92                   	xchg   edx,eax
    7584:	92                   	xchg   edx,eax
    7585:	90                   	nop
    7586:	50                   	push   rax
    7587:	38 14 12             	cmp    BYTE PTR [rdx+rdx*1],dl
    758a:	92                   	xchg   edx,eax
    758b:	92                   	xchg   edx,eax
    758c:	d4                   	(bad)  
    758d:	b8 10 10 62 92       	mov    eax,0x92621010
    7592:	94                   	xchg   esp,eax
    7593:	94                   	xchg   esp,eax
    7594:	68 08 10 10 20       	push   0x20101008
    7599:	2c 52                	sub    al,0x52
    759b:	52                   	push   rdx
    759c:	92                   	xchg   edx,eax
    759d:	8c 00                	mov    WORD PTR [rax],es
    759f:	00 00                	add    BYTE PTR [rax],al
    75a1:	70 88                	jo     0x752b
    75a3:	88 88 90 60 47 a2    	mov    BYTE PTR [rax-0x5db89f70],cl
    75a9:	92                   	xchg   edx,eax
    75aa:	8a 84 46 39 00 00 04 	mov    al,BYTE PTR [rsi+rax*2+0x4000039]
    75b1:	08 10                	or     BYTE PTR [rax],dl
    75bf:	00 02                	add    BYTE PTR [rdx],al
    75c1:	04 08                	add    al,0x8
    75c3:	08 10                	or     BYTE PTR [rax],dl
    75c5:	10 10                	adc    BYTE PTR [rax],dl
    75c7:	10 10                	adc    BYTE PTR [rax],dl
    75c9:	10 10                	adc    BYTE PTR [rax],dl
    75cb:	08 08                	or     BYTE PTR [rax],cl
    75cd:	04 02                	add    al,0x2
    75cf:	00 80 40 20 20 10    	add    BYTE PTR [rax+0x10202040],al
    75d5:	10 10                	adc    BYTE PTR [rax],dl
    75d7:	10 10                	adc    BYTE PTR [rax],dl
    75d9:	10 10                	adc    BYTE PTR [rax],dl
    75db:	20 20                	and    BYTE PTR [rax],ah
    75dd:	40 80 00 00          	rex add BYTE PTR [rax],0x0
    75e1:	00 00                	add    BYTE PTR [rax],al
    75e3:	00 00                	add    BYTE PTR [rax],al
    75e5:	10 92 54 38 54 92    	adc    BYTE PTR [rdx-0x6dabc7ac],dl
    75eb:	10 00                	adc    BYTE PTR [rax],al
    75f5:	10 10                	adc    BYTE PTR [rax],dl
    75f7:	10 fe                	adc    dh,bh
    75f9:	10 10                	adc    BYTE PTR [rax],dl
    75fb:	10 00                	adc    BYTE PTR [rax],al
    7609:	00 00                	add    BYTE PTR [rax],al
    760b:	18 18                	sbb    BYTE PTR [rax],bl
    760d:	08 08                	or     BYTE PTR [rax],cl
    760f:	10 00                	adc    BYTE PTR [rax],al
    7611:	00 00                	add    BYTE PTR [rax],al
    7613:	00 00                	add    BYTE PTR [rax],al
    7615:	00 00                	add    BYTE PTR [rax],al
    7617:	00 fe                	add    dh,bh
    7629:	00 00                	add    BYTE PTR [rax],al
    762b:	00 18                	add    BYTE PTR [rax],bl
    762d:	18 00                	sbb    BYTE PTR [rax],al
    762f:	00 02                	add    BYTE PTR [rdx],al
    7631:	02 04 04             	add    al,BYTE PTR [rsp+rax*1]
    7634:	08 08                	or     BYTE PTR [rax],cl
    7636:	08 10                	or     BYTE PTR [rax],dl
    7638:	10 20                	adc    BYTE PTR [rax],ah
    763a:	20 40 40             	and    BYTE PTR [rax+0x40],al
    763d:	40 80 80 00 18 24 24 	rex add BYTE PTR [rax+0x24241800],0x42
    7644:	42 
    7645:	42                   	rex.X
    7646:	42                   	rex.X
    7647:	42                   	rex.X
    7648:	42                   	rex.X
    7649:	42                   	rex.X
    764a:	42 24 24             	rex.X and al,0x24
    764d:	18 00                	sbb    BYTE PTR [rax],al
    764f:	00 00                	add    BYTE PTR [rax],al
    7651:	08 18                	or     BYTE PTR [rax],bl
    7653:	28 08                	sub    BYTE PTR [rax],cl
    7655:	08 08                	or     BYTE PTR [rax],cl
    7657:	08 08                	or     BYTE PTR [rax],cl
    7659:	08 08                	or     BYTE PTR [rax],cl
    765b:	08 08                	or     BYTE PTR [rax],cl
    765d:	3e 00 00             	add    BYTE PTR ds:[rax],al
    7660:	00 18                	add    BYTE PTR [rax],bl
    7662:	24 42                	and    al,0x42
    7664:	42 02 04 08          	add    al,BYTE PTR [rax+r9*1]
    7668:	10 20                	adc    BYTE PTR [rax],ah
    766a:	20 40 40             	and    BYTE PTR [rax+0x40],al
    766d:	7e 00                	jle    0x766f
    766f:	00 00                	add    BYTE PTR [rax],al
    7671:	18 24 42             	sbb    BYTE PTR [rdx+rax*2],ah
    7674:	02 02                	add    al,BYTE PTR [rdx]
    7676:	04 18                	add    al,0x18
    7678:	04 02                	add    al,0x2
    767a:	02 42 24             	add    al,BYTE PTR [rdx+0x24]
    767d:	18 00                	sbb    BYTE PTR [rax],al
    767f:	00 00                	add    BYTE PTR [rax],al
    7681:	0c 0c                	or     al,0xc
    7683:	0c 14                	or     al,0x14
    7685:	14 14                	adc    al,0x14
    7687:	24 24                	and    al,0x24
    7689:	44 7e 04             	rex.R jle 0x7690
    768c:	04 1e                	add    al,0x1e
    768e:	00 00                	add    BYTE PTR [rax],al
    7690:	00 7c 40 40          	add    BYTE PTR [rax+rax*2+0x40],bh
    7694:	40 58                	rex pop rax
    7696:	64 02 02             	add    al,BYTE PTR fs:[rdx]
    7699:	02 02                	add    al,BYTE PTR [rdx]
    769b:	42 24 18             	rex.X and al,0x18
    769e:	00 00                	add    BYTE PTR [rax],al
    76a0:	00 18                	add    BYTE PTR [rax],bl
    76a2:	24 42                	and    al,0x42
    76a4:	40 58                	rex pop rax
    76a6:	64 42                	fs rex.X
    76a8:	42                   	rex.X
    76a9:	42                   	rex.X
    76aa:	42                   	rex.X
    76ab:	42 24 18             	rex.X and al,0x18
    76ae:	00 00                	add    BYTE PTR [rax],al
    76b0:	00 7e 42             	add    BYTE PTR [rsi+0x42],bh
    76b3:	42 04 04             	rex.X add al,0x4
    76b6:	08 08                	or     BYTE PTR [rax],cl
    76b8:	08 10                	or     BYTE PTR [rax],dl
    76ba:	10 10                	adc    BYTE PTR [rax],dl
    76bc:	10 38                	adc    BYTE PTR [rax],bh
    76be:	00 00                	add    BYTE PTR [rax],al
    76c0:	00 18                	add    BYTE PTR [rax],bl
    76c2:	24 42                	and    al,0x42
    76c4:	42                   	rex.X
    76c5:	42 24 18             	rex.X and al,0x18
    76c8:	24 42                	and    al,0x42
    76ca:	42                   	rex.X
    76cb:	42 24 18             	rex.X and al,0x18
    76ce:	00 00                	add    BYTE PTR [rax],al
    76d0:	00 18                	add    BYTE PTR [rax],bl
    76d2:	24 42                	and    al,0x42
    76d4:	42                   	rex.X
    76d5:	42                   	rex.X
    76d6:	42                   	rex.X
    76d7:	42                   	rex.X
    76d8:	26 1a 02             	sbb    al,BYTE PTR es:[rdx]
    76db:	42 24 18             	rex.X and al,0x18
    76de:	00 00                	add    BYTE PTR [rax],al
    76e0:	00 00                	add    BYTE PTR [rax],al
    76e2:	00 00                	add    BYTE PTR [rax],al
    76e4:	00 18                	add    BYTE PTR [rax],bl
    76e6:	18 00                	sbb    BYTE PTR [rax],al
    76e8:	00 00                	add    BYTE PTR [rax],al
    76ea:	00 00                	add    BYTE PTR [rax],al
    76ec:	18 18                	sbb    BYTE PTR [rax],bl
    76ee:	00 00                	add    BYTE PTR [rax],al
    76f0:	00 00                	add    BYTE PTR [rax],al
    76f2:	00 00                	add    BYTE PTR [rax],al
    76f4:	00 18                	add    BYTE PTR [rax],bl
    76f6:	18 00                	sbb    BYTE PTR [rax],al
    76f8:	00 00                	add    BYTE PTR [rax],al
    76fa:	00 18                	add    BYTE PTR [rax],bl
    76fc:	18 08                	sbb    BYTE PTR [rax],cl
    76fe:	08 10                	or     BYTE PTR [rax],dl
    7700:	00 02                	add    BYTE PTR [rdx],al
    7702:	04 08                	add    al,0x8
    7704:	10 20                	adc    BYTE PTR [rax],ah
    7706:	40 80 80 40 20 10 08 	rex add BYTE PTR [rax+0x8102040],0x4
    770d:	04 
    770e:	02 00                	add    al,BYTE PTR [rax]
    7710:	00 00                	add    BYTE PTR [rax],al
    7712:	00 00                	add    BYTE PTR [rax],al
    7714:	00 00                	add    BYTE PTR [rax],al
    7716:	fe 00                	inc    BYTE PTR [rax]
    7718:	00 fe                	add    dh,bh
    771a:	00 00                	add    BYTE PTR [rax],al
    771c:	00 00                	add    BYTE PTR [rax],al
    771e:	00 00                	add    BYTE PTR [rax],al
    7720:	00 80 40 20 10 08    	add    BYTE PTR [rax+0x8102040],al
    7726:	04 02                	add    al,0x2
    7728:	02 04 08             	add    al,BYTE PTR [rax+rcx*1]
    772b:	10 20                	adc    BYTE PTR [rax],ah
    772d:	40 80 00 00          	rex add BYTE PTR [rax],0x0
    7731:	38 44 82 82          	cmp    BYTE PTR [rdx+rax*4-0x7e],al
    7735:	82                   	(bad)  
    7736:	04 08                	add    al,0x8
    7738:	10 10                	adc    BYTE PTR [rax],dl
    773a:	00 00                	add    BYTE PTR [rax],al
    773c:	18 18                	sbb    BYTE PTR [rax],bl
    773e:	00 00                	add    BYTE PTR [rax],al
    7740:	00 38                	add    BYTE PTR [rax],bh
    7742:	44 82                	rex.R (bad) 
    7744:	9a                   	(bad)  
    7745:	aa                   	stos   BYTE PTR es:[rdi],al
    7746:	aa                   	stos   BYTE PTR es:[rdi],al
    7747:	aa                   	stos   BYTE PTR es:[rdi],al
    7748:	aa                   	stos   BYTE PTR es:[rdi],al
    7749:	aa                   	stos   BYTE PTR es:[rdi],al
    774a:	9c                   	pushf  
    774b:	80 46 38 00          	add    BYTE PTR [rsi+0x38],0x0
    774f:	00 00                	add    BYTE PTR [rax],al
    7751:	18 18                	sbb    BYTE PTR [rax],bl
    7753:	18 18                	sbb    BYTE PTR [rax],bl
    7755:	24 24                	and    al,0x24
    7757:	24 24                	and    al,0x24
    7759:	7e 42                	jle    0x779d
    775b:	42                   	rex.X
    775c:	42 e7 00             	rex.X out 0x0,eax
    775f:	00 00                	add    BYTE PTR [rax],al
    7761:	f0 48                	lock rex.W
    7763:	44                   	rex.R
    7764:	44                   	rex.R
    7765:	44                   	rex.R
    7766:	48 78 44             	rex.W js 0x77ad
    7769:	42                   	rex.X
    776a:	42                   	rex.X
    776b:	42                   	rex.X
    776c:	44 f8                	rex.R clc 
    776e:	00 00                	add    BYTE PTR [rax],al
    7770:	00 3a                	add    BYTE PTR [rdx],bh
    7772:	46                   	rex.RX
    7773:	42 82                	rex.X (bad) 
    7775:	80 80 80 80 80 82 42 	add    BYTE PTR [rax-0x7d7f7f80],0x42
    777c:	44 38 00             	cmp    BYTE PTR [rax],r8b
    777f:	00 00                	add    BYTE PTR [rax],al
    7781:	f8                   	clc    
    7782:	44                   	rex.R
    7783:	44                   	rex.R
    7784:	42                   	rex.X
    7785:	42                   	rex.X
    7786:	42                   	rex.X
    7787:	42                   	rex.X
    7788:	42                   	rex.X
    7789:	42                   	rex.X
    778a:	42                   	rex.X
    778b:	44                   	rex.R
    778c:	44 f8                	rex.R clc 
    778e:	00 00                	add    BYTE PTR [rax],al
    7790:	00 fe                	add    dh,bh
    7792:	42                   	rex.X
    7793:	42                   	rex.X
    7794:	40                   	rex
    7795:	40                   	rex
    7796:	44 7c 44             	rex.R jl 0x77dd
    7799:	40                   	rex
    779a:	40                   	rex
    779b:	42                   	rex.X
    779c:	42 fe 00             	rex.X inc BYTE PTR [rax]
    779f:	00 00                	add    BYTE PTR [rax],al
    77a1:	fe 42 42             	inc    BYTE PTR [rdx+0x42]
    77a4:	40                   	rex
    77a5:	40                   	rex
    77a6:	44 7c 44             	rex.R jl 0x77ed
    77a9:	44                   	rex.R
    77aa:	40                   	rex
    77ab:	40                   	rex
    77ac:	40                   	rex
    77ad:	f0 00 00             	lock add BYTE PTR [rax],al
    77b0:	00 3a                	add    BYTE PTR [rdx],bh
    77b2:	46                   	rex.RX
    77b3:	42 82                	rex.X (bad) 
    77b5:	80 80 9e 82 82 82 42 	add    BYTE PTR [rax-0x7d7d7d62],0x42
    77bc:	46 38 00             	rex.RX cmp BYTE PTR [rax],r8b
    77bf:	00 00                	add    BYTE PTR [rax],al
    77c1:	e7 42                	out    0x42,eax
    77c3:	42                   	rex.X
    77c4:	42                   	rex.X
    77c5:	42                   	rex.X
    77c6:	42 7e 42             	rex.X jle 0x780b
    77c9:	42                   	rex.X
    77ca:	42                   	rex.X
    77cb:	42                   	rex.X
    77cc:	42 e7 00             	rex.X out 0x0,eax
    77cf:	00 00                	add    BYTE PTR [rax],al
    77d1:	7c 10                	jl     0x77e3
    77d3:	10 10                	adc    BYTE PTR [rax],dl
    77d5:	10 10                	adc    BYTE PTR [rax],dl
    77d7:	10 10                	adc    BYTE PTR [rax],dl
    77d9:	10 10                	adc    BYTE PTR [rax],dl
    77db:	10 10                	adc    BYTE PTR [rax],dl
    77dd:	7c 00                	jl     0x77df
    77df:	00 00                	add    BYTE PTR [rax],al
    77e1:	1f                   	(bad)  
    77e2:	04 04                	add    al,0x4
    77e4:	04 04                	add    al,0x4
    77e6:	04 04                	add    al,0x4
    77e8:	04 04                	add    al,0x4
    77ea:	04 04                	add    al,0x4
    77ec:	84 48 30             	test   BYTE PTR [rax+0x30],cl
    77ef:	00 00                	add    BYTE PTR [rax],al
    77f1:	e7 42                	out    0x42,eax
    77f3:	44                   	rex.R
    77f4:	48 50                	rex.W push rax
    77f6:	50                   	push   rax
    77f7:	60                   	(bad)  
    77f8:	50                   	push   rax
    77f9:	50                   	push   rax
    77fa:	48                   	rex.W
    77fb:	44                   	rex.R
    77fc:	42 e7 00             	rex.X out 0x0,eax
    77ff:	00 00                	add    BYTE PTR [rax],al
    7801:	f0 40                	lock rex
    7803:	40                   	rex
    7804:	40                   	rex
    7805:	40                   	rex
    7806:	40                   	rex
    7807:	40                   	rex
    7808:	40                   	rex
    7809:	40                   	rex
    780a:	40                   	rex
    780b:	42                   	rex.X
    780c:	42 fe 00             	rex.X inc BYTE PTR [rax]
    780f:	00 00                	add    BYTE PTR [rax],al
    7811:	c3                   	ret    
    7812:	42                   	rex.X
    7813:	66 66 66 5a          	data16 data16 pop dx
    7817:	5a                   	pop    rdx
    7818:	5a                   	pop    rdx
    7819:	42                   	rex.X
    781a:	42                   	rex.X
    781b:	42                   	rex.X
    781c:	42 e7 00             	rex.X out 0x0,eax
    781f:	00 00                	add    BYTE PTR [rax],al
    7821:	c7 42 62 62 52 52 52 	mov    DWORD PTR [rdx+0x62],0x52525262
    7828:	4a                   	rex.WX
    7829:	4a                   	rex.WX
    782a:	4a                   	rex.WX
    782b:	46                   	rex.RX
    782c:	46 e2 00             	rex.RX loop 0x782f
    782f:	00 00                	add    BYTE PTR [rax],al
    7831:	38 44 82 82          	cmp    BYTE PTR [rdx+rax*4-0x7e],al
    7835:	82                   	(bad)  
    7836:	82                   	(bad)  
    7837:	82                   	(bad)  
    7838:	82                   	(bad)  
    7839:	82                   	(bad)  
    783a:	82                   	(bad)  
    783b:	82                   	(bad)  
    783c:	44 38 00             	cmp    BYTE PTR [rax],r8b
    783f:	00 00                	add    BYTE PTR [rax],al
    7841:	f8                   	clc    
    7842:	44                   	rex.R
    7843:	42                   	rex.X
    7844:	42                   	rex.X
    7845:	42                   	rex.X
    7846:	44 78 40             	rex.R js 0x7889
    7849:	40                   	rex
    784a:	40                   	rex
    784b:	40                   	rex
    784c:	40                   	rex
    784d:	f0 00 00             	lock add BYTE PTR [rax],al
    7850:	00 38                	add    BYTE PTR [rax],bh
    7852:	44 82                	rex.R (bad) 
    7854:	82                   	(bad)  
    7855:	82                   	(bad)  
    7856:	82                   	(bad)  
    7857:	82                   	(bad)  
    7858:	82                   	(bad)  
    7859:	82                   	(bad)  
    785a:	92                   	xchg   edx,eax
    785b:	8a 44 3a 00          	mov    al,BYTE PTR [rdx+rdi*1+0x0]
    785f:	00 00                	add    BYTE PTR [rax],al
    7861:	fc                   	cld    
    7862:	42                   	rex.X
    7863:	42                   	rex.X
    7864:	42                   	rex.X
    7865:	42 7c 44             	rex.X jl 0x78ac
    7868:	42                   	rex.X
    7869:	42                   	rex.X
    786a:	42                   	rex.X
    786b:	42                   	rex.X
    786c:	42 e7 00             	rex.X out 0x0,eax
    786f:	00 00                	add    BYTE PTR [rax],al
    7871:	3a 46 82             	cmp    al,BYTE PTR [rsi-0x7e]
    7874:	82                   	(bad)  
    7875:	80 40 38 04          	add    BYTE PTR [rax+0x38],0x4
    7879:	02 82 82 c4 b8 00    	add    al,BYTE PTR [rdx+0xb8c482]
    787f:	00 00                	add    BYTE PTR [rax],al
    7881:	fe                   	(bad)  
    7882:	92                   	xchg   edx,eax
    7883:	92                   	xchg   edx,eax
    7884:	10 10                	adc    BYTE PTR [rax],dl
    7886:	10 10                	adc    BYTE PTR [rax],dl
    7888:	10 10                	adc    BYTE PTR [rax],dl
    788a:	10 10                	adc    BYTE PTR [rax],dl
    788c:	10 7c 00 00          	adc    BYTE PTR [rax+rax*1+0x0],bh
    7890:	00 e7                	add    bh,ah
    7892:	42                   	rex.X
    7893:	42                   	rex.X
    7894:	42                   	rex.X
    7895:	42                   	rex.X
    7896:	42                   	rex.X
    7897:	42                   	rex.X
    7898:	42                   	rex.X
    7899:	42                   	rex.X
    789a:	42                   	rex.X
    789b:	42 24 3c             	rex.X and al,0x3c
    789e:	00 00                	add    BYTE PTR [rax],al
    78a0:	00 e7                	add    bh,ah
    78a2:	42                   	rex.X
    78a3:	42                   	rex.X
    78a4:	42                   	rex.X
    78a5:	42 24 24             	rex.X and al,0x24
    78a8:	24 24                	and    al,0x24
    78aa:	18 18                	sbb    BYTE PTR [rax],bl
    78ac:	18 18                	sbb    BYTE PTR [rax],bl
    78ae:	00 00                	add    BYTE PTR [rax],al
    78b0:	00 e7                	add    bh,ah
    78b2:	42                   	rex.X
    78b3:	42                   	rex.X
    78b4:	42 5a                	rex.X pop rdx
    78b6:	5a                   	pop    rdx
    78b7:	5a                   	pop    rdx
    78b8:	5a                   	pop    rdx
    78b9:	24 24                	and    al,0x24
    78bb:	24 24                	and    al,0x24
    78bd:	24 00                	and    al,0x0
    78bf:	00 00                	add    BYTE PTR [rax],al
    78c1:	e7 42                	out    0x42,eax
    78c3:	42 24 24             	rex.X and al,0x24
    78c6:	24 18                	and    al,0x18
    78c8:	24 24                	and    al,0x24
    78ca:	24 42                	and    al,0x42
    78cc:	42 e7 00             	rex.X out 0x0,eax
    78cf:	00 00                	add    BYTE PTR [rax],al
    78d1:	ee                   	out    dx,al
    78d2:	44                   	rex.R
    78d3:	44                   	rex.R
    78d4:	44 28 28             	sub    BYTE PTR [rax],r13b
    78d7:	28 10                	sub    BYTE PTR [rax],dl
    78d9:	10 10                	adc    BYTE PTR [rax],dl
    78db:	10 10                	adc    BYTE PTR [rax],dl
    78dd:	7c 00                	jl     0x78df
    78df:	00 00                	add    BYTE PTR [rax],al
    78e1:	fe 84 84 08 08 10 10 	inc    BYTE PTR [rsp+rax*4+0x10100808]
    78e8:	20 20                	and    BYTE PTR [rax],ah
    78ea:	40                   	rex
    78eb:	42 82                	rex.X (bad) 
    78ed:	fe 00                	inc    BYTE PTR [rax]
    78ef:	00 00                	add    BYTE PTR [rax],al
    78f1:	3e 20 20             	and    BYTE PTR ds:[rax],ah
    78f4:	20 20                	and    BYTE PTR [rax],ah
    78f6:	20 20                	and    BYTE PTR [rax],ah
    78f8:	20 20                	and    BYTE PTR [rax],ah
    78fa:	20 20                	and    BYTE PTR [rax],ah
    78fc:	20 20                	and    BYTE PTR [rax],ah
    78fe:	3e 00 80 80 40 40 20 	add    BYTE PTR ds:[rax+0x20404080],al
    7905:	20 20                	and    BYTE PTR [rax],ah
    7907:	10 10                	adc    BYTE PTR [rax],dl
    7909:	08 08                	or     BYTE PTR [rax],cl
    790b:	04 04                	add    al,0x4
    790d:	04 02                	add    al,0x2
    790f:	02 00                	add    al,BYTE PTR [rax]
    7911:	7c 04                	jl     0x7917
    7913:	04 04                	add    al,0x4
    7915:	04 04                	add    al,0x4
    7917:	04 04                	add    al,0x4
    7919:	04 04                	add    al,0x4
    791b:	04 04                	add    al,0x4
    791d:	04 7c                	add    al,0x7c
    791f:	00 00                	add    BYTE PTR [rax],al
    7921:	10 28                	adc    BYTE PTR [rax],ch
    7923:	44 82                	rex.R (bad) 
    793d:	00 fe                	add    dh,bh
    793f:	00 10                	add    BYTE PTR [rax],dl
    7941:	08 04 00             	or     BYTE PTR [rax+rax*1],al
    7954:	00 70 08             	add    BYTE PTR [rax+0x8],dh
    7957:	04 3c                	add    al,0x3c
    7959:	44 84 84 8c 76 00 00 	test   BYTE PTR [rsp+rcx*4-0x3fffff8a],r8b
    7960:	c0 
    7961:	40                   	rex
    7962:	40                   	rex
    7963:	40                   	rex
    7964:	40 58                	rex pop rax
    7966:	64 42                	fs rex.X
    7968:	42                   	rex.X
    7969:	42                   	rex.X
    796a:	42                   	rex.X
    796b:	42                   	rex.X
    796c:	64 58                	fs pop rax
    796e:	00 00                	add    BYTE PTR [rax],al
    7970:	00 00                	add    BYTE PTR [rax],al
    7972:	00 00                	add    BYTE PTR [rax],al
    7974:	00 30                	add    BYTE PTR [rax],dh
    7976:	4c 84 84 80 80 82 44 	rex.WR test BYTE PTR [rax+rax*4+0x38448280],r8b
    797d:	38 
    797e:	00 00                	add    BYTE PTR [rax],al
    7980:	0c 04                	or     al,0x4
    7982:	04 04                	add    al,0x4
    7984:	04 34                	add    al,0x34
    7986:	4c 84 84 84 84 84 4c 	rex.WR test BYTE PTR [rsp+rax*4+0x364c8484],r8b
    798d:	36 
    798e:	00 00                	add    BYTE PTR [rax],al
    7990:	00 00                	add    BYTE PTR [rax],al
    7992:	00 00                	add    BYTE PTR [rax],al
    7994:	00 38                	add    BYTE PTR [rax],bh
    7996:	44 82                	rex.R (bad) 
    7998:	82                   	(bad)  
    7999:	fc                   	cld    
    799a:	80 82 42 3c 00 00 0e 	add    BYTE PTR [rdx+0x3c42],0xe
    79a1:	10 10                	adc    BYTE PTR [rax],dl
    79a3:	10 10                	adc    BYTE PTR [rax],dl
    79a5:	7c 10                	jl     0x79b7
    79a7:	10 10                	adc    BYTE PTR [rax],dl
    79a9:	10 10                	adc    BYTE PTR [rax],dl
    79ab:	10 10                	adc    BYTE PTR [rax],dl
    79ad:	7c 00                	jl     0x79af
    79af:	00 00                	add    BYTE PTR [rax],al
    79b1:	00 00                	add    BYTE PTR [rax],al
    79b3:	00 00                	add    BYTE PTR [rax],al
    79b5:	36 4c 84 84 84 84 4c 	rex.WR test BYTE PTR ss:[rsp+rax*4+0x4344c84],r8b
    79bc:	34 04 
    79be:	04 78                	add    al,0x78
    79c0:	c0 40 40 40          	rol    BYTE PTR [rax+0x40],0x40
    79c4:	40 58                	rex pop rax
    79c6:	64 42                	fs rex.X
    79c8:	42                   	rex.X
    79c9:	42                   	rex.X
    79ca:	42                   	rex.X
    79cb:	42                   	rex.X
    79cc:	42 e3 00             	rex.X jrcxz 0x79cf
    79cf:	00 00                	add    BYTE PTR [rax],al
    79d1:	10 10                	adc    BYTE PTR [rax],dl
    79d3:	00 00                	add    BYTE PTR [rax],al
    79d5:	30 10                	xor    BYTE PTR [rax],dl
    79d7:	10 10                	adc    BYTE PTR [rax],dl
    79d9:	10 10                	adc    BYTE PTR [rax],dl
    79db:	10 10                	adc    BYTE PTR [rax],dl
    79dd:	38 00                	cmp    BYTE PTR [rax],al
    79df:	00 00                	add    BYTE PTR [rax],al
    79e1:	04 04                	add    al,0x4
    79e3:	00 00                	add    BYTE PTR [rax],al
    79e5:	0c 04                	or     al,0x4
    79e7:	04 04                	add    al,0x4
    79e9:	04 04                	add    al,0x4
    79eb:	04 04                	add    al,0x4
    79ed:	08 08                	or     BYTE PTR [rax],cl
    79ef:	30 c0                	xor    al,al
    79f1:	40                   	rex
    79f2:	40                   	rex
    79f3:	40                   	rex
    79f4:	40                   	rex
    79f5:	4e                   	rex.WRX
    79f6:	44                   	rex.R
    79f7:	48 50                	rex.W push rax
    79f9:	60                   	(bad)  
    79fa:	50                   	push   rax
    79fb:	48                   	rex.W
    79fc:	44 e6 00             	rex.R out 0x0,al
    79ff:	00 30                	add    BYTE PTR [rax],dh
    7a01:	10 10                	adc    BYTE PTR [rax],dl
    7a03:	10 10                	adc    BYTE PTR [rax],dl
    7a05:	10 10                	adc    BYTE PTR [rax],dl
    7a07:	10 10                	adc    BYTE PTR [rax],dl
    7a09:	10 10                	adc    BYTE PTR [rax],dl
    7a0b:	10 10                	adc    BYTE PTR [rax],dl
    7a0d:	38 00                	cmp    BYTE PTR [rax],al
    7a0f:	00 00                	add    BYTE PTR [rax],al
    7a11:	00 00                	add    BYTE PTR [rax],al
    7a13:	00 00                	add    BYTE PTR [rax],al
    7a15:	f6 49 49 49          	test   BYTE PTR [rcx+0x49],0x49
    7a19:	49                   	rex.WB
    7a1a:	49                   	rex.WB
    7a1b:	49                   	rex.WB
    7a1c:	49 db 00             	rex.WB fild DWORD PTR [r8]
    7a1f:	00 00                	add    BYTE PTR [rax],al
    7a21:	00 00                	add    BYTE PTR [rax],al
    7a23:	00 00                	add    BYTE PTR [rax],al
    7a25:	d8 64 42 42          	fsub   DWORD PTR [rdx+rax*2+0x42]
    7a29:	42                   	rex.X
    7a2a:	42                   	rex.X
    7a2b:	42                   	rex.X
    7a2c:	42 e3 00             	rex.X jrcxz 0x7a2f
    7a2f:	00 00                	add    BYTE PTR [rax],al
    7a31:	00 00                	add    BYTE PTR [rax],al
    7a33:	00 00                	add    BYTE PTR [rax],al
    7a35:	38 44 82 82          	cmp    BYTE PTR [rdx+rax*4-0x7e],al
    7a39:	82                   	(bad)  
    7a3a:	82                   	(bad)  
    7a3b:	82                   	(bad)  
    7a3c:	44 38 00             	cmp    BYTE PTR [rax],r8b
    7a3f:	00 00                	add    BYTE PTR [rax],al
    7a41:	00 00                	add    BYTE PTR [rax],al
    7a43:	00 00                	add    BYTE PTR [rax],al
    7a45:	d8 64 42 42          	fsub   DWORD PTR [rdx+rax*2+0x42]
    7a49:	42                   	rex.X
    7a4a:	42                   	rex.X
    7a4b:	42                   	rex.X
    7a4c:	64 58                	fs pop rax
    7a4e:	40 e0 00             	rex loopne 0x7a51
    7a51:	00 00                	add    BYTE PTR [rax],al
    7a53:	00 00                	add    BYTE PTR [rax],al
    7a55:	34 4c                	xor    al,0x4c
    7a57:	84 84 84 84 84 4c 34 	test   BYTE PTR [rsp+rax*4+0x344c8484],al
    7a5e:	04 0e                	add    al,0xe
    7a60:	00 00                	add    BYTE PTR [rax],al
    7a62:	00 00                	add    BYTE PTR [rax],al
    7a64:	00 dc                	add    ah,bl
    7a66:	62 42                	(bad)  
    7a68:	40                   	rex
    7a69:	40                   	rex
    7a6a:	40                   	rex
    7a6b:	40                   	rex
    7a6c:	40 e0 00             	rex loopne 0x7a6f
    7a6f:	00 00                	add    BYTE PTR [rax],al
    7a71:	00 00                	add    BYTE PTR [rax],al
    7a73:	00 00                	add    BYTE PTR [rax],al
    7a75:	7a 86                	jp     0x79fd
    7a77:	82                   	(bad)  
    7a78:	c0 38 06             	sar    BYTE PTR [rax],0x6
    7a7b:	82                   	(bad)  
    7a7c:	c2 bc 00             	ret    0xbc
    7a7f:	00 00                	add    BYTE PTR [rax],al
    7a81:	00 10                	add    BYTE PTR [rax],dl
    7a83:	10 10                	adc    BYTE PTR [rax],dl
    7a85:	7c 10                	jl     0x7a97
    7a87:	10 10                	adc    BYTE PTR [rax],dl
    7a89:	10 10                	adc    BYTE PTR [rax],dl
    7a8b:	10 10                	adc    BYTE PTR [rax],dl
    7a8d:	0e                   	(bad)  
    7a8e:	00 00                	add    BYTE PTR [rax],al
    7a90:	00 00                	add    BYTE PTR [rax],al
    7a92:	00 00                	add    BYTE PTR [rax],al
    7a94:	00 c6                	add    dh,al
    7a96:	42                   	rex.X
    7a97:	42                   	rex.X
    7a98:	42                   	rex.X
    7a99:	42                   	rex.X
    7a9a:	42                   	rex.X
    7a9b:	42                   	rex.X
    7a9c:	46 3b 00             	rex.RX cmp r8d,DWORD PTR [rax]
    7a9f:	00 00                	add    BYTE PTR [rax],al
    7aa1:	00 00                	add    BYTE PTR [rax],al
    7aa3:	00 00                	add    BYTE PTR [rax],al
    7aa5:	e7 42                	out    0x42,eax
    7aa7:	42                   	rex.X
    7aa8:	42 24 24             	rex.X and al,0x24
    7aab:	24 18                	and    al,0x18
    7aad:	18 00                	sbb    BYTE PTR [rax],al
    7aaf:	00 00                	add    BYTE PTR [rax],al
    7ab1:	00 00                	add    BYTE PTR [rax],al
    7ab3:	00 00                	add    BYTE PTR [rax],al
    7ab5:	e7 42                	out    0x42,eax
    7ab7:	42 5a                	rex.X pop rdx
    7ab9:	5a                   	pop    rdx
    7aba:	5a                   	pop    rdx
    7abb:	24 24                	and    al,0x24
    7abd:	24 00                	and    al,0x0
    7abf:	00 00                	add    BYTE PTR [rax],al
    7ac1:	00 00                	add    BYTE PTR [rax],al
    7ac3:	00 00                	add    BYTE PTR [rax],al
    7ac5:	c6 44 28 28 10       	mov    BYTE PTR [rax+rbp*1+0x28],0x10
    7aca:	28 28                	sub    BYTE PTR [rax],ch
    7acc:	44 c6 00 00          	rex.R mov BYTE PTR [rax],0x0
    7ad0:	00 00                	add    BYTE PTR [rax],al
    7ad2:	00 00                	add    BYTE PTR [rax],al
    7ad4:	00 e7                	add    bh,ah
    7ad6:	42                   	rex.X
    7ad7:	42 24 24             	rex.X and al,0x24
    7ada:	24 18                	and    al,0x18
    7adc:	18 10                	sbb    BYTE PTR [rax],dl
    7ade:	10 60 00             	adc    BYTE PTR [rax+0x0],ah
    7ae1:	00 00                	add    BYTE PTR [rax],al
    7ae3:	00 00                	add    BYTE PTR [rax],al
    7ae5:	fe 82 84 08 10 20    	inc    BYTE PTR [rdx+0x20100884]
    7aeb:	42 82                	rex.X (bad) 
    7aed:	fe 00                	inc    BYTE PTR [rax]
    7aef:	00 00                	add    BYTE PTR [rax],al
    7af1:	06                   	(bad)  
    7af2:	08 10                	or     BYTE PTR [rax],dl
    7af4:	10 10                	adc    BYTE PTR [rax],dl
    7af6:	10 60 10             	adc    BYTE PTR [rax+0x10],ah
    7af9:	10 10                	adc    BYTE PTR [rax],dl
    7afb:	10 08                	adc    BYTE PTR [rax],cl
    7afd:	06                   	(bad)  
    7afe:	00 00                	add    BYTE PTR [rax],al
    7b00:	10 10                	adc    BYTE PTR [rax],dl
    7b02:	10 10                	adc    BYTE PTR [rax],dl
    7b04:	10 10                	adc    BYTE PTR [rax],dl
    7b06:	10 10                	adc    BYTE PTR [rax],dl
    7b08:	10 10                	adc    BYTE PTR [rax],dl
    7b0a:	10 10                	adc    BYTE PTR [rax],dl
    7b0c:	10 10                	adc    BYTE PTR [rax],dl
    7b0e:	10 10                	adc    BYTE PTR [rax],dl
    7b10:	00 60 10             	add    BYTE PTR [rax+0x10],ah
    7b13:	08 08                	or     BYTE PTR [rax],cl
    7b15:	08 08                	or     BYTE PTR [rax],cl
    7b17:	06                   	(bad)  
    7b18:	08 08                	or     BYTE PTR [rax],cl
    7b1a:	08 08                	or     BYTE PTR [rax],cl
    7b1c:	10 60 00             	adc    BYTE PTR [rax+0x0],ah
    7b1f:	00 00                	add    BYTE PTR [rax],al
    7b21:	72 8c                	jb     0x7aaf
    7b2f:	00 ff                	add    bh,bh
    7b31:	ff                   	(bad)  
    7b32:	ff 00                	inc    DWORD PTR [rax]
0x0000000000117b34: red
    7b34:	00 00                	add    BYTE PTR [rax],al
    7b36:	ff 00                	inc    DWORD PTR [rax]
0x0000000000117b38: green
    7b38:	00 ff                	add    bh,bh
    7b3a:	00 00                	add    BYTE PTR [rax],al
0x0000000000117b3c: blue
    7b3c:	ff 00                	inc    DWORD PTR [rax]
    7b3e:	00 00                	add    BYTE PTR [rax],al
0x0000000000117b40: end_of_interrupt
    7b40:	b0 00                	mov    al,0x0
    7b42:	e0 fe                	loopne 0x7b42
    7b44:	00 00                	add    BYTE PTR [rax],al
    7b46:	00 00                	add    BYTE PTR [rax],al
0x0000000000117b48: LVT_Timer
    7b48:	20 03                	and    BYTE PTR [rbx],al
    7b4a:	e0 fe                	loopne 0x7b4a
    7b4c:	00 00                	add    BYTE PTR [rax],al
    7b4e:	00 00                	add    BYTE PTR [rax],al
0x0000000000117b50: Initial_Count
    7b50:	80 03 e0             	add    BYTE PTR [rbx],0xe0
    7b53:	fe 00                	inc    BYTE PTR [rax]
    7b55:	00 00                	add    BYTE PTR [rax],al
    7b57:	00 90 03 e0 fe 00    	add    BYTE PTR [rax+0xfee003],dl
    7b5d:	00 00                	add    BYTE PTR [rax],al
    7b5f:	00 e0                	add    al,ah
    7b61:	03 e0                	add    esp,eax
    7b63:	fe 00                	inc    BYTE PTR [rax]
    7ba5:	00 00                	add    BYTE PTR [rax],al
    7ba7:	00 66 2e             	add    BYTE PTR [rsi+0x2e],ah
    7baa:	0f 1f 84 00 00 00 00 	nop    DWORD PTR [rax+rax*1+0x0]
    7bb1:	00 
    7bb2:	66 2e 0f 1f 84 00 00 	nop    WORD PTR cs:[rax+rax*1+0x0]
    7bb9:	00 00 00 
    7bbc:	0f 1f 40 00          	nop    DWORD PTR [rax+0x0]
    80e0:	00 00                	add    BYTE PTR [rax],al
    80e2:	66 0f 1f 44 00 00    	nop    WORD PTR [rax+rax*1+0x0]
    80f0:	66 2e 0f 1f 84 00 00 	nop    WORD PTR cs:[rax+rax*1+0x0]
    80f7:	00 00 00 
    80fa:	66 0f 1f 44 00 00    	nop    WORD PTR [rax+rax*1+0x0]
