./kernel/kernel.bin:     ファイル形式 binary
       0:	55                   	push   rbp
       1:	48 89 e5             	mov    rbp,rsp
       4:	48 83 ec 10          	sub    rsp,0x10
       8:	48 89 7d f8          	mov    QWORD PTR [rbp-0x8],rdi
       c:	e8 76 1b 00 00       	call   0x1b87
      11:	e8 a3 43 00 00       	call   0x43b9
      16:	48 8b 45 f8          	mov    rax,QWORD PTR [rbp-0x8]
      1a:	48 89 c7             	mov    rdi,rax
      1d:	e8 bb 1b 00 00       	call   0x1bdd
      22:	e8 0c 1c 00 00       	call   0x1c33
      27:	90                   	nop
      28:	c9                   	leave  
      29:	c3                   	ret    
0x000000000011002a: main_routine
      2a:	55                   	push   rbp
      2b:	48 89 e5             	mov    rbp,rsp
      2e:	48 81 ec f0 00 00 00 	sub    rsp,0xf0
      35:	e8 8a 1c 00 00       	call   0x1cc4
      3a:	e8 4d 1d 00 00       	call   0x1d8c
      3f:	e8 b6 1c 00 00       	call   0x1cfa
      44:	e8 6f 25 00 00       	call   0x25b8
      49:	48 8b 05 f8 7d 00 00 	mov    rax,QWORD PTR [rip+0x7df8]        # 0x7e48
      50:	41 b9 48 61 11 00    	mov    r9d,0x116148
      56:	49 89 c0             	mov    r8,rax
      59:	8b 0d b1 7d 00 00    	mov    ecx,DWORD PTR [rip+0x7db1]        # 0x7e10
      5f:	8b 15 17 7e 00 00    	mov    edx,DWORD PTR [rip+0x7e17]        # 0x7e7c
      65:	be 0a 00 00 00       	mov    esi,0xa
      6a:	bf 58 02 00 00       	mov    edi,0x258
      6f:	e8 5c 09 00 00       	call   0x9d0
      74:	e8 77 24 00 00       	call   0x24f0
      79:	48 8b 15 c8 7d 00 00 	mov    rdx,QWORD PTR [rip+0x7dc8]        # 0x7e48
      80:	49 89 c1             	mov    r9,rax
      83:	49 89 d0             	mov    r8,rdx
      86:	8b 0d 84 7d 00 00    	mov    ecx,DWORD PTR [rip+0x7d84]        # 0x7e10
      8c:	8b 15 ea 7d 00 00    	mov    edx,DWORD PTR [rip+0x7dea]        # 0x7e7c
      92:	be 0a 00 00 00       	mov    esi,0xa
      97:	bf 8a 02 00 00       	mov    edi,0x28a
      9c:	e8 ab 09 00 00       	call   0xa4c
      a1:	48 8b 05 a0 7d 00 00 	mov    rax,QWORD PTR [rip+0x7da0]        # 0x7e48
      a8:	41 b9 4e 61 11 00    	mov    r9d,0x11614e
      ae:	49 89 c0             	mov    r8,rax
      b1:	8b 0d 59 7d 00 00    	mov    ecx,DWORD PTR [rip+0x7d59]        # 0x7e10
      b7:	8b 15 bf 7d 00 00    	mov    edx,DWORD PTR [rip+0x7dbf]        # 0x7e7c
      bd:	be 1e 00 00 00       	mov    esi,0x1e
      c2:	bf 58 02 00 00       	mov    edi,0x258
      c7:	e8 04 09 00 00       	call   0x9d0
      cc:	e8 23 24 00 00       	call   0x24f4
      d1:	48 8b 15 70 7d 00 00 	mov    rdx,QWORD PTR [rip+0x7d70]        # 0x7e48
      d8:	49 89 c1             	mov    r9,rax
      db:	49 89 d0             	mov    r8,rdx
      de:	8b 0d 2c 7d 00 00    	mov    ecx,DWORD PTR [rip+0x7d2c]        # 0x7e10
      e4:	8b 15 92 7d 00 00    	mov    edx,DWORD PTR [rip+0x7d92]        # 0x7e7c
      ea:	be 1e 00 00 00       	mov    esi,0x1e
      ef:	bf 8a 02 00 00       	mov    edi,0x28a
      f4:	e8 53 09 00 00       	call   0xa4c
      f9:	48 8b 05 48 7d 00 00 	mov    rax,QWORD PTR [rip+0x7d48]        # 0x7e48
     100:	41 b9 54 61 11 00    	mov    r9d,0x116154
     106:	49 89 c0             	mov    r8,rax
     109:	8b 0d 01 7d 00 00    	mov    ecx,DWORD PTR [rip+0x7d01]        # 0x7e10
     10f:	8b 15 67 7d 00 00    	mov    edx,DWORD PTR [rip+0x7d67]        # 0x7e7c
     115:	be 32 00 00 00       	mov    esi,0x32
     11a:	bf 58 02 00 00       	mov    edi,0x258
     11f:	e8 ac 08 00 00       	call   0x9d0
     124:	e8 cf 23 00 00       	call   0x24f8
     129:	48 8b 15 18 7d 00 00 	mov    rdx,QWORD PTR [rip+0x7d18]        # 0x7e48
     130:	49 89 c1             	mov    r9,rax
     133:	49 89 d0             	mov    r8,rdx
     136:	8b 0d d4 7c 00 00    	mov    ecx,DWORD PTR [rip+0x7cd4]        # 0x7e10
     13c:	8b 15 3a 7d 00 00    	mov    edx,DWORD PTR [rip+0x7d3a]        # 0x7e7c
     142:	be 32 00 00 00       	mov    esi,0x32
     147:	bf 8a 02 00 00       	mov    edi,0x28a
     14c:	e8 fb 08 00 00       	call   0xa4c
     151:	48 8b 05 f0 7c 00 00 	mov    rax,QWORD PTR [rip+0x7cf0]        # 0x7e48
     158:	41 b9 60 61 11 00    	mov    r9d,0x116160
     15e:	49 89 c0             	mov    r8,rax
     161:	8b 0d a9 7c 00 00    	mov    ecx,DWORD PTR [rip+0x7ca9]        # 0x7e10
     167:	8b 15 0f 7d 00 00    	mov    edx,DWORD PTR [rip+0x7d0f]        # 0x7e7c
     16d:	be 30 02 00 00       	mov    esi,0x230
     172:	bf 03 02 00 00       	mov    edi,0x203
     177:	e8 54 08 00 00       	call   0x9d0
     17c:	48 8b 05 c5 7c 00 00 	mov    rax,QWORD PTR [rip+0x7cc5]        # 0x7e48
     183:	41 b9 88 61 11 00    	mov    r9d,0x116188
     189:	49 89 c0             	mov    r8,rax
     18c:	8b 0d 7e 7c 00 00    	mov    ecx,DWORD PTR [rip+0x7c7e]        # 0x7e10
     192:	8b 15 e4 7c 00 00    	mov    edx,DWORD PTR [rip+0x7ce4]        # 0x7e7c
     198:	be 44 02 00 00       	mov    esi,0x244
     19d:	bf f4 01 00 00       	mov    edi,0x1f4
     1a2:	e8 29 08 00 00       	call   0x9d0
     1a7:	c7 45 fc 03 00 00 00 	mov    DWORD PTR [rbp-0x4],0x3
     1ae:	bf ae 61 11 00       	mov    edi,0x1161ae
     1b3:	e8 50 43 00 00       	call   0x4508
     1b8:	8b 45 fc             	mov    eax,DWORD PTR [rbp-0x4]
     1bb:	48 98                	cdqe   
     1bd:	48 89 c7             	mov    rdi,rax
     1c0:	e8 96 43 00 00       	call   0x455b
     1c5:	bf bc 61 11 00       	mov    edi,0x1161bc
     1ca:	e8 39 43 00 00       	call   0x4508
     1cf:	8b 45 fc             	mov    eax,DWORD PTR [rbp-0x4]
     1d2:	48 98                	cdqe   
     1d4:	48 89 c7             	mov    rdi,rax
     1d7:	e8 8c 5c 00 00       	call   0x5e68
     1dc:	e8 08 5c 00 00       	call   0x5de9
     1e1:	48 8d 45 c0          	lea    rax,[rbp-0x40]
     1e5:	41 b8 00 00 00 00    	mov    r8d,0x0
     1eb:	b9 00 00 00 00       	mov    ecx,0x0
     1f0:	ba 1f 56 11 00       	mov    edx,0x11561f
     1f5:	be e0 84 11 00       	mov    esi,0x1184e0
     1fa:	48 89 c7             	mov    rdi,rax
     1fd:	e8 12 5a 00 00       	call   0x5c14
     202:	48 8d 45 88          	lea    rax,[rbp-0x78]
     206:	41 b8 00 00 00 00    	mov    r8d,0x0
     20c:	b9 00 00 00 00       	mov    ecx,0x0
     211:	ba ac 03 11 00       	mov    edx,0x1103ac
     216:	be e0 04 12 00       	mov    esi,0x1204e0
     21b:	48 89 c7             	mov    rdi,rax
     21e:	e8 f1 59 00 00       	call   0x5c14
     223:	48 8d 85 50 ff ff ff 	lea    rax,[rbp-0xb0]
     22a:	41 b8 00 00 00 00    	mov    r8d,0x0
     230:	b9 00 00 00 00       	mov    ecx,0x0
     235:	ba 6e 04 11 00       	mov    edx,0x11046e
     23a:	be e0 84 12 00       	mov    esi,0x1284e0
     23f:	48 89 c7             	mov    rdi,rax
     242:	e8 cd 59 00 00       	call   0x5c14
     247:	48 8d 85 18 ff ff ff 	lea    rax,[rbp-0xe8]
     24e:	41 b8 00 00 00 00    	mov    r8d,0x0
     254:	b9 00 00 00 00       	mov    ecx,0x0
     259:	ba 30 05 11 00       	mov    edx,0x110530
     25e:	be e0 04 13 00       	mov    esi,0x1304e0
     263:	48 89 c7             	mov    rdi,rax
     266:	e8 a9 59 00 00       	call   0x5c14
     26b:	48 83 ec 08          	sub    rsp,0x8
     26f:	ff 75 f0             	push   QWORD PTR [rbp-0x10]
     272:	ff 75 e8             	push   QWORD PTR [rbp-0x18]
     275:	ff 75 e0             	push   QWORD PTR [rbp-0x20]
     278:	ff 75 d8             	push   QWORD PTR [rbp-0x28]
     27b:	ff 75 d0             	push   QWORD PTR [rbp-0x30]
     27e:	ff 75 c8             	push   QWORD PTR [rbp-0x38]
     281:	ff 75 c0             	push   QWORD PTR [rbp-0x40]
     284:	e8 78 5a 00 00       	call   0x5d01
     289:	48 83 c4 40          	add    rsp,0x40
     28d:	48 83 ec 08          	sub    rsp,0x8
     291:	ff 75 b8             	push   QWORD PTR [rbp-0x48]
     294:	ff 75 b0             	push   QWORD PTR [rbp-0x50]
     297:	ff 75 a8             	push   QWORD PTR [rbp-0x58]
     29a:	ff 75 a0             	push   QWORD PTR [rbp-0x60]
     29d:	ff 75 98             	push   QWORD PTR [rbp-0x68]
     2a0:	ff 75 90             	push   QWORD PTR [rbp-0x70]
     2a3:	ff 75 88             	push   QWORD PTR [rbp-0x78]
     2a6:	e8 56 5a 00 00       	call   0x5d01
     2ab:	48 83 c4 40          	add    rsp,0x40
     2af:	48 83 ec 08          	sub    rsp,0x8
     2b3:	ff 75 80             	push   QWORD PTR [rbp-0x80]
     2b6:	ff b5 78 ff ff ff    	push   QWORD PTR [rbp-0x88]
     2bc:	ff b5 70 ff ff ff    	push   QWORD PTR [rbp-0x90]
     2c2:	ff b5 68 ff ff ff    	push   QWORD PTR [rbp-0x98]
     2c8:	ff b5 60 ff ff ff    	push   QWORD PTR [rbp-0xa0]
     2ce:	ff b5 58 ff ff ff    	push   QWORD PTR [rbp-0xa8]
     2d4:	ff b5 50 ff ff ff    	push   QWORD PTR [rbp-0xb0]
     2da:	e8 22 5a 00 00       	call   0x5d01
     2df:	48 83 c4 40          	add    rsp,0x40
     2e3:	48 83 ec 08          	sub    rsp,0x8
     2e7:	ff b5 48 ff ff ff    	push   QWORD PTR [rbp-0xb8]
     2ed:	ff b5 40 ff ff ff    	push   QWORD PTR [rbp-0xc0]
     2f3:	ff b5 38 ff ff ff    	push   QWORD PTR [rbp-0xc8]
     2f9:	ff b5 30 ff ff ff    	push   QWORD PTR [rbp-0xd0]
     2ff:	ff b5 28 ff ff ff    	push   QWORD PTR [rbp-0xd8]
     305:	ff b5 20 ff ff ff    	push   QWORD PTR [rbp-0xe0]
     30b:	ff b5 18 ff ff ff    	push   QWORD PTR [rbp-0xe8]
     311:	e8 eb 59 00 00       	call   0x5d01
     316:	48 83 c4 40          	add    rsp,0x40
     31a:	bf be 61 11 00       	mov    edi,0x1161be
     31f:	e8 e4 41 00 00       	call   0x4508
     324:	bf cc 61 11 00       	mov    edi,0x1161cc
     329:	e8 da 41 00 00       	call   0x4508
     32e:	48 8b 45 c8          	mov    rax,QWORD PTR [rbp-0x38]
     332:	48 89 c7             	mov    rdi,rax
     335:	e8 21 42 00 00       	call   0x455b
     33a:	bf bc 61 11 00       	mov    edi,0x1161bc
     33f:	e8 c4 41 00 00       	call   0x4508
     344:	bf dd 61 11 00       	mov    edi,0x1161dd
     349:	e8 ba 41 00 00       	call   0x4508
     34e:	48 8b 45 d8          	mov    rax,QWORD PTR [rbp-0x28]
     352:	48 89 c7             	mov    rdi,rax
     355:	e8 01 42 00 00       	call   0x455b
     35a:	bf bc 61 11 00       	mov    edi,0x1161bc
     35f:	e8 a4 41 00 00       	call   0x4508
     364:	bf f7 61 11 00       	mov    edi,0x1161f7
     369:	e8 9a 41 00 00       	call   0x4508
     36e:	48 8b 45 d0          	mov    rax,QWORD PTR [rbp-0x30]
     372:	48 89 c7             	mov    rdi,rax
     375:	e8 e1 41 00 00       	call   0x455b
     37a:	bf 09 62 11 00       	mov    edi,0x116209
     37f:	e8 84 41 00 00       	call   0x4508
     384:	bf 0c 62 11 00       	mov    edi,0x11620c
     389:	e8 7a 41 00 00       	call   0x4508
     38e:	48 8b 45 c8          	mov    rax,QWORD PTR [rbp-0x38]
     392:	48 89 c6             	mov    rsi,rax
     395:	bf 00 00 00 00       	mov    edi,0x0
     39a:	e8 81 5d 00 00       	call   0x6120
     39f:	bf 23 62 11 00       	mov    edi,0x116223
     3a4:	e8 5f 41 00 00       	call   0x4508
     3a9:	f4                   	hlt    
     3aa:	eb fd                	jmp    0x3a9
0x00000000001103ac: task_a
     3ac:	55                   	push   rbp
     3ad:	48 89 e5             	mov    rbp,rsp
     3b0:	48 8b 0d 91 7a 00 00 	mov    rcx,QWORD PTR [rip+0x7a91]        # 0x7e48
     3b7:	8b 05 b3 7a 00 00    	mov    eax,DWORD PTR [rip+0x7ab3]        # 0x7e70
     3bd:	8d 50 f8             	lea    edx,[rax-0x8]
     3c0:	48 63 c2             	movsxd rax,edx
     3c3:	48 69 c0 1f 85 eb 51 	imul   rax,rax,0x51eb851f
     3ca:	48 c1 e8 20          	shr    rax,0x20
     3ce:	89 c6                	mov    esi,eax
     3d0:	c1 fe 08             	sar    esi,0x8
     3d3:	89 d0                	mov    eax,edx
     3d5:	c1 f8 1f             	sar    eax,0x1f
     3d8:	29 c6                	sub    esi,eax
     3da:	89 f0                	mov    eax,esi
     3dc:	69 c0 20 03 00 00    	imul   eax,eax,0x320
     3e2:	29 c2                	sub    edx,eax
     3e4:	89 d0                	mov    eax,edx
     3e6:	41 b9 20 00 00 00    	mov    r9d,0x20
     3ec:	49 89 c8             	mov    r8,rcx
     3ef:	8b 0d 1b 7a 00 00    	mov    ecx,DWORD PTR [rip+0x7a1b]        # 0x7e10
     3f5:	8b 15 15 7a 00 00    	mov    edx,DWORD PTR [rip+0x7a15]        # 0x7e10
     3fb:	be 50 00 00 00       	mov    esi,0x50
     400:	89 c7                	mov    edi,eax
     402:	e8 ca 03 00 00       	call   0x7d1
     407:	48 8b 0d 3a 7a 00 00 	mov    rcx,QWORD PTR [rip+0x7a3a]        # 0x7e48
     40e:	8b 05 5c 7a 00 00    	mov    eax,DWORD PTR [rip+0x7a5c]        # 0x7e70
     414:	48 63 d0             	movsxd rdx,eax
     417:	48 69 d2 1f 85 eb 51 	imul   rdx,rdx,0x51eb851f
     41e:	48 c1 ea 20          	shr    rdx,0x20
     422:	89 d6                	mov    esi,edx
     424:	c1 fe 08             	sar    esi,0x8
     427:	99                   	cdq    
     428:	29 d6                	sub    esi,edx
     42a:	89 f2                	mov    edx,esi
     42c:	69 d2 20 03 00 00    	imul   edx,edx,0x320
     432:	29 d0                	sub    eax,edx
     434:	89 c2                	mov    edx,eax
     436:	89 d0                	mov    eax,edx
     438:	41 b9 20 00 00 00    	mov    r9d,0x20
     43e:	49 89 c8             	mov    r8,rcx
     441:	8b 0d cd 79 00 00    	mov    ecx,DWORD PTR [rip+0x79cd]        # 0x7e14
     447:	8b 15 c3 79 00 00    	mov    edx,DWORD PTR [rip+0x79c3]        # 0x7e10
     44d:	be 50 00 00 00       	mov    esi,0x50
     452:	89 c7                	mov    edi,eax
     454:	e8 78 03 00 00       	call   0x7d1
     459:	f4                   	hlt    
     45a:	8b 05 10 7a 00 00    	mov    eax,DWORD PTR [rip+0x7a10]        # 0x7e70
     460:	83 c0 01             	add    eax,0x1
     463:	89 05 07 7a 00 00    	mov    DWORD PTR [rip+0x7a07],eax        # 0x7e70
     469:	e9 42 ff ff ff       	jmp    0x3b0
0x000000000011046e: task_b
     46e:	55                   	push   rbp
     46f:	48 89 e5             	mov    rbp,rsp
     472:	48 8b 0d cf 79 00 00 	mov    rcx,QWORD PTR [rip+0x79cf]        # 0x7e48
     479:	8b 05 f5 79 00 00    	mov    eax,DWORD PTR [rip+0x79f5]        # 0x7e74
     47f:	8d 50 f8             	lea    edx,[rax-0x8]
     482:	48 63 c2             	movsxd rax,edx
     485:	48 69 c0 1f 85 eb 51 	imul   rax,rax,0x51eb851f
     48c:	48 c1 e8 20          	shr    rax,0x20
     490:	89 c6                	mov    esi,eax
     492:	c1 fe 08             	sar    esi,0x8
     495:	89 d0                	mov    eax,edx
     497:	c1 f8 1f             	sar    eax,0x1f
     49a:	29 c6                	sub    esi,eax
     49c:	89 f0                	mov    eax,esi
     49e:	69 c0 20 03 00 00    	imul   eax,eax,0x320
     4a4:	29 c2                	sub    edx,eax
     4a6:	89 d0                	mov    eax,edx
     4a8:	41 b9 20 00 00 00    	mov    r9d,0x20
     4ae:	49 89 c8             	mov    r8,rcx
     4b1:	8b 0d 59 79 00 00    	mov    ecx,DWORD PTR [rip+0x7959]        # 0x7e10
     4b7:	8b 15 53 79 00 00    	mov    edx,DWORD PTR [rip+0x7953]        # 0x7e10
     4bd:	be 60 00 00 00       	mov    esi,0x60
     4c2:	89 c7                	mov    edi,eax
     4c4:	e8 08 03 00 00       	call   0x7d1
     4c9:	48 8b 0d 78 79 00 00 	mov    rcx,QWORD PTR [rip+0x7978]        # 0x7e48
     4d0:	8b 05 9e 79 00 00    	mov    eax,DWORD PTR [rip+0x799e]        # 0x7e74
     4d6:	48 63 d0             	movsxd rdx,eax
     4d9:	48 69 d2 1f 85 eb 51 	imul   rdx,rdx,0x51eb851f
     4e0:	48 c1 ea 20          	shr    rdx,0x20
     4e4:	89 d6                	mov    esi,edx
     4e6:	c1 fe 08             	sar    esi,0x8
     4e9:	99                   	cdq    
     4ea:	29 d6                	sub    esi,edx
     4ec:	89 f2                	mov    edx,esi
     4ee:	69 d2 20 03 00 00    	imul   edx,edx,0x320
     4f4:	29 d0                	sub    eax,edx
     4f6:	89 c2                	mov    edx,eax
     4f8:	89 d0                	mov    eax,edx
     4fa:	41 b9 20 00 00 00    	mov    r9d,0x20
     500:	49 89 c8             	mov    r8,rcx
     503:	8b 0d 13 79 00 00    	mov    ecx,DWORD PTR [rip+0x7913]        # 0x7e1c
     509:	8b 15 01 79 00 00    	mov    edx,DWORD PTR [rip+0x7901]        # 0x7e10
     50f:	be 60 00 00 00       	mov    esi,0x60
     514:	89 c7                	mov    edi,eax
     516:	e8 b6 02 00 00       	call   0x7d1
     51b:	f4                   	hlt    
     51c:	8b 05 52 79 00 00    	mov    eax,DWORD PTR [rip+0x7952]        # 0x7e74
     522:	83 c0 02             	add    eax,0x2
     525:	89 05 49 79 00 00    	mov    DWORD PTR [rip+0x7949],eax        # 0x7e74
     52b:	e9 42 ff ff ff       	jmp    0x472
0x0000000000110530: task_c
     530:	55                   	push   rbp
     531:	48 89 e5             	mov    rbp,rsp
     534:	48 8b 0d 0d 79 00 00 	mov    rcx,QWORD PTR [rip+0x790d]        # 0x7e48
     53b:	8b 05 37 79 00 00    	mov    eax,DWORD PTR [rip+0x7937]        # 0x7e78
     541:	8d 50 f8             	lea    edx,[rax-0x8]
     544:	48 63 c2             	movsxd rax,edx
     547:	48 69 c0 1f 85 eb 51 	imul   rax,rax,0x51eb851f
     54e:	48 c1 e8 20          	shr    rax,0x20
     552:	89 c6                	mov    esi,eax
     554:	c1 fe 08             	sar    esi,0x8
     557:	89 d0                	mov    eax,edx
     559:	c1 f8 1f             	sar    eax,0x1f
     55c:	29 c6                	sub    esi,eax
     55e:	89 f0                	mov    eax,esi
     560:	69 c0 20 03 00 00    	imul   eax,eax,0x320
     566:	29 c2                	sub    edx,eax
     568:	89 d0                	mov    eax,edx
     56a:	41 b9 20 00 00 00    	mov    r9d,0x20
     570:	49 89 c8             	mov    r8,rcx
     573:	8b 0d 97 78 00 00    	mov    ecx,DWORD PTR [rip+0x7897]        # 0x7e10
     579:	8b 15 91 78 00 00    	mov    edx,DWORD PTR [rip+0x7891]        # 0x7e10
     57f:	be 70 00 00 00       	mov    esi,0x70
     584:	89 c7                	mov    edi,eax
     586:	e8 46 02 00 00       	call   0x7d1
     58b:	48 8b 0d b6 78 00 00 	mov    rcx,QWORD PTR [rip+0x78b6]        # 0x7e48
     592:	8b 05 e0 78 00 00    	mov    eax,DWORD PTR [rip+0x78e0]        # 0x7e78
     598:	48 63 d0             	movsxd rdx,eax
     59b:	48 69 d2 1f 85 eb 51 	imul   rdx,rdx,0x51eb851f
     5a2:	48 c1 ea 20          	shr    rdx,0x20
     5a6:	89 d6                	mov    esi,edx
     5a8:	c1 fe 08             	sar    esi,0x8
     5ab:	99                   	cdq    
     5ac:	29 d6                	sub    esi,edx
     5ae:	89 f2                	mov    edx,esi
     5b0:	69 d2 20 03 00 00    	imul   edx,edx,0x320
     5b6:	29 d0                	sub    eax,edx
     5b8:	89 c2                	mov    edx,eax
     5ba:	89 d0                	mov    eax,edx
     5bc:	41 b9 20 00 00 00    	mov    r9d,0x20
     5c2:	49 89 c8             	mov    r8,rcx
     5c5:	8b 0d 4d 78 00 00    	mov    ecx,DWORD PTR [rip+0x784d]        # 0x7e18
     5cb:	8b 15 3f 78 00 00    	mov    edx,DWORD PTR [rip+0x783f]        # 0x7e10
     5d1:	be 70 00 00 00       	mov    esi,0x70
     5d6:	89 c7                	mov    edi,eax
     5d8:	e8 f4 01 00 00       	call   0x7d1
     5dd:	f4                   	hlt    
     5de:	8b 05 94 78 00 00    	mov    eax,DWORD PTR [rip+0x7894]        # 0x7e78
     5e4:	83 c0 03             	add    eax,0x3
     5e7:	89 05 8b 78 00 00    	mov    DWORD PTR [rip+0x788b],eax        # 0x7e78
     5ed:	e9 42 ff ff ff       	jmp    0x534
0x00000000001105f2: task_input
     5f2:	55                   	push   rbp
     5f3:	48 89 e5             	mov    rbp,rsp
     5f6:	c6 05 63 7d 00 00 00 	mov    BYTE PTR [rip+0x7d63],0x0        # 0x8360
     5fd:	c6 05 5c 7d 00 00 00 	mov    BYTE PTR [rip+0x7d5c],0x0        # 0x8360
     604:	e8 4f 3e 00 00       	call   0x4458
     609:	bf 30 62 11 00       	mov    edi,0x116230
     60e:	e8 f5 3e 00 00       	call   0x4508
     613:	0f b6 05 46 7d 00 00 	movzx  eax,BYTE PTR [rip+0x7d46]        # 0x8360
     61a:	3c 0d                	cmp    al,0xd
     61c:	74 0b                	je     0x629
     61e:	0f b6 05 3b 7d 00 00 	movzx  eax,BYTE PTR [rip+0x7d3b]        # 0x8360
     625:	3c 0a                	cmp    al,0xa
     627:	75 25                	jne    0x64e
     629:	bf 6c 62 11 00       	mov    edi,0x11626c
     62e:	e8 d5 3e 00 00       	call   0x4508
     633:	8b 05 2f 7d 00 00    	mov    eax,DWORD PTR [rip+0x7d2f]        # 0x8368
     639:	83 c0 10             	add    eax,0x10
     63c:	89 05 26 7d 00 00    	mov    DWORD PTR [rip+0x7d26],eax        # 0x8368
     642:	c7 05 18 7d 00 00 00 	mov    DWORD PTR [rip+0x7d18],0x0        # 0x8364
     649:	00 00 00 
     64c:	eb 6b                	jmp    0x6b9
     64e:	bf 76 62 11 00       	mov    edi,0x116276
     653:	e8 b0 3e 00 00       	call   0x4508
     658:	0f b6 05 01 7d 00 00 	movzx  eax,BYTE PTR [rip+0x7d01]        # 0x8360
     65f:	0f b6 c0             	movzx  eax,al
     662:	48 89 c7             	mov    rdi,rax
     665:	e8 f1 3e 00 00       	call   0x455b
     66a:	bf 09 62 11 00       	mov    edi,0x116209
     66f:	e8 94 3e 00 00       	call   0x4508
     674:	0f b6 05 e5 7c 00 00 	movzx  eax,BYTE PTR [rip+0x7ce5]        # 0x8360
     67b:	0f be c8             	movsx  ecx,al
     67e:	48 8b 15 c3 77 00 00 	mov    rdx,QWORD PTR [rip+0x77c3]        # 0x7e48
     685:	8b 35 dd 7c 00 00    	mov    esi,DWORD PTR [rip+0x7cdd]        # 0x8368
     68b:	8b 05 d3 7c 00 00    	mov    eax,DWORD PTR [rip+0x7cd3]        # 0x8364
     691:	41 89 c9             	mov    r9d,ecx
     694:	49 89 d0             	mov    r8,rdx
     697:	8b 0d df 77 00 00    	mov    ecx,DWORD PTR [rip+0x77df]        # 0x7e7c
     69d:	8b 15 6d 77 00 00    	mov    edx,DWORD PTR [rip+0x776d]        # 0x7e10
     6a3:	89 c7                	mov    edi,eax
     6a5:	e8 27 01 00 00       	call   0x7d1
     6aa:	8b 05 b4 7c 00 00    	mov    eax,DWORD PTR [rip+0x7cb4]        # 0x8364
     6b0:	83 c0 08             	add    eax,0x8
     6b3:	89 05 ab 7c 00 00    	mov    DWORD PTR [rip+0x7cab],eax        # 0x8364
     6b9:	e9 3f ff ff ff       	jmp    0x5fd
0x00000000001106be: _draw_dot
     6be:	55                   	push   rbp
     6bf:	48 89 e5             	mov    rbp,rsp
     6c2:	48 83 ec 38          	sub    rsp,0x38
     6c6:	89 7d dc             	mov    DWORD PTR [rbp-0x24],edi
     6c9:	89 75 d8             	mov    DWORD PTR [rbp-0x28],esi
     6cc:	89 55 d4             	mov    DWORD PTR [rbp-0x2c],edx
     6cf:	48 89 4d c8          	mov    QWORD PTR [rbp-0x38],rcx
     6d3:	48 8b 45 c8          	mov    rax,QWORD PTR [rbp-0x38]
     6d7:	48 8b 00             	mov    rax,QWORD PTR [rax]
     6da:	48 89 45 f8          	mov    QWORD PTR [rbp-0x8],rax
     6de:	48 8b 45 c8          	mov    rax,QWORD PTR [rbp-0x38]
     6e2:	8b 40 10             	mov    eax,DWORD PTR [rax+0x10]
     6e5:	89 45 f4             	mov    DWORD PTR [rbp-0xc],eax
     6e8:	48 8b 45 c8          	mov    rax,QWORD PTR [rbp-0x38]
     6ec:	8b 40 14             	mov    eax,DWORD PTR [rax+0x14]
     6ef:	89 45 f0             	mov    DWORD PTR [rbp-0x10],eax
     6f2:	48 8b 45 c8          	mov    rax,QWORD PTR [rbp-0x38]
     6f6:	8b 40 18             	mov    eax,DWORD PTR [rax+0x18]
     6f9:	89 45 ec             	mov    DWORD PTR [rbp-0x14],eax
     6fc:	8b 45 dc             	mov    eax,DWORD PTR [rbp-0x24]
     6ff:	3b 45 f4             	cmp    eax,DWORD PTR [rbp-0xc]
     702:	73 2e                	jae    0x732
     704:	8b 45 d8             	mov    eax,DWORD PTR [rbp-0x28]
     707:	3b 45 f0             	cmp    eax,DWORD PTR [rbp-0x10]
     70a:	73 26                	jae    0x732
     70c:	8b 45 d8             	mov    eax,DWORD PTR [rbp-0x28]
     70f:	0f af 45 ec          	imul   eax,DWORD PTR [rbp-0x14]
     713:	89 c2                	mov    edx,eax
     715:	8b 45 dc             	mov    eax,DWORD PTR [rbp-0x24]
     718:	01 d0                	add    eax,edx
     71a:	89 c0                	mov    eax,eax
     71c:	48 8d 14 85 00 00 00 	lea    rdx,[rax*4+0x0]
     723:	00 
     724:	48 8b 45 f8          	mov    rax,QWORD PTR [rbp-0x8]
     728:	48 01 c2             	add    rdx,rax
     72b:	8b 45 d4             	mov    eax,DWORD PTR [rbp-0x2c]
     72e:	89 02                	mov    DWORD PTR [rdx],eax
     730:	eb 01                	jmp    0x733
     732:	90                   	nop
     733:	c9                   	leave  
     734:	c3                   	ret    
0x0000000000110735: draw_square
     735:	55                   	push   rbp
     736:	48 89 e5             	mov    rbp,rsp
     739:	48 83 ec 30          	sub    rsp,0x30
     73d:	89 7d ec             	mov    DWORD PTR [rbp-0x14],edi
     740:	89 75 e8             	mov    DWORD PTR [rbp-0x18],esi
     743:	89 55 e4             	mov    DWORD PTR [rbp-0x1c],edx
     746:	89 4d e0             	mov    DWORD PTR [rbp-0x20],ecx
     749:	44 89 45 dc          	mov    DWORD PTR [rbp-0x24],r8d
     74d:	4c 89 4d d0          	mov    QWORD PTR [rbp-0x30],r9
     751:	48 8b 45 d0          	mov    rax,QWORD PTR [rbp-0x30]
     755:	8b 40 10             	mov    eax,DWORD PTR [rax+0x10]
     758:	89 45 f4             	mov    DWORD PTR [rbp-0xc],eax
     75b:	48 8b 45 d0          	mov    rax,QWORD PTR [rbp-0x30]
     75f:	8b 40 14             	mov    eax,DWORD PTR [rax+0x14]
     762:	89 45 f0             	mov    DWORD PTR [rbp-0x10],eax
     765:	8b 55 ec             	mov    edx,DWORD PTR [rbp-0x14]
     768:	8b 45 e0             	mov    eax,DWORD PTR [rbp-0x20]
     76b:	01 d0                	add    eax,edx
     76d:	39 45 f4             	cmp    DWORD PTR [rbp-0xc],eax
     770:	76 5c                	jbe    0x7ce
     772:	8b 55 e8             	mov    edx,DWORD PTR [rbp-0x18]
     775:	8b 45 dc             	mov    eax,DWORD PTR [rbp-0x24]
     778:	01 d0                	add    eax,edx
     77a:	39 45 f0             	cmp    DWORD PTR [rbp-0x10],eax
     77d:	76 4f                	jbe    0x7ce
     77f:	c7 45 fc 00 00 00 00 	mov    DWORD PTR [rbp-0x4],0x0
     786:	eb 3c                	jmp    0x7c4
     788:	c7 45 f8 00 00 00 00 	mov    DWORD PTR [rbp-0x8],0x0
     78f:	eb 27                	jmp    0x7b8
     791:	8b 55 e8             	mov    edx,DWORD PTR [rbp-0x18]
     794:	8b 45 fc             	mov    eax,DWORD PTR [rbp-0x4]
     797:	8d 34 02             	lea    esi,[rdx+rax*1]
     79a:	8b 55 ec             	mov    edx,DWORD PTR [rbp-0x14]
     79d:	8b 45 f8             	mov    eax,DWORD PTR [rbp-0x8]
     7a0:	8d 3c 02             	lea    edi,[rdx+rax*1]
     7a3:	48 8b 55 d0          	mov    rdx,QWORD PTR [rbp-0x30]
     7a7:	8b 45 e4             	mov    eax,DWORD PTR [rbp-0x1c]
     7aa:	48 89 d1             	mov    rcx,rdx
     7ad:	89 c2                	mov    edx,eax
     7af:	e8 0a ff ff ff       	call   0x6be
     7b4:	83 45 f8 01          	add    DWORD PTR [rbp-0x8],0x1
     7b8:	8b 45 f8             	mov    eax,DWORD PTR [rbp-0x8]
     7bb:	3b 45 e0             	cmp    eax,DWORD PTR [rbp-0x20]
     7be:	72 d1                	jb     0x791
     7c0:	83 45 fc 01          	add    DWORD PTR [rbp-0x4],0x1
     7c4:	8b 45 fc             	mov    eax,DWORD PTR [rbp-0x4]
     7c7:	3b 45 dc             	cmp    eax,DWORD PTR [rbp-0x24]
     7ca:	72 bc                	jb     0x788
     7cc:	eb 01                	jmp    0x7cf
     7ce:	90                   	nop
     7cf:	c9                   	leave  
     7d0:	c3                   	ret    
0x00000000001107d1: putchar
     7d1:	55                   	push   rbp
     7d2:	48 89 e5             	mov    rbp,rsp
     7d5:	48 83 ec 30          	sub    rsp,0x30
     7d9:	89 7d ec             	mov    DWORD PTR [rbp-0x14],edi
     7dc:	89 75 e8             	mov    DWORD PTR [rbp-0x18],esi
     7df:	89 55 e4             	mov    DWORD PTR [rbp-0x1c],edx
     7e2:	89 4d e0             	mov    DWORD PTR [rbp-0x20],ecx
     7e5:	4c 89 45 d8          	mov    QWORD PTR [rbp-0x28],r8
     7e9:	44 89 c8             	mov    eax,r9d
     7ec:	88 45 d4             	mov    BYTE PTR [rbp-0x2c],al
     7ef:	0f b6 45 d4          	movzx  eax,BYTE PTR [rbp-0x2c]
     7f3:	83 e8 20             	sub    eax,0x20
     7f6:	88 45 f7             	mov    BYTE PTR [rbp-0x9],al
     7f9:	e8 26 13 00 00       	call   0x1b24
     7fe:	c7 45 fc 00 00 00 00 	mov    DWORD PTR [rbp-0x4],0x0
     805:	eb 3a                	jmp    0x841
     807:	c7 45 f8 00 00 00 00 	mov    DWORD PTR [rbp-0x8],0x0
     80e:	eb 27                	jmp    0x837
     810:	8b 55 fc             	mov    edx,DWORD PTR [rbp-0x4]
     813:	8b 45 e8             	mov    eax,DWORD PTR [rbp-0x18]
     816:	8d 34 02             	lea    esi,[rdx+rax*1]
     819:	8b 55 f8             	mov    edx,DWORD PTR [rbp-0x8]
     81c:	8b 45 ec             	mov    eax,DWORD PTR [rbp-0x14]
     81f:	8d 3c 02             	lea    edi,[rdx+rax*1]
     822:	48 8b 55 d8          	mov    rdx,QWORD PTR [rbp-0x28]
     826:	8b 45 e0             	mov    eax,DWORD PTR [rbp-0x20]
     829:	48 89 d1             	mov    rcx,rdx
     82c:	89 c2                	mov    edx,eax
     82e:	e8 8b fe ff ff       	call   0x6be
     833:	83 45 f8 01          	add    DWORD PTR [rbp-0x8],0x1
     837:	83 7d f8 07          	cmp    DWORD PTR [rbp-0x8],0x7
     83b:	7e d3                	jle    0x810
     83d:	83 45 fc 01          	add    DWORD PTR [rbp-0x4],0x1
     841:	83 7d fc 0f          	cmp    DWORD PTR [rbp-0x4],0xf
     845:	7e c0                	jle    0x807
     847:	c7 45 fc 00 00 00 00 	mov    DWORD PTR [rbp-0x4],0x0
     84e:	e9 6b 01 00 00       	jmp    0x9be
     853:	0f be 45 f7          	movsx  eax,BYTE PTR [rbp-0x9]
     857:	c1 e0 04             	shl    eax,0x4
     85a:	89 c2                	mov    edx,eax
     85c:	8b 45 fc             	mov    eax,DWORD PTR [rbp-0x4]
     85f:	01 d0                	add    eax,edx
     861:	48 98                	cdqe   
     863:	0f b6 80 20 78 11 00 	movzx  eax,BYTE PTR [rax+0x117820]
     86a:	88 45 f6             	mov    BYTE PTR [rbp-0xa],al
     86d:	80 7d f6 00          	cmp    BYTE PTR [rbp-0xa],0x0
     871:	79 1a                	jns    0x88d
     873:	8b 55 fc             	mov    edx,DWORD PTR [rbp-0x4]
     876:	8b 45 e8             	mov    eax,DWORD PTR [rbp-0x18]
     879:	8d 34 02             	lea    esi,[rdx+rax*1]
     87c:	48 8b 4d d8          	mov    rcx,QWORD PTR [rbp-0x28]
     880:	8b 55 e4             	mov    edx,DWORD PTR [rbp-0x1c]
     883:	8b 45 ec             	mov    eax,DWORD PTR [rbp-0x14]
     886:	89 c7                	mov    edi,eax
     888:	e8 31 fe ff ff       	call   0x6be
     88d:	0f be 45 f6          	movsx  eax,BYTE PTR [rbp-0xa]
     891:	83 e0 40             	and    eax,0x40
     894:	85 c0                	test   eax,eax
     896:	74 20                	je     0x8b8
     898:	8b 55 fc             	mov    edx,DWORD PTR [rbp-0x4]
     89b:	8b 45 e8             	mov    eax,DWORD PTR [rbp-0x18]
     89e:	8d 34 02             	lea    esi,[rdx+rax*1]
     8a1:	8b 45 ec             	mov    eax,DWORD PTR [rbp-0x14]
     8a4:	8d 78 01             	lea    edi,[rax+0x1]
     8a7:	48 8b 55 d8          	mov    rdx,QWORD PTR [rbp-0x28]
     8ab:	8b 45 e4             	mov    eax,DWORD PTR [rbp-0x1c]
     8ae:	48 89 d1             	mov    rcx,rdx
     8b1:	89 c2                	mov    edx,eax
     8b3:	e8 06 fe ff ff       	call   0x6be
     8b8:	0f be 45 f6          	movsx  eax,BYTE PTR [rbp-0xa]
     8bc:	83 e0 20             	and    eax,0x20
     8bf:	85 c0                	test   eax,eax
     8c1:	74 20                	je     0x8e3
     8c3:	8b 55 fc             	mov    edx,DWORD PTR [rbp-0x4]
     8c6:	8b 45 e8             	mov    eax,DWORD PTR [rbp-0x18]
     8c9:	8d 34 02             	lea    esi,[rdx+rax*1]
     8cc:	8b 45 ec             	mov    eax,DWORD PTR [rbp-0x14]
     8cf:	8d 78 02             	lea    edi,[rax+0x2]
     8d2:	48 8b 55 d8          	mov    rdx,QWORD PTR [rbp-0x28]
     8d6:	8b 45 e4             	mov    eax,DWORD PTR [rbp-0x1c]
     8d9:	48 89 d1             	mov    rcx,rdx
     8dc:	89 c2                	mov    edx,eax
     8de:	e8 db fd ff ff       	call   0x6be
     8e3:	0f be 45 f6          	movsx  eax,BYTE PTR [rbp-0xa]
     8e7:	83 e0 10             	and    eax,0x10
     8ea:	85 c0                	test   eax,eax
     8ec:	74 20                	je     0x90e
     8ee:	8b 55 fc             	mov    edx,DWORD PTR [rbp-0x4]
     8f1:	8b 45 e8             	mov    eax,DWORD PTR [rbp-0x18]
     8f4:	8d 34 02             	lea    esi,[rdx+rax*1]
     8f7:	8b 45 ec             	mov    eax,DWORD PTR [rbp-0x14]
     8fa:	8d 78 03             	lea    edi,[rax+0x3]
     8fd:	48 8b 55 d8          	mov    rdx,QWORD PTR [rbp-0x28]
     901:	8b 45 e4             	mov    eax,DWORD PTR [rbp-0x1c]
     904:	48 89 d1             	mov    rcx,rdx
     907:	89 c2                	mov    edx,eax
     909:	e8 b0 fd ff ff       	call   0x6be
     90e:	0f be 45 f6          	movsx  eax,BYTE PTR [rbp-0xa]
     912:	83 e0 08             	and    eax,0x8
     915:	85 c0                	test   eax,eax
     917:	74 20                	je     0x939
     919:	8b 55 fc             	mov    edx,DWORD PTR [rbp-0x4]
     91c:	8b 45 e8             	mov    eax,DWORD PTR [rbp-0x18]
     91f:	8d 34 02             	lea    esi,[rdx+rax*1]
     922:	8b 45 ec             	mov    eax,DWORD PTR [rbp-0x14]
     925:	8d 78 04             	lea    edi,[rax+0x4]
     928:	48 8b 55 d8          	mov    rdx,QWORD PTR [rbp-0x28]
     92c:	8b 45 e4             	mov    eax,DWORD PTR [rbp-0x1c]
     92f:	48 89 d1             	mov    rcx,rdx
     932:	89 c2                	mov    edx,eax
     934:	e8 85 fd ff ff       	call   0x6be
     939:	0f be 45 f6          	movsx  eax,BYTE PTR [rbp-0xa]
     93d:	83 e0 04             	and    eax,0x4
     940:	85 c0                	test   eax,eax
     942:	74 20                	je     0x964
     944:	8b 55 fc             	mov    edx,DWORD PTR [rbp-0x4]
     947:	8b 45 e8             	mov    eax,DWORD PTR [rbp-0x18]
     94a:	8d 34 02             	lea    esi,[rdx+rax*1]
     94d:	8b 45 ec             	mov    eax,DWORD PTR [rbp-0x14]
     950:	8d 78 05             	lea    edi,[rax+0x5]
     953:	48 8b 55 d8          	mov    rdx,QWORD PTR [rbp-0x28]
     957:	8b 45 e4             	mov    eax,DWORD PTR [rbp-0x1c]
     95a:	48 89 d1             	mov    rcx,rdx
     95d:	89 c2                	mov    edx,eax
     95f:	e8 5a fd ff ff       	call   0x6be
     964:	0f be 45 f6          	movsx  eax,BYTE PTR [rbp-0xa]
     968:	83 e0 02             	and    eax,0x2
     96b:	85 c0                	test   eax,eax
     96d:	74 20                	je     0x98f
     96f:	8b 55 fc             	mov    edx,DWORD PTR [rbp-0x4]
     972:	8b 45 e8             	mov    eax,DWORD PTR [rbp-0x18]
     975:	8d 34 02             	lea    esi,[rdx+rax*1]
     978:	8b 45 ec             	mov    eax,DWORD PTR [rbp-0x14]
     97b:	8d 78 06             	lea    edi,[rax+0x6]
     97e:	48 8b 55 d8          	mov    rdx,QWORD PTR [rbp-0x28]
     982:	8b 45 e4             	mov    eax,DWORD PTR [rbp-0x1c]
     985:	48 89 d1             	mov    rcx,rdx
     988:	89 c2                	mov    edx,eax
     98a:	e8 2f fd ff ff       	call   0x6be
     98f:	0f be 45 f6          	movsx  eax,BYTE PTR [rbp-0xa]
     993:	83 e0 01             	and    eax,0x1
     996:	85 c0                	test   eax,eax
     998:	74 20                	je     0x9ba
     99a:	8b 55 fc             	mov    edx,DWORD PTR [rbp-0x4]
     99d:	8b 45 e8             	mov    eax,DWORD PTR [rbp-0x18]
     9a0:	8d 34 02             	lea    esi,[rdx+rax*1]
     9a3:	8b 45 ec             	mov    eax,DWORD PTR [rbp-0x14]
     9a6:	8d 78 07             	lea    edi,[rax+0x7]
     9a9:	48 8b 55 d8          	mov    rdx,QWORD PTR [rbp-0x28]
     9ad:	8b 45 e4             	mov    eax,DWORD PTR [rbp-0x1c]
     9b0:	48 89 d1             	mov    rcx,rdx
     9b3:	89 c2                	mov    edx,eax
     9b5:	e8 04 fd ff ff       	call   0x6be
     9ba:	83 45 fc 01          	add    DWORD PTR [rbp-0x4],0x1
     9be:	83 7d fc 0f          	cmp    DWORD PTR [rbp-0x4],0xf
     9c2:	0f 8e 8b fe ff ff    	jle    0x853
     9c8:	e8 59 11 00 00       	call   0x1b26
     9cd:	90                   	nop
     9ce:	c9                   	leave  
     9cf:	c3                   	ret    
0x00000000001109d0: putstr
     9d0:	55                   	push   rbp
     9d1:	48 89 e5             	mov    rbp,rsp
     9d4:	48 83 ec 30          	sub    rsp,0x30
     9d8:	89 7d ec             	mov    DWORD PTR [rbp-0x14],edi
     9db:	89 75 e8             	mov    DWORD PTR [rbp-0x18],esi
     9de:	89 55 e4             	mov    DWORD PTR [rbp-0x1c],edx
     9e1:	89 4d e0             	mov    DWORD PTR [rbp-0x20],ecx
     9e4:	4c 89 45 d8          	mov    QWORD PTR [rbp-0x28],r8
     9e8:	4c 89 4d d0          	mov    QWORD PTR [rbp-0x30],r9
     9ec:	c7 45 fc 00 00 00 00 	mov    DWORD PTR [rbp-0x4],0x0
     9f3:	eb 40                	jmp    0xa35
     9f5:	8b 45 fc             	mov    eax,DWORD PTR [rbp-0x4]
     9f8:	48 63 d0             	movsxd rdx,eax
     9fb:	48 8b 45 d0          	mov    rax,QWORD PTR [rbp-0x30]
     9ff:	48 01 d0             	add    rax,rdx
     a02:	0f b6 00             	movzx  eax,BYTE PTR [rax]
     a05:	44 0f be c0          	movsx  r8d,al
     a09:	8b 45 fc             	mov    eax,DWORD PTR [rbp-0x4]
     a0c:	c1 e0 03             	shl    eax,0x3
     a0f:	89 c2                	mov    edx,eax
     a11:	8b 45 ec             	mov    eax,DWORD PTR [rbp-0x14]
     a14:	8d 3c 02             	lea    edi,[rdx+rax*1]
     a17:	48 8b 75 d8          	mov    rsi,QWORD PTR [rbp-0x28]
     a1b:	8b 4d e0             	mov    ecx,DWORD PTR [rbp-0x20]
     a1e:	8b 55 e4             	mov    edx,DWORD PTR [rbp-0x1c]
     a21:	8b 45 e8             	mov    eax,DWORD PTR [rbp-0x18]
     a24:	45 89 c1             	mov    r9d,r8d
     a27:	49 89 f0             	mov    r8,rsi
     a2a:	89 c6                	mov    esi,eax
     a2c:	e8 a0 fd ff ff       	call   0x7d1
     a31:	83 45 fc 01          	add    DWORD PTR [rbp-0x4],0x1
     a35:	8b 45 fc             	mov    eax,DWORD PTR [rbp-0x4]
     a38:	48 63 d0             	movsxd rdx,eax
     a3b:	48 8b 45 d0          	mov    rax,QWORD PTR [rbp-0x30]
     a3f:	48 01 d0             	add    rax,rdx
     a42:	0f b6 00             	movzx  eax,BYTE PTR [rax]
     a45:	84 c0                	test   al,al
     a47:	75 ac                	jne    0x9f5
     a49:	90                   	nop
     a4a:	c9                   	leave  
     a4b:	c3                   	ret    
0x0000000000110a4c: putnum
     a4c:	55                   	push   rbp
     a4d:	48 89 e5             	mov    rbp,rsp
     a50:	53                   	push   rbx
     a51:	48 81 ec c8 00 00 00 	sub    rsp,0xc8
     a58:	89 bd 4c ff ff ff    	mov    DWORD PTR [rbp-0xb4],edi
     a5e:	89 b5 48 ff ff ff    	mov    DWORD PTR [rbp-0xb8],esi
     a64:	89 95 44 ff ff ff    	mov    DWORD PTR [rbp-0xbc],edx
     a6a:	89 8d 40 ff ff ff    	mov    DWORD PTR [rbp-0xc0],ecx
     a70:	4c 89 85 38 ff ff ff 	mov    QWORD PTR [rbp-0xc8],r8
     a77:	4c 89 8d 30 ff ff ff 	mov    QWORD PTR [rbp-0xd0],r9
     a7e:	48 c7 45 e8 00 00 00 	mov    QWORD PTR [rbp-0x18],0x0
     a85:	00 
     a86:	e9 93 00 00 00       	jmp    0xb1e
     a8b:	48 8b 45 e8          	mov    rax,QWORD PTR [rbp-0x18]
     a8f:	48 c1 e0 02          	shl    rax,0x2
     a93:	48 89 c6             	mov    rsi,rax
     a96:	bf 02 00 00 00       	mov    edi,0x2
     a9b:	e8 d3 03 00 00       	call   0xe73
     aa0:	48 89 c3             	mov    rbx,rax
     aa3:	48 8b 45 e8          	mov    rax,QWORD PTR [rbp-0x18]
     aa7:	48 c1 e0 02          	shl    rax,0x2
     aab:	48 83 c0 01          	add    rax,0x1
     aaf:	48 89 c6             	mov    rsi,rax
     ab2:	bf 02 00 00 00       	mov    edi,0x2
     ab7:	e8 b7 03 00 00       	call   0xe73
     abc:	48 01 c3             	add    rbx,rax
     abf:	48 8b 45 e8          	mov    rax,QWORD PTR [rbp-0x18]
     ac3:	48 c1 e0 02          	shl    rax,0x2
     ac7:	48 83 c0 02          	add    rax,0x2
     acb:	48 89 c6             	mov    rsi,rax
     ace:	bf 02 00 00 00       	mov    edi,0x2
     ad3:	e8 9b 03 00 00       	call   0xe73
     ad8:	48 01 c3             	add    rbx,rax
     adb:	48 8b 45 e8          	mov    rax,QWORD PTR [rbp-0x18]
     adf:	48 c1 e0 02          	shl    rax,0x2
     ae3:	48 83 c0 03          	add    rax,0x3
     ae7:	48 89 c6             	mov    rsi,rax
     aea:	bf 02 00 00 00       	mov    edi,0x2
     aef:	e8 7f 03 00 00       	call   0xe73
     af4:	48 01 d8             	add    rax,rbx
     af7:	48 23 85 30 ff ff ff 	and    rax,QWORD PTR [rbp-0xd0]
     afe:	48 89 c2             	mov    rdx,rax
     b01:	48 8b 45 e8          	mov    rax,QWORD PTR [rbp-0x18]
     b05:	c1 e0 02             	shl    eax,0x2
     b08:	89 c1                	mov    ecx,eax
     b0a:	48 d3 ea             	shr    rdx,cl
     b0d:	48 8b 45 e8          	mov    rax,QWORD PTR [rbp-0x18]
     b11:	48 89 94 c5 68 ff ff 	mov    QWORD PTR [rbp+rax*8-0x98],rdx
     b18:	ff 
     b19:	48 83 45 e8 01       	add    QWORD PTR [rbp-0x18],0x1
     b1e:	48 83 7d e8 0f       	cmp    QWORD PTR [rbp-0x18],0xf
     b23:	0f 86 62 ff ff ff    	jbe    0xa8b
     b29:	c6 85 55 ff ff ff 30 	mov    BYTE PTR [rbp-0xab],0x30
     b30:	c6 85 56 ff ff ff 78 	mov    BYTE PTR [rbp-0xaa],0x78
     b37:	c6 85 67 ff ff ff 00 	mov    BYTE PTR [rbp-0x99],0x0
     b3e:	48 c7 45 e8 00 00 00 	mov    QWORD PTR [rbp-0x18],0x0
     b45:	00 
     b46:	e9 34 02 00 00       	jmp    0xd7f
     b4b:	48 8b 45 e8          	mov    rax,QWORD PTR [rbp-0x18]
     b4f:	48 8b 84 c5 68 ff ff 	mov    rax,QWORD PTR [rbp+rax*8-0x98]
     b56:	ff 
     b57:	48 85 c0             	test   rax,rax
     b5a:	75 11                	jne    0xb6d
     b5c:	b8 11 00 00 00       	mov    eax,0x11
     b61:	48 2b 45 e8          	sub    rax,QWORD PTR [rbp-0x18]
     b65:	c6 84 05 55 ff ff ff 	mov    BYTE PTR [rbp+rax*1-0xab],0x30
     b6c:	30 
     b6d:	48 8b 45 e8          	mov    rax,QWORD PTR [rbp-0x18]
     b71:	48 8b 84 c5 68 ff ff 	mov    rax,QWORD PTR [rbp+rax*8-0x98]
     b78:	ff 
     b79:	48 83 f8 01          	cmp    rax,0x1
     b7d:	75 11                	jne    0xb90
     b7f:	b8 11 00 00 00       	mov    eax,0x11
     b84:	48 2b 45 e8          	sub    rax,QWORD PTR [rbp-0x18]
     b88:	c6 84 05 55 ff ff ff 	mov    BYTE PTR [rbp+rax*1-0xab],0x31
     b8f:	31 
     b90:	48 8b 45 e8          	mov    rax,QWORD PTR [rbp-0x18]
     b94:	48 8b 84 c5 68 ff ff 	mov    rax,QWORD PTR [rbp+rax*8-0x98]
     b9b:	ff 
     b9c:	48 83 f8 02          	cmp    rax,0x2
     ba0:	75 11                	jne    0xbb3
     ba2:	b8 11 00 00 00       	mov    eax,0x11
     ba7:	48 2b 45 e8          	sub    rax,QWORD PTR [rbp-0x18]
     bab:	c6 84 05 55 ff ff ff 	mov    BYTE PTR [rbp+rax*1-0xab],0x32
     bb2:	32 
     bb3:	48 8b 45 e8          	mov    rax,QWORD PTR [rbp-0x18]
     bb7:	48 8b 84 c5 68 ff ff 	mov    rax,QWORD PTR [rbp+rax*8-0x98]
     bbe:	ff 
     bbf:	48 83 f8 03          	cmp    rax,0x3
     bc3:	75 11                	jne    0xbd6
     bc5:	b8 11 00 00 00       	mov    eax,0x11
     bca:	48 2b 45 e8          	sub    rax,QWORD PTR [rbp-0x18]
     bce:	c6 84 05 55 ff ff ff 	mov    BYTE PTR [rbp+rax*1-0xab],0x33
     bd5:	33 
     bd6:	48 8b 45 e8          	mov    rax,QWORD PTR [rbp-0x18]
     bda:	48 8b 84 c5 68 ff ff 	mov    rax,QWORD PTR [rbp+rax*8-0x98]
     be1:	ff 
     be2:	48 83 f8 04          	cmp    rax,0x4
     be6:	75 11                	jne    0xbf9
     be8:	b8 11 00 00 00       	mov    eax,0x11
     bed:	48 2b 45 e8          	sub    rax,QWORD PTR [rbp-0x18]
     bf1:	c6 84 05 55 ff ff ff 	mov    BYTE PTR [rbp+rax*1-0xab],0x34
     bf8:	34 
     bf9:	48 8b 45 e8          	mov    rax,QWORD PTR [rbp-0x18]
     bfd:	48 8b 84 c5 68 ff ff 	mov    rax,QWORD PTR [rbp+rax*8-0x98]
     c04:	ff 
     c05:	48 83 f8 05          	cmp    rax,0x5
     c09:	75 11                	jne    0xc1c
     c0b:	b8 11 00 00 00       	mov    eax,0x11
     c10:	48 2b 45 e8          	sub    rax,QWORD PTR [rbp-0x18]
     c14:	c6 84 05 55 ff ff ff 	mov    BYTE PTR [rbp+rax*1-0xab],0x35
     c1b:	35 
     c1c:	48 8b 45 e8          	mov    rax,QWORD PTR [rbp-0x18]
     c20:	48 8b 84 c5 68 ff ff 	mov    rax,QWORD PTR [rbp+rax*8-0x98]
     c27:	ff 
     c28:	48 83 f8 06          	cmp    rax,0x6
     c2c:	75 11                	jne    0xc3f
     c2e:	b8 11 00 00 00       	mov    eax,0x11
     c33:	48 2b 45 e8          	sub    rax,QWORD PTR [rbp-0x18]
     c37:	c6 84 05 55 ff ff ff 	mov    BYTE PTR [rbp+rax*1-0xab],0x36
     c3e:	36 
     c3f:	48 8b 45 e8          	mov    rax,QWORD PTR [rbp-0x18]
     c43:	48 8b 84 c5 68 ff ff 	mov    rax,QWORD PTR [rbp+rax*8-0x98]
     c4a:	ff 
     c4b:	48 83 f8 07          	cmp    rax,0x7
     c4f:	75 11                	jne    0xc62
     c51:	b8 11 00 00 00       	mov    eax,0x11
     c56:	48 2b 45 e8          	sub    rax,QWORD PTR [rbp-0x18]
     c5a:	c6 84 05 55 ff ff ff 	mov    BYTE PTR [rbp+rax*1-0xab],0x37
     c61:	37 
     c62:	48 8b 45 e8          	mov    rax,QWORD PTR [rbp-0x18]
     c66:	48 8b 84 c5 68 ff ff 	mov    rax,QWORD PTR [rbp+rax*8-0x98]
     c6d:	ff 
     c6e:	48 83 f8 08          	cmp    rax,0x8
     c72:	75 11                	jne    0xc85
     c74:	b8 11 00 00 00       	mov    eax,0x11
     c79:	48 2b 45 e8          	sub    rax,QWORD PTR [rbp-0x18]
     c7d:	c6 84 05 55 ff ff ff 	mov    BYTE PTR [rbp+rax*1-0xab],0x38
     c84:	38 
     c85:	48 8b 45 e8          	mov    rax,QWORD PTR [rbp-0x18]
     c89:	48 8b 84 c5 68 ff ff 	mov    rax,QWORD PTR [rbp+rax*8-0x98]
     c90:	ff 
     c91:	48 83 f8 09          	cmp    rax,0x9
     c95:	75 11                	jne    0xca8
     c97:	b8 11 00 00 00       	mov    eax,0x11
     c9c:	48 2b 45 e8          	sub    rax,QWORD PTR [rbp-0x18]
     ca0:	c6 84 05 55 ff ff ff 	mov    BYTE PTR [rbp+rax*1-0xab],0x39
     ca7:	39 
     ca8:	48 8b 45 e8          	mov    rax,QWORD PTR [rbp-0x18]
     cac:	48 8b 84 c5 68 ff ff 	mov    rax,QWORD PTR [rbp+rax*8-0x98]
     cb3:	ff 
     cb4:	48 83 f8 0a          	cmp    rax,0xa
     cb8:	75 11                	jne    0xccb
     cba:	b8 11 00 00 00       	mov    eax,0x11
     cbf:	48 2b 45 e8          	sub    rax,QWORD PTR [rbp-0x18]
     cc3:	c6 84 05 55 ff ff ff 	mov    BYTE PTR [rbp+rax*1-0xab],0x61
     cca:	61 
     ccb:	48 8b 45 e8          	mov    rax,QWORD PTR [rbp-0x18]
     ccf:	48 8b 84 c5 68 ff ff 	mov    rax,QWORD PTR [rbp+rax*8-0x98]
     cd6:	ff 
     cd7:	48 83 f8 0b          	cmp    rax,0xb
     cdb:	75 11                	jne    0xcee
     cdd:	b8 11 00 00 00       	mov    eax,0x11
     ce2:	48 2b 45 e8          	sub    rax,QWORD PTR [rbp-0x18]
     ce6:	c6 84 05 55 ff ff ff 	mov    BYTE PTR [rbp+rax*1-0xab],0x62
     ced:	62 
     cee:	48 8b 45 e8          	mov    rax,QWORD PTR [rbp-0x18]
     cf2:	48 8b 84 c5 68 ff ff 	mov    rax,QWORD PTR [rbp+rax*8-0x98]
     cf9:	ff 
     cfa:	48 83 f8 0c          	cmp    rax,0xc
     cfe:	75 11                	jne    0xd11
     d00:	b8 11 00 00 00       	mov    eax,0x11
     d05:	48 2b 45 e8          	sub    rax,QWORD PTR [rbp-0x18]
     d09:	c6 84 05 55 ff ff ff 	mov    BYTE PTR [rbp+rax*1-0xab],0x63
     d10:	63 
     d11:	48 8b 45 e8          	mov    rax,QWORD PTR [rbp-0x18]
     d15:	48 8b 84 c5 68 ff ff 	mov    rax,QWORD PTR [rbp+rax*8-0x98]
     d1c:	ff 
     d1d:	48 83 f8 0d          	cmp    rax,0xd
     d21:	75 11                	jne    0xd34
     d23:	b8 11 00 00 00       	mov    eax,0x11
     d28:	48 2b 45 e8          	sub    rax,QWORD PTR [rbp-0x18]
     d2c:	c6 84 05 55 ff ff ff 	mov    BYTE PTR [rbp+rax*1-0xab],0x64
     d33:	64 
     d34:	48 8b 45 e8          	mov    rax,QWORD PTR [rbp-0x18]
     d38:	48 8b 84 c5 68 ff ff 	mov    rax,QWORD PTR [rbp+rax*8-0x98]
     d3f:	ff 
     d40:	48 83 f8 0e          	cmp    rax,0xe
     d44:	75 11                	jne    0xd57
     d46:	b8 11 00 00 00       	mov    eax,0x11
     d4b:	48 2b 45 e8          	sub    rax,QWORD PTR [rbp-0x18]
     d4f:	c6 84 05 55 ff ff ff 	mov    BYTE PTR [rbp+rax*1-0xab],0x65
     d56:	65 
     d57:	48 8b 45 e8          	mov    rax,QWORD PTR [rbp-0x18]
     d5b:	48 8b 84 c5 68 ff ff 	mov    rax,QWORD PTR [rbp+rax*8-0x98]
     d62:	ff 
     d63:	48 83 f8 0f          	cmp    rax,0xf
     d67:	75 11                	jne    0xd7a
     d69:	b8 11 00 00 00       	mov    eax,0x11
     d6e:	48 2b 45 e8          	sub    rax,QWORD PTR [rbp-0x18]
     d72:	c6 84 05 55 ff ff ff 	mov    BYTE PTR [rbp+rax*1-0xab],0x66
     d79:	66 
     d7a:	48 83 45 e8 01       	add    QWORD PTR [rbp-0x18],0x1
     d7f:	48 83 7d e8 0f       	cmp    QWORD PTR [rbp-0x18],0xf
     d84:	0f 86 c1 fd ff ff    	jbe    0xb4b
     d8a:	4c 8d 85 55 ff ff ff 	lea    r8,[rbp-0xab]
     d91:	48 8b bd 38 ff ff ff 	mov    rdi,QWORD PTR [rbp-0xc8]
     d98:	8b 8d 40 ff ff ff    	mov    ecx,DWORD PTR [rbp-0xc0]
     d9e:	8b 95 44 ff ff ff    	mov    edx,DWORD PTR [rbp-0xbc]
     da4:	8b b5 48 ff ff ff    	mov    esi,DWORD PTR [rbp-0xb8]
     daa:	8b 85 4c ff ff ff    	mov    eax,DWORD PTR [rbp-0xb4]
     db0:	4d 89 c1             	mov    r9,r8
     db3:	49 89 f8             	mov    r8,rdi
     db6:	89 c7                	mov    edi,eax
     db8:	e8 13 fc ff ff       	call   0x9d0
     dbd:	90                   	nop
     dbe:	48 81 c4 c8 00 00 00 	add    rsp,0xc8
     dc5:	5b                   	pop    rbx
     dc6:	5d                   	pop    rbp
     dc7:	c3                   	ret    
0x0000000000110dc8: memset
     dc8:	55                   	push   rbp
     dc9:	48 89 e5             	mov    rbp,rsp
     dcc:	48 83 ec 30          	sub    rsp,0x30
     dd0:	48 89 7d d8          	mov    QWORD PTR [rbp-0x28],rdi
     dd4:	89 75 d4             	mov    DWORD PTR [rbp-0x2c],esi
     dd7:	89 55 d0             	mov    DWORD PTR [rbp-0x30],edx
     dda:	48 8b 45 d8          	mov    rax,QWORD PTR [rbp-0x28]
     dde:	48 89 45 f0          	mov    QWORD PTR [rbp-0x10],rax
     de2:	8b 45 d4             	mov    eax,DWORD PTR [rbp-0x2c]
     de5:	88 45 ef             	mov    BYTE PTR [rbp-0x11],al
     de8:	c7 45 fc 00 00 00 00 	mov    DWORD PTR [rbp-0x4],0x0
     def:	eb 17                	jmp    0xe08
     df1:	8b 45 fc             	mov    eax,DWORD PTR [rbp-0x4]
     df4:	48 63 d0             	movsxd rdx,eax
     df7:	48 8b 45 f0          	mov    rax,QWORD PTR [rbp-0x10]
     dfb:	48 01 c2             	add    rdx,rax
     dfe:	0f b6 45 ef          	movzx  eax,BYTE PTR [rbp-0x11]
     e02:	88 02                	mov    BYTE PTR [rdx],al
     e04:	83 45 fc 01          	add    DWORD PTR [rbp-0x4],0x1
     e08:	8b 45 fc             	mov    eax,DWORD PTR [rbp-0x4]
     e0b:	3b 45 d0             	cmp    eax,DWORD PTR [rbp-0x30]
     e0e:	7c e1                	jl     0xdf1
     e10:	48 8b 45 d8          	mov    rax,QWORD PTR [rbp-0x28]
     e14:	c9                   	leave  
     e15:	c3                   	ret    
0x0000000000110e16: memcpy
     e16:	55                   	push   rbp
     e17:	48 89 e5             	mov    rbp,rsp
     e1a:	48 83 ec 38          	sub    rsp,0x38
     e1e:	48 89 7d d8          	mov    QWORD PTR [rbp-0x28],rdi
     e22:	48 89 75 d0          	mov    QWORD PTR [rbp-0x30],rsi
     e26:	89 55 cc             	mov    DWORD PTR [rbp-0x34],edx
     e29:	48 8b 45 d8          	mov    rax,QWORD PTR [rbp-0x28]
     e2d:	48 89 45 f0          	mov    QWORD PTR [rbp-0x10],rax
     e31:	48 8b 45 d0          	mov    rax,QWORD PTR [rbp-0x30]
     e35:	48 89 45 e8          	mov    QWORD PTR [rbp-0x18],rax
     e39:	c7 45 fc 00 00 00 00 	mov    DWORD PTR [rbp-0x4],0x0
     e40:	eb 23                	jmp    0xe65
     e42:	8b 45 fc             	mov    eax,DWORD PTR [rbp-0x4]
     e45:	48 63 d0             	movsxd rdx,eax
     e48:	48 8b 45 e8          	mov    rax,QWORD PTR [rbp-0x18]
     e4c:	48 01 d0             	add    rax,rdx
     e4f:	8b 55 fc             	mov    edx,DWORD PTR [rbp-0x4]
     e52:	48 63 ca             	movsxd rcx,edx
     e55:	48 8b 55 f0          	mov    rdx,QWORD PTR [rbp-0x10]
     e59:	48 01 ca             	add    rdx,rcx
     e5c:	0f b6 00             	movzx  eax,BYTE PTR [rax]
     e5f:	88 02                	mov    BYTE PTR [rdx],al
     e61:	83 45 fc 01          	add    DWORD PTR [rbp-0x4],0x1
     e65:	8b 45 fc             	mov    eax,DWORD PTR [rbp-0x4]
     e68:	3b 45 cc             	cmp    eax,DWORD PTR [rbp-0x34]
     e6b:	7c d5                	jl     0xe42
     e6d:	48 8b 45 d8          	mov    rax,QWORD PTR [rbp-0x28]
     e71:	c9                   	leave  
     e72:	c3                   	ret    
0x0000000000110e73: pow
     e73:	55                   	push   rbp
     e74:	48 89 e5             	mov    rbp,rsp
     e77:	48 83 ec 20          	sub    rsp,0x20
     e7b:	48 89 7d e8          	mov    QWORD PTR [rbp-0x18],rdi
     e7f:	48 89 75 e0          	mov    QWORD PTR [rbp-0x20],rsi
     e83:	48 c7 45 f8 01 00 00 	mov    QWORD PTR [rbp-0x8],0x1
     e8a:	00 
     e8b:	48 c7 45 f0 00 00 00 	mov    QWORD PTR [rbp-0x10],0x0
     e92:	00 
     e93:	eb 12                	jmp    0xea7
     e95:	48 8b 45 f8          	mov    rax,QWORD PTR [rbp-0x8]
     e99:	48 0f af 45 e8       	imul   rax,QWORD PTR [rbp-0x18]
     e9e:	48 89 45 f8          	mov    QWORD PTR [rbp-0x8],rax
     ea2:	48 83 45 f0 01       	add    QWORD PTR [rbp-0x10],0x1
     ea7:	48 8b 45 f0          	mov    rax,QWORD PTR [rbp-0x10]
     eab:	48 3b 45 e0          	cmp    rax,QWORD PTR [rbp-0x20]
     eaf:	72 e4                	jb     0xe95
     eb1:	48 8b 45 f8          	mov    rax,QWORD PTR [rbp-0x8]
     eb5:	c9                   	leave  
     eb6:	c3                   	ret    
0x0000000000110eb7: gen_buf_u64
     eb7:	55                   	push   rbp
     eb8:	48 89 e5             	mov    rbp,rsp
     ebb:	48 81 ec 18 02 00 00 	sub    rsp,0x218
     ec2:	48 89 bd e8 fd ff ff 	mov    QWORD PTR [rbp-0x218],rdi
     ec9:	c7 45 fc 00 00 00 00 	mov    DWORD PTR [rbp-0x4],0x0
     ed0:	eb 15                	jmp    0xee7
     ed2:	8b 45 fc             	mov    eax,DWORD PTR [rbp-0x4]
     ed5:	48 98                	cdqe   
     ed7:	48 c7 84 c5 f0 fd ff 	mov    QWORD PTR [rbp+rax*8-0x210],0x0
     ede:	ff 00 00 00 00 
     ee3:	83 45 fc 01          	add    DWORD PTR [rbp-0x4],0x1
     ee7:	83 7d fc 3f          	cmp    DWORD PTR [rbp-0x4],0x3f
     eeb:	7e e5                	jle    0xed2
     eed:	c6 45 f0 00          	mov    BYTE PTR [rbp-0x10],0x0
     ef1:	c6 45 f1 00          	mov    BYTE PTR [rbp-0xf],0x0
     ef5:	48 8b 85 e8 fd ff ff 	mov    rax,QWORD PTR [rbp-0x218]
     efc:	48 89 c7             	mov    rdi,rax
     eff:	48 8d 85 f0 fd ff ff 	lea    rax,[rbp-0x210]
     f06:	ba 41 00 00 00       	mov    edx,0x41
     f0b:	48 89 c6             	mov    rsi,rax
     f0e:	48 89 d1             	mov    rcx,rdx
     f11:	f3 48 a5             	rep movs QWORD PTR es:[rdi],QWORD PTR ds:[rsi]
     f14:	48 8b 85 e8 fd ff ff 	mov    rax,QWORD PTR [rbp-0x218]
     f1b:	c9                   	leave  
     f1c:	c3                   	ret    
0x0000000000110f1d: buf_u64_isempty
     f1d:	55                   	push   rbp
     f1e:	48 89 e5             	mov    rbp,rsp
     f21:	48 83 ec 08          	sub    rsp,0x8
     f25:	48 89 7d f8          	mov    QWORD PTR [rbp-0x8],rdi
     f29:	48 8b 45 f8          	mov    rax,QWORD PTR [rbp-0x8]
     f2d:	0f b6 90 00 02 00 00 	movzx  edx,BYTE PTR [rax+0x200]
     f34:	48 8b 45 f8          	mov    rax,QWORD PTR [rbp-0x8]
     f38:	0f b6 80 01 02 00 00 	movzx  eax,BYTE PTR [rax+0x201]
     f3f:	38 c2                	cmp    dl,al
     f41:	0f 94 c0             	sete   al
     f44:	c9                   	leave  
     f45:	c3                   	ret    
0x0000000000110f46: buf_u64_isfull
     f46:	55                   	push   rbp
     f47:	48 89 e5             	mov    rbp,rsp
     f4a:	48 83 ec 08          	sub    rsp,0x8
     f4e:	48 89 7d f8          	mov    QWORD PTR [rbp-0x8],rdi
     f52:	48 8b 45 f8          	mov    rax,QWORD PTR [rbp-0x8]
     f56:	0f b6 80 01 02 00 00 	movzx  eax,BYTE PTR [rax+0x201]
     f5d:	0f b6 c0             	movzx  eax,al
     f60:	8d 50 01             	lea    edx,[rax+0x1]
     f63:	89 d0                	mov    eax,edx
     f65:	c1 f8 1f             	sar    eax,0x1f
     f68:	c1 e8 1a             	shr    eax,0x1a
     f6b:	01 c2                	add    edx,eax
     f6d:	83 e2 3f             	and    edx,0x3f
     f70:	29 c2                	sub    edx,eax
     f72:	89 d0                	mov    eax,edx
     f74:	89 c2                	mov    edx,eax
     f76:	48 8b 45 f8          	mov    rax,QWORD PTR [rbp-0x8]
     f7a:	0f b6 80 00 02 00 00 	movzx  eax,BYTE PTR [rax+0x200]
     f81:	0f b6 c0             	movzx  eax,al
     f84:	39 c2                	cmp    edx,eax
     f86:	0f 94 c0             	sete   al
     f89:	c9                   	leave  
     f8a:	c3                   	ret    
0x0000000000110f8b: enqueue_u64
     f8b:	55                   	push   rbp
     f8c:	48 89 e5             	mov    rbp,rsp
     f8f:	48 83 ec 10          	sub    rsp,0x10
     f93:	48 89 7d f8          	mov    QWORD PTR [rbp-0x8],rdi
     f97:	48 89 75 f0          	mov    QWORD PTR [rbp-0x10],rsi
     f9b:	48 8b 45 f8          	mov    rax,QWORD PTR [rbp-0x8]
     f9f:	48 89 c7             	mov    rdi,rax
     fa2:	e8 9f ff ff ff       	call   0xf46
     fa7:	84 c0                	test   al,al
     fa9:	74 07                	je     0xfb2
     fab:	b8 00 00 00 00       	mov    eax,0x0
     fb0:	eb 50                	jmp    0x1002
     fb2:	48 8b 45 f8          	mov    rax,QWORD PTR [rbp-0x8]
     fb6:	0f b6 80 01 02 00 00 	movzx  eax,BYTE PTR [rax+0x201]
     fbd:	0f b6 d0             	movzx  edx,al
     fc0:	48 8b 45 f8          	mov    rax,QWORD PTR [rbp-0x8]
     fc4:	48 63 d2             	movsxd rdx,edx
     fc7:	48 8b 4d f0          	mov    rcx,QWORD PTR [rbp-0x10]
     fcb:	48 89 0c d0          	mov    QWORD PTR [rax+rdx*8],rcx
     fcf:	48 8b 45 f8          	mov    rax,QWORD PTR [rbp-0x8]
     fd3:	0f b6 80 01 02 00 00 	movzx  eax,BYTE PTR [rax+0x201]
     fda:	0f b6 c0             	movzx  eax,al
     fdd:	8d 50 01             	lea    edx,[rax+0x1]
     fe0:	89 d0                	mov    eax,edx
     fe2:	c1 f8 1f             	sar    eax,0x1f
     fe5:	c1 e8 1a             	shr    eax,0x1a
     fe8:	01 c2                	add    edx,eax
     fea:	83 e2 3f             	and    edx,0x3f
     fed:	29 c2                	sub    edx,eax
     fef:	89 d0                	mov    eax,edx
     ff1:	89 c2                	mov    edx,eax
     ff3:	48 8b 45 f8          	mov    rax,QWORD PTR [rbp-0x8]
     ff7:	88 90 01 02 00 00    	mov    BYTE PTR [rax+0x201],dl
     ffd:	b8 01 00 00 00       	mov    eax,0x1
    1002:	c9                   	leave  
    1003:	c3                   	ret    
0x0000000000111004: dequeue_u64
    1004:	55                   	push   rbp
    1005:	48 89 e5             	mov    rbp,rsp
    1008:	48 83 ec 10          	sub    rsp,0x10
    100c:	48 89 7d f8          	mov    QWORD PTR [rbp-0x8],rdi
    1010:	48 89 75 f0          	mov    QWORD PTR [rbp-0x10],rsi
    1014:	48 8b 45 f8          	mov    rax,QWORD PTR [rbp-0x8]
    1018:	48 89 c7             	mov    rdi,rax
    101b:	e8 fd fe ff ff       	call   0xf1d
    1020:	84 c0                	test   al,al
    1022:	74 07                	je     0x102b
    1024:	b8 00 00 00 00       	mov    eax,0x0
    1029:	eb 53                	jmp    0x107e
    102b:	48 8b 45 f8          	mov    rax,QWORD PTR [rbp-0x8]
    102f:	0f b6 80 00 02 00 00 	movzx  eax,BYTE PTR [rax+0x200]
    1036:	0f b6 d0             	movzx  edx,al
    1039:	48 8b 45 f8          	mov    rax,QWORD PTR [rbp-0x8]
    103d:	48 63 d2             	movsxd rdx,edx
    1040:	48 8b 14 d0          	mov    rdx,QWORD PTR [rax+rdx*8]
    1044:	48 8b 45 f0          	mov    rax,QWORD PTR [rbp-0x10]
    1048:	48 89 10             	mov    QWORD PTR [rax],rdx
    104b:	48 8b 45 f8          	mov    rax,QWORD PTR [rbp-0x8]
    104f:	0f b6 80 00 02 00 00 	movzx  eax,BYTE PTR [rax+0x200]
    1056:	0f b6 c0             	movzx  eax,al
    1059:	8d 50 01             	lea    edx,[rax+0x1]
    105c:	89 d0                	mov    eax,edx
    105e:	c1 f8 1f             	sar    eax,0x1f
    1061:	c1 e8 1a             	shr    eax,0x1a
    1064:	01 c2                	add    edx,eax
    1066:	83 e2 3f             	and    edx,0x3f
    1069:	29 c2                	sub    edx,eax
    106b:	89 d0                	mov    eax,edx
    106d:	89 c2                	mov    edx,eax
    106f:	48 8b 45 f8          	mov    rax,QWORD PTR [rbp-0x8]
    1073:	88 90 00 02 00 00    	mov    BYTE PTR [rax+0x200],dl
    1079:	b8 01 00 00 00       	mov    eax,0x1
    107e:	c9                   	leave  
    107f:	c3                   	ret    
0x0000000000111080: flush_buf_u64
    1080:	55                   	push   rbp
    1081:	48 89 e5             	mov    rbp,rsp
    1084:	48 83 ec 18          	sub    rsp,0x18
    1088:	48 89 7d e8          	mov    QWORD PTR [rbp-0x18],rdi
    108c:	c7 45 fc 00 00 00 00 	mov    DWORD PTR [rbp-0x4],0x0
    1093:	eb 16                	jmp    0x10ab
    1095:	48 8b 45 e8          	mov    rax,QWORD PTR [rbp-0x18]
    1099:	8b 55 fc             	mov    edx,DWORD PTR [rbp-0x4]
    109c:	48 63 d2             	movsxd rdx,edx
    109f:	48 c7 04 d0 00 00 00 	mov    QWORD PTR [rax+rdx*8],0x0
    10a6:	00 
    10a7:	83 45 fc 01          	add    DWORD PTR [rbp-0x4],0x1
    10ab:	83 7d fc 3f          	cmp    DWORD PTR [rbp-0x4],0x3f
    10af:	7e e4                	jle    0x1095
    10b1:	48 8b 45 e8          	mov    rax,QWORD PTR [rbp-0x18]
    10b5:	c6 80 00 02 00 00 00 	mov    BYTE PTR [rax+0x200],0x0
    10bc:	48 8b 45 e8          	mov    rax,QWORD PTR [rbp-0x18]
    10c0:	c6 80 01 02 00 00 00 	mov    BYTE PTR [rax+0x201],0x0
    10c7:	90                   	nop
    10c8:	c9                   	leave  
    10c9:	c3                   	ret    
0x00000000001110ca: gen_buf_char
    10ca:	55                   	push   rbp
    10cb:	48 89 e5             	mov    rbp,rsp
    10ce:	48 83 ec 58          	sub    rsp,0x58
    10d2:	48 89 7d a8          	mov    QWORD PTR [rbp-0x58],rdi
    10d6:	c7 45 fc 00 00 00 00 	mov    DWORD PTR [rbp-0x4],0x0
    10dd:	eb 0e                	jmp    0x10ed
    10df:	8b 45 fc             	mov    eax,DWORD PTR [rbp-0x4]
    10e2:	48 98                	cdqe   
    10e4:	c6 44 05 ba 00       	mov    BYTE PTR [rbp+rax*1-0x46],0x0
    10e9:	83 45 fc 01          	add    DWORD PTR [rbp-0x4],0x1
    10ed:	83 7d fc 3f          	cmp    DWORD PTR [rbp-0x4],0x3f
    10f1:	7e ec                	jle    0x10df
    10f3:	c6 45 fa 00          	mov    BYTE PTR [rbp-0x6],0x0
    10f7:	c6 45 fb 00          	mov    BYTE PTR [rbp-0x5],0x0
    10fb:	48 8b 45 a8          	mov    rax,QWORD PTR [rbp-0x58]
    10ff:	48 8b 55 ba          	mov    rdx,QWORD PTR [rbp-0x46]
    1103:	48 89 10             	mov    QWORD PTR [rax],rdx
    1106:	48 8b 55 c2          	mov    rdx,QWORD PTR [rbp-0x3e]
    110a:	48 89 50 08          	mov    QWORD PTR [rax+0x8],rdx
    110e:	48 8b 55 ca          	mov    rdx,QWORD PTR [rbp-0x36]
    1112:	48 89 50 10          	mov    QWORD PTR [rax+0x10],rdx
    1116:	48 8b 55 d2          	mov    rdx,QWORD PTR [rbp-0x2e]
    111a:	48 89 50 18          	mov    QWORD PTR [rax+0x18],rdx
    111e:	48 8b 55 da          	mov    rdx,QWORD PTR [rbp-0x26]
    1122:	48 89 50 20          	mov    QWORD PTR [rax+0x20],rdx
    1126:	48 8b 55 e2          	mov    rdx,QWORD PTR [rbp-0x1e]
    112a:	48 89 50 28          	mov    QWORD PTR [rax+0x28],rdx
    112e:	48 8b 55 ea          	mov    rdx,QWORD PTR [rbp-0x16]
    1132:	48 89 50 30          	mov    QWORD PTR [rax+0x30],rdx
    1136:	48 8b 55 f2          	mov    rdx,QWORD PTR [rbp-0xe]
    113a:	48 89 50 38          	mov    QWORD PTR [rax+0x38],rdx
    113e:	0f b7 55 fa          	movzx  edx,WORD PTR [rbp-0x6]
    1142:	66 89 50 40          	mov    WORD PTR [rax+0x40],dx
    1146:	48 8b 45 a8          	mov    rax,QWORD PTR [rbp-0x58]
    114a:	c9                   	leave  
    114b:	c3                   	ret    
0x000000000011114c: buf_char_isempty
    114c:	55                   	push   rbp
    114d:	48 89 e5             	mov    rbp,rsp
    1150:	48 83 ec 08          	sub    rsp,0x8
    1154:	48 89 7d f8          	mov    QWORD PTR [rbp-0x8],rdi
    1158:	48 8b 45 f8          	mov    rax,QWORD PTR [rbp-0x8]
    115c:	0f b6 50 40          	movzx  edx,BYTE PTR [rax+0x40]
    1160:	48 8b 45 f8          	mov    rax,QWORD PTR [rbp-0x8]
    1164:	0f b6 40 41          	movzx  eax,BYTE PTR [rax+0x41]
    1168:	38 c2                	cmp    dl,al
    116a:	0f 94 c0             	sete   al
    116d:	c9                   	leave  
    116e:	c3                   	ret    
0x000000000011116f: buf_char_isfull
    116f:	55                   	push   rbp
    1170:	48 89 e5             	mov    rbp,rsp
    1173:	48 83 ec 08          	sub    rsp,0x8
    1177:	48 89 7d f8          	mov    QWORD PTR [rbp-0x8],rdi
    117b:	48 8b 45 f8          	mov    rax,QWORD PTR [rbp-0x8]
    117f:	0f b6 40 41          	movzx  eax,BYTE PTR [rax+0x41]
    1183:	0f b6 c0             	movzx  eax,al
    1186:	8d 50 01             	lea    edx,[rax+0x1]
    1189:	89 d0                	mov    eax,edx
    118b:	c1 f8 1f             	sar    eax,0x1f
    118e:	c1 e8 1a             	shr    eax,0x1a
    1191:	01 c2                	add    edx,eax
    1193:	83 e2 3f             	and    edx,0x3f
    1196:	29 c2                	sub    edx,eax
    1198:	89 d0                	mov    eax,edx
    119a:	89 c2                	mov    edx,eax
    119c:	48 8b 45 f8          	mov    rax,QWORD PTR [rbp-0x8]
    11a0:	0f b6 40 40          	movzx  eax,BYTE PTR [rax+0x40]
    11a4:	0f b6 c0             	movzx  eax,al
    11a7:	39 c2                	cmp    edx,eax
    11a9:	0f 94 c0             	sete   al
    11ac:	c9                   	leave  
    11ad:	c3                   	ret    
0x00000000001111ae: enqueue_char
    11ae:	55                   	push   rbp
    11af:	48 89 e5             	mov    rbp,rsp
    11b2:	48 83 ec 10          	sub    rsp,0x10
    11b6:	48 89 7d f8          	mov    QWORD PTR [rbp-0x8],rdi
    11ba:	89 f0                	mov    eax,esi
    11bc:	88 45 f4             	mov    BYTE PTR [rbp-0xc],al
    11bf:	48 8b 45 f8          	mov    rax,QWORD PTR [rbp-0x8]
    11c3:	48 89 c7             	mov    rdi,rax
    11c6:	e8 a4 ff ff ff       	call   0x116f
    11cb:	84 c0                	test   al,al
    11cd:	74 07                	je     0x11d6
    11cf:	b8 00 00 00 00       	mov    eax,0x0
    11d4:	eb 45                	jmp    0x121b
    11d6:	48 8b 45 f8          	mov    rax,QWORD PTR [rbp-0x8]
    11da:	0f b6 40 41          	movzx  eax,BYTE PTR [rax+0x41]
    11de:	0f b6 c0             	movzx  eax,al
    11e1:	48 8b 55 f8          	mov    rdx,QWORD PTR [rbp-0x8]
    11e5:	48 98                	cdqe   
    11e7:	0f b6 4d f4          	movzx  ecx,BYTE PTR [rbp-0xc]
    11eb:	88 0c 02             	mov    BYTE PTR [rdx+rax*1],cl
    11ee:	48 8b 45 f8          	mov    rax,QWORD PTR [rbp-0x8]
    11f2:	0f b6 40 41          	movzx  eax,BYTE PTR [rax+0x41]
    11f6:	0f b6 c0             	movzx  eax,al
    11f9:	8d 50 01             	lea    edx,[rax+0x1]
    11fc:	89 d0                	mov    eax,edx
    11fe:	c1 f8 1f             	sar    eax,0x1f
    1201:	c1 e8 1a             	shr    eax,0x1a
    1204:	01 c2                	add    edx,eax
    1206:	83 e2 3f             	and    edx,0x3f
    1209:	29 c2                	sub    edx,eax
    120b:	89 d0                	mov    eax,edx
    120d:	89 c2                	mov    edx,eax
    120f:	48 8b 45 f8          	mov    rax,QWORD PTR [rbp-0x8]
    1213:	88 50 41             	mov    BYTE PTR [rax+0x41],dl
    1216:	b8 01 00 00 00       	mov    eax,0x1
    121b:	c9                   	leave  
    121c:	c3                   	ret    
0x000000000011121d: dequeue_char
    121d:	55                   	push   rbp
    121e:	48 89 e5             	mov    rbp,rsp
    1221:	48 83 ec 10          	sub    rsp,0x10
    1225:	48 89 7d f8          	mov    QWORD PTR [rbp-0x8],rdi
    1229:	48 89 75 f0          	mov    QWORD PTR [rbp-0x10],rsi
    122d:	48 8b 45 f8          	mov    rax,QWORD PTR [rbp-0x8]
    1231:	48 89 c7             	mov    rdi,rax
    1234:	e8 13 ff ff ff       	call   0x114c
    1239:	84 c0                	test   al,al
    123b:	74 07                	je     0x1244
    123d:	b8 00 00 00 00       	mov    eax,0x0
    1242:	eb 48                	jmp    0x128c
    1244:	48 8b 45 f8          	mov    rax,QWORD PTR [rbp-0x8]
    1248:	0f b6 40 40          	movzx  eax,BYTE PTR [rax+0x40]
    124c:	0f b6 c0             	movzx  eax,al
    124f:	48 8b 55 f8          	mov    rdx,QWORD PTR [rbp-0x8]
    1253:	48 98                	cdqe   
    1255:	0f b6 14 02          	movzx  edx,BYTE PTR [rdx+rax*1]
    1259:	48 8b 45 f0          	mov    rax,QWORD PTR [rbp-0x10]
    125d:	88 10                	mov    BYTE PTR [rax],dl
    125f:	48 8b 45 f8          	mov    rax,QWORD PTR [rbp-0x8]
    1263:	0f b6 40 40          	movzx  eax,BYTE PTR [rax+0x40]
    1267:	0f b6 c0             	movzx  eax,al
    126a:	8d 50 01             	lea    edx,[rax+0x1]
    126d:	89 d0                	mov    eax,edx
    126f:	c1 f8 1f             	sar    eax,0x1f
    1272:	c1 e8 1a             	shr    eax,0x1a
    1275:	01 c2                	add    edx,eax
    1277:	83 e2 3f             	and    edx,0x3f
    127a:	29 c2                	sub    edx,eax
    127c:	89 d0                	mov    eax,edx
    127e:	89 c2                	mov    edx,eax
    1280:	48 8b 45 f8          	mov    rax,QWORD PTR [rbp-0x8]
    1284:	88 50 40             	mov    BYTE PTR [rax+0x40],dl
    1287:	b8 01 00 00 00       	mov    eax,0x1
    128c:	c9                   	leave  
    128d:	c3                   	ret    
0x000000000011128e: flush_buf_char
    128e:	55                   	push   rbp
    128f:	48 89 e5             	mov    rbp,rsp
    1292:	48 83 ec 18          	sub    rsp,0x18
    1296:	48 89 7d e8          	mov    QWORD PTR [rbp-0x18],rdi
    129a:	c7 45 fc 00 00 00 00 	mov    DWORD PTR [rbp-0x4],0x0
    12a1:	eb 11                	jmp    0x12b4
    12a3:	48 8b 55 e8          	mov    rdx,QWORD PTR [rbp-0x18]
    12a7:	8b 45 fc             	mov    eax,DWORD PTR [rbp-0x4]
    12aa:	48 98                	cdqe   
    12ac:	c6 04 02 00          	mov    BYTE PTR [rdx+rax*1],0x0
    12b0:	83 45 fc 01          	add    DWORD PTR [rbp-0x4],0x1
    12b4:	83 7d fc 3f          	cmp    DWORD PTR [rbp-0x4],0x3f
    12b8:	7e e9                	jle    0x12a3
    12ba:	48 8b 45 e8          	mov    rax,QWORD PTR [rbp-0x18]
    12be:	c6 40 40 00          	mov    BYTE PTR [rax+0x40],0x0
    12c2:	48 8b 45 e8          	mov    rax,QWORD PTR [rbp-0x18]
    12c6:	c6 40 41 00          	mov    BYTE PTR [rax+0x41],0x0
    12ca:	90                   	nop
    12cb:	c9                   	leave  
    12cc:	c3                   	ret    
0x00000000001112cd: flush_array_char
    12cd:	55                   	push   rbp
    12ce:	48 89 e5             	mov    rbp,rsp
    12d1:	48 83 ec 18          	sub    rsp,0x18
    12d5:	48 89 7d e8          	mov    QWORD PTR [rbp-0x18],rdi
    12d9:	c7 45 fc 00 00 00 00 	mov    DWORD PTR [rbp-0x4],0x0
    12e0:	eb 14                	jmp    0x12f6
    12e2:	8b 45 fc             	mov    eax,DWORD PTR [rbp-0x4]
    12e5:	48 63 d0             	movsxd rdx,eax
    12e8:	48 8b 45 e8          	mov    rax,QWORD PTR [rbp-0x18]
    12ec:	48 01 d0             	add    rax,rdx
    12ef:	c6 00 00             	mov    BYTE PTR [rax],0x0
    12f2:	83 45 fc 01          	add    DWORD PTR [rbp-0x4],0x1
    12f6:	8b 45 fc             	mov    eax,DWORD PTR [rbp-0x4]
    12f9:	48 63 d0             	movsxd rdx,eax
    12fc:	48 8b 45 e8          	mov    rax,QWORD PTR [rbp-0x18]
    1300:	48 01 d0             	add    rax,rdx
    1303:	0f b6 00             	movzx  eax,BYTE PTR [rax]
    1306:	84 c0                	test   al,al
    1308:	75 d8                	jne    0x12e2
    130a:	8b 45 fc             	mov    eax,DWORD PTR [rbp-0x4]
    130d:	48 98                	cdqe   
    130f:	48 8d 50 01          	lea    rdx,[rax+0x1]
    1313:	48 8b 45 e8          	mov    rax,QWORD PTR [rbp-0x18]
    1317:	48 01 d0             	add    rax,rdx
    131a:	0f b6 00             	movzx  eax,BYTE PTR [rax]
    131d:	84 c0                	test   al,al
    131f:	75 c1                	jne    0x12e2
    1321:	90                   	nop
    1322:	90                   	nop
    1323:	c9                   	leave  
    1324:	c3                   	ret    
0x0000000000111325: flush_argv
    1325:	55                   	push   rbp
    1326:	48 89 e5             	mov    rbp,rsp
    1329:	48 83 ec 18          	sub    rsp,0x18
    132d:	48 89 7d e8          	mov    QWORD PTR [rbp-0x18],rdi
    1331:	c7 45 fc 00 00 00 00 	mov    DWORD PTR [rbp-0x4],0x0
    1338:	c7 45 f8 00 00 00 00 	mov    DWORD PTR [rbp-0x8],0x0
    133f:	eb 50                	jmp    0x1391
    1341:	8b 45 fc             	mov    eax,DWORD PTR [rbp-0x4]
    1344:	48 98                	cdqe   
    1346:	48 8d 14 c5 00 00 00 	lea    rdx,[rax*8+0x0]
    134d:	00 
    134e:	48 8b 45 e8          	mov    rax,QWORD PTR [rbp-0x18]
    1352:	48 01 d0             	add    rax,rdx
    1355:	48 8b 10             	mov    rdx,QWORD PTR [rax]
    1358:	8b 45 f8             	mov    eax,DWORD PTR [rbp-0x8]
    135b:	48 98                	cdqe   
    135d:	48 01 d0             	add    rax,rdx
    1360:	c6 00 00             	mov    BYTE PTR [rax],0x0
    1363:	83 45 f8 01          	add    DWORD PTR [rbp-0x8],0x1
    1367:	8b 45 fc             	mov    eax,DWORD PTR [rbp-0x4]
    136a:	48 98                	cdqe   
    136c:	48 8d 14 c5 00 00 00 	lea    rdx,[rax*8+0x0]
    1373:	00 
    1374:	48 8b 45 e8          	mov    rax,QWORD PTR [rbp-0x18]
    1378:	48 01 d0             	add    rax,rdx
    137b:	48 8b 10             	mov    rdx,QWORD PTR [rax]
    137e:	8b 45 f8             	mov    eax,DWORD PTR [rbp-0x8]
    1381:	48 98                	cdqe   
    1383:	48 01 d0             	add    rax,rdx
    1386:	0f b6 00             	movzx  eax,BYTE PTR [rax]
    1389:	84 c0                	test   al,al
    138b:	75 b4                	jne    0x1341
    138d:	83 45 fc 01          	add    DWORD PTR [rbp-0x4],0x1
    1391:	8b 45 fc             	mov    eax,DWORD PTR [rbp-0x4]
    1394:	48 98                	cdqe   
    1396:	48 8d 14 c5 00 00 00 	lea    rdx,[rax*8+0x0]
    139d:	00 
    139e:	48 8b 45 e8          	mov    rax,QWORD PTR [rbp-0x18]
    13a2:	48 01 d0             	add    rax,rdx
    13a5:	48 8b 00             	mov    rax,QWORD PTR [rax]
    13a8:	48 85 c0             	test   rax,rax
    13ab:	75 ba                	jne    0x1367
    13ad:	90                   	nop
    13ae:	90                   	nop
    13af:	c9                   	leave  
    13b0:	c3                   	ret    
0x00000000001113b1: comptext
    13b1:	55                   	push   rbp
    13b2:	48 89 e5             	mov    rbp,rsp
    13b5:	48 83 ec 20          	sub    rsp,0x20
    13b9:	48 89 7d e8          	mov    QWORD PTR [rbp-0x18],rdi
    13bd:	48 89 75 e0          	mov    QWORD PTR [rbp-0x20],rsi
    13c1:	c7 45 fc 00 00 00 00 	mov    DWORD PTR [rbp-0x4],0x0
    13c8:	c7 45 f8 00 00 00 00 	mov    DWORD PTR [rbp-0x8],0x0
    13cf:	eb 04                	jmp    0x13d5
    13d1:	83 45 fc 01          	add    DWORD PTR [rbp-0x4],0x1
    13d5:	8b 45 fc             	mov    eax,DWORD PTR [rbp-0x4]
    13d8:	48 63 d0             	movsxd rdx,eax
    13db:	48 8b 45 e8          	mov    rax,QWORD PTR [rbp-0x18]
    13df:	48 01 d0             	add    rax,rdx
    13e2:	0f b6 00             	movzx  eax,BYTE PTR [rax]
    13e5:	84 c0                	test   al,al
    13e7:	75 e8                	jne    0x13d1
    13e9:	eb 04                	jmp    0x13ef
    13eb:	83 45 f8 01          	add    DWORD PTR [rbp-0x8],0x1
    13ef:	8b 45 f8             	mov    eax,DWORD PTR [rbp-0x8]
    13f2:	48 63 d0             	movsxd rdx,eax
    13f5:	48 8b 45 e0          	mov    rax,QWORD PTR [rbp-0x20]
    13f9:	48 01 d0             	add    rax,rdx
    13fc:	0f b6 00             	movzx  eax,BYTE PTR [rax]
    13ff:	84 c0                	test   al,al
    1401:	75 e8                	jne    0x13eb
    1403:	8b 45 fc             	mov    eax,DWORD PTR [rbp-0x4]
    1406:	3b 45 f8             	cmp    eax,DWORD PTR [rbp-0x8]
    1409:	75 07                	jne    0x1412
    140b:	b8 00 00 00 00       	mov    eax,0x0
    1410:	eb 45                	jmp    0x1457
    1412:	c7 45 fc 00 00 00 00 	mov    DWORD PTR [rbp-0x4],0x0
    1419:	eb 2f                	jmp    0x144a
    141b:	8b 45 fc             	mov    eax,DWORD PTR [rbp-0x4]
    141e:	48 63 d0             	movsxd rdx,eax
    1421:	48 8b 45 e8          	mov    rax,QWORD PTR [rbp-0x18]
    1425:	48 01 d0             	add    rax,rdx
    1428:	0f b6 10             	movzx  edx,BYTE PTR [rax]
    142b:	8b 45 fc             	mov    eax,DWORD PTR [rbp-0x4]
    142e:	48 63 c8             	movsxd rcx,eax
    1431:	48 8b 45 e0          	mov    rax,QWORD PTR [rbp-0x20]
    1435:	48 01 c8             	add    rax,rcx
    1438:	0f b6 00             	movzx  eax,BYTE PTR [rax]
    143b:	38 c2                	cmp    dl,al
    143d:	74 07                	je     0x1446
    143f:	b8 00 00 00 00       	mov    eax,0x0
    1444:	eb 11                	jmp    0x1457
    1446:	83 45 fc 01          	add    DWORD PTR [rbp-0x4],0x1
    144a:	8b 45 fc             	mov    eax,DWORD PTR [rbp-0x4]
    144d:	3b 45 f8             	cmp    eax,DWORD PTR [rbp-0x8]
    1450:	7c c9                	jl     0x141b
    1452:	b8 01 00 00 00       	mov    eax,0x1
    1457:	c9                   	leave  
    1458:	c3                   	ret    
0x0000000000111459: strncmp
    1459:	55                   	push   rbp
    145a:	48 89 e5             	mov    rbp,rsp
    145d:	48 83 ec 28          	sub    rsp,0x28
    1461:	48 89 7d e8          	mov    QWORD PTR [rbp-0x18],rdi
    1465:	48 89 75 e0          	mov    QWORD PTR [rbp-0x20],rsi
    1469:	89 55 dc             	mov    DWORD PTR [rbp-0x24],edx
    146c:	c7 45 fc 00 00 00 00 	mov    DWORD PTR [rbp-0x4],0x0
    1473:	eb 5a                	jmp    0x14cf
    1475:	8b 45 fc             	mov    eax,DWORD PTR [rbp-0x4]
    1478:	48 63 d0             	movsxd rdx,eax
    147b:	48 8b 45 e8          	mov    rax,QWORD PTR [rbp-0x18]
    147f:	48 01 d0             	add    rax,rdx
    1482:	0f b6 10             	movzx  edx,BYTE PTR [rax]
    1485:	8b 45 fc             	mov    eax,DWORD PTR [rbp-0x4]
    1488:	48 63 c8             	movsxd rcx,eax
    148b:	48 8b 45 e0          	mov    rax,QWORD PTR [rbp-0x20]
    148f:	48 01 c8             	add    rax,rcx
    1492:	0f b6 00             	movzx  eax,BYTE PTR [rax]
    1495:	38 c2                	cmp    dl,al
    1497:	7e 07                	jle    0x14a0
    1499:	b8 01 00 00 00       	mov    eax,0x1
    149e:	eb 3c                	jmp    0x14dc
    14a0:	8b 45 fc             	mov    eax,DWORD PTR [rbp-0x4]
    14a3:	48 63 d0             	movsxd rdx,eax
    14a6:	48 8b 45 e8          	mov    rax,QWORD PTR [rbp-0x18]
    14aa:	48 01 d0             	add    rax,rdx
    14ad:	0f b6 10             	movzx  edx,BYTE PTR [rax]
    14b0:	8b 45 fc             	mov    eax,DWORD PTR [rbp-0x4]
    14b3:	48 63 c8             	movsxd rcx,eax
    14b6:	48 8b 45 e0          	mov    rax,QWORD PTR [rbp-0x20]
    14ba:	48 01 c8             	add    rax,rcx
    14bd:	0f b6 00             	movzx  eax,BYTE PTR [rax]
    14c0:	38 c2                	cmp    dl,al
    14c2:	7d 07                	jge    0x14cb
    14c4:	b8 ff ff ff ff       	mov    eax,0xffffffff
    14c9:	eb 11                	jmp    0x14dc
    14cb:	83 45 fc 01          	add    DWORD PTR [rbp-0x4],0x1
    14cf:	8b 45 fc             	mov    eax,DWORD PTR [rbp-0x4]
    14d2:	3b 45 dc             	cmp    eax,DWORD PTR [rbp-0x24]
    14d5:	7c 9e                	jl     0x1475
    14d7:	b8 00 00 00 00       	mov    eax,0x0
    14dc:	c9                   	leave  
    14dd:	c3                   	ret    
0x00000000001114de: sprintf
    14de:	55                   	push   rbp
    14df:	48 89 e5             	mov    rbp,rsp
    14e2:	48 83 ec 20          	sub    rsp,0x20
    14e6:	48 89 7d e8          	mov    QWORD PTR [rbp-0x18],rdi
    14ea:	48 89 75 e0          	mov    QWORD PTR [rbp-0x20],rsi
    14ee:	c6 45 ff 00          	mov    BYTE PTR [rbp-0x1],0x0
    14f2:	eb 25                	jmp    0x1519
    14f4:	0f b6 55 ff          	movzx  edx,BYTE PTR [rbp-0x1]
    14f8:	48 8b 45 e8          	mov    rax,QWORD PTR [rbp-0x18]
    14fc:	48 01 d0             	add    rax,rdx
    14ff:	0f b6 4d ff          	movzx  ecx,BYTE PTR [rbp-0x1]
    1503:	48 8b 55 e0          	mov    rdx,QWORD PTR [rbp-0x20]
    1507:	48 01 ca             	add    rdx,rcx
    150a:	0f b6 00             	movzx  eax,BYTE PTR [rax]
    150d:	88 02                	mov    BYTE PTR [rdx],al
    150f:	0f b6 45 ff          	movzx  eax,BYTE PTR [rbp-0x1]
    1513:	83 c0 01             	add    eax,0x1
    1516:	88 45 ff             	mov    BYTE PTR [rbp-0x1],al
    1519:	0f b6 55 ff          	movzx  edx,BYTE PTR [rbp-0x1]
    151d:	48 8b 45 e8          	mov    rax,QWORD PTR [rbp-0x18]
    1521:	48 01 d0             	add    rax,rdx
    1524:	0f b6 00             	movzx  eax,BYTE PTR [rax]
    1527:	84 c0                	test   al,al
    1529:	75 c9                	jne    0x14f4
    152b:	0f b6 55 ff          	movzx  edx,BYTE PTR [rbp-0x1]
    152f:	48 8b 45 e8          	mov    rax,QWORD PTR [rbp-0x18]
    1533:	48 01 d0             	add    rax,rdx
    1536:	0f b6 4d ff          	movzx  ecx,BYTE PTR [rbp-0x1]
    153a:	48 8b 55 e0          	mov    rdx,QWORD PTR [rbp-0x20]
    153e:	48 01 ca             	add    rdx,rcx
    1541:	0f b6 00             	movzx  eax,BYTE PTR [rax]
    1544:	88 02                	mov    BYTE PTR [rdx],al
    1546:	90                   	nop
    1547:	c9                   	leave  
    1548:	c3                   	ret    
0x0000000000111549: u64_to_hexstr
    1549:	55                   	push   rbp
    154a:	48 89 e5             	mov    rbp,rsp
    154d:	53                   	push   rbx
    154e:	48 81 ec a0 00 00 00 	sub    rsp,0xa0
    1555:	48 89 bd 60 ff ff ff 	mov    QWORD PTR [rbp-0xa0],rdi
    155c:	48 89 b5 58 ff ff ff 	mov    QWORD PTR [rbp-0xa8],rsi
    1563:	48 c7 45 f0 00 00 00 	mov    QWORD PTR [rbp-0x10],0x0
    156a:	00 
    156b:	e9 93 00 00 00       	jmp    0x1603
    1570:	48 8b 45 f0          	mov    rax,QWORD PTR [rbp-0x10]
    1574:	48 c1 e0 02          	shl    rax,0x2
    1578:	48 89 c6             	mov    rsi,rax
    157b:	bf 02 00 00 00       	mov    edi,0x2
    1580:	e8 ee f8 ff ff       	call   0xe73
    1585:	48 89 c3             	mov    rbx,rax
    1588:	48 8b 45 f0          	mov    rax,QWORD PTR [rbp-0x10]
    158c:	48 c1 e0 02          	shl    rax,0x2
    1590:	48 83 c0 01          	add    rax,0x1
    1594:	48 89 c6             	mov    rsi,rax
    1597:	bf 02 00 00 00       	mov    edi,0x2
    159c:	e8 d2 f8 ff ff       	call   0xe73
    15a1:	48 01 c3             	add    rbx,rax
    15a4:	48 8b 45 f0          	mov    rax,QWORD PTR [rbp-0x10]
    15a8:	48 c1 e0 02          	shl    rax,0x2
    15ac:	48 83 c0 02          	add    rax,0x2
    15b0:	48 89 c6             	mov    rsi,rax
    15b3:	bf 02 00 00 00       	mov    edi,0x2
    15b8:	e8 b6 f8 ff ff       	call   0xe73
    15bd:	48 01 c3             	add    rbx,rax
    15c0:	48 8b 45 f0          	mov    rax,QWORD PTR [rbp-0x10]
    15c4:	48 c1 e0 02          	shl    rax,0x2
    15c8:	48 83 c0 03          	add    rax,0x3
    15cc:	48 89 c6             	mov    rsi,rax
    15cf:	bf 02 00 00 00       	mov    edi,0x2
    15d4:	e8 9a f8 ff ff       	call   0xe73
    15d9:	48 01 d8             	add    rax,rbx
    15dc:	48 23 85 58 ff ff ff 	and    rax,QWORD PTR [rbp-0xa8]
    15e3:	48 89 c2             	mov    rdx,rax
    15e6:	48 8b 45 f0          	mov    rax,QWORD PTR [rbp-0x10]
    15ea:	c1 e0 02             	shl    eax,0x2
    15ed:	89 c1                	mov    ecx,eax
    15ef:	48 d3 ea             	shr    rdx,cl
    15f2:	48 8b 45 f0          	mov    rax,QWORD PTR [rbp-0x10]
    15f6:	48 89 94 c5 70 ff ff 	mov    QWORD PTR [rbp+rax*8-0x90],rdx
    15fd:	ff 
    15fe:	48 83 45 f0 01       	add    QWORD PTR [rbp-0x10],0x1
    1603:	48 83 7d f0 0f       	cmp    QWORD PTR [rbp-0x10],0xf
    1608:	0f 86 62 ff ff ff    	jbe    0x1570
    160e:	48 8b 85 60 ff ff ff 	mov    rax,QWORD PTR [rbp-0xa0]
    1615:	c6 00 30             	mov    BYTE PTR [rax],0x30
    1618:	48 8b 85 60 ff ff ff 	mov    rax,QWORD PTR [rbp-0xa0]
    161f:	48 83 c0 01          	add    rax,0x1
    1623:	c6 00 78             	mov    BYTE PTR [rax],0x78
    1626:	48 8b 85 60 ff ff ff 	mov    rax,QWORD PTR [rbp-0xa0]
    162d:	48 83 c0 12          	add    rax,0x12
    1631:	c6 00 00             	mov    BYTE PTR [rax],0x0
    1634:	48 c7 45 f0 00 00 00 	mov    QWORD PTR [rbp-0x10],0x0
    163b:	00 
    163c:	e9 b4 02 00 00       	jmp    0x18f5
    1641:	48 8b 45 f0          	mov    rax,QWORD PTR [rbp-0x10]
    1645:	48 8b 84 c5 70 ff ff 	mov    rax,QWORD PTR [rbp+rax*8-0x90]
    164c:	ff 
    164d:	48 85 c0             	test   rax,rax
    1650:	75 19                	jne    0x166b
    1652:	b8 11 00 00 00       	mov    eax,0x11
    1657:	48 2b 45 f0          	sub    rax,QWORD PTR [rbp-0x10]
    165b:	48 89 c2             	mov    rdx,rax
    165e:	48 8b 85 60 ff ff ff 	mov    rax,QWORD PTR [rbp-0xa0]
    1665:	48 01 d0             	add    rax,rdx
    1668:	c6 00 30             	mov    BYTE PTR [rax],0x30
    166b:	48 8b 45 f0          	mov    rax,QWORD PTR [rbp-0x10]
    166f:	48 8b 84 c5 70 ff ff 	mov    rax,QWORD PTR [rbp+rax*8-0x90]
    1676:	ff 
    1677:	48 83 f8 01          	cmp    rax,0x1
    167b:	75 19                	jne    0x1696
    167d:	b8 11 00 00 00       	mov    eax,0x11
    1682:	48 2b 45 f0          	sub    rax,QWORD PTR [rbp-0x10]
    1686:	48 89 c2             	mov    rdx,rax
    1689:	48 8b 85 60 ff ff ff 	mov    rax,QWORD PTR [rbp-0xa0]
    1690:	48 01 d0             	add    rax,rdx
    1693:	c6 00 31             	mov    BYTE PTR [rax],0x31
    1696:	48 8b 45 f0          	mov    rax,QWORD PTR [rbp-0x10]
    169a:	48 8b 84 c5 70 ff ff 	mov    rax,QWORD PTR [rbp+rax*8-0x90]
    16a1:	ff 
    16a2:	48 83 f8 02          	cmp    rax,0x2
    16a6:	75 19                	jne    0x16c1
    16a8:	b8 11 00 00 00       	mov    eax,0x11
    16ad:	48 2b 45 f0          	sub    rax,QWORD PTR [rbp-0x10]
    16b1:	48 89 c2             	mov    rdx,rax
    16b4:	48 8b 85 60 ff ff ff 	mov    rax,QWORD PTR [rbp-0xa0]
    16bb:	48 01 d0             	add    rax,rdx
    16be:	c6 00 32             	mov    BYTE PTR [rax],0x32
    16c1:	48 8b 45 f0          	mov    rax,QWORD PTR [rbp-0x10]
    16c5:	48 8b 84 c5 70 ff ff 	mov    rax,QWORD PTR [rbp+rax*8-0x90]
    16cc:	ff 
    16cd:	48 83 f8 03          	cmp    rax,0x3
    16d1:	75 19                	jne    0x16ec
    16d3:	b8 11 00 00 00       	mov    eax,0x11
    16d8:	48 2b 45 f0          	sub    rax,QWORD PTR [rbp-0x10]
    16dc:	48 89 c2             	mov    rdx,rax
    16df:	48 8b 85 60 ff ff ff 	mov    rax,QWORD PTR [rbp-0xa0]
    16e6:	48 01 d0             	add    rax,rdx
    16e9:	c6 00 33             	mov    BYTE PTR [rax],0x33
    16ec:	48 8b 45 f0          	mov    rax,QWORD PTR [rbp-0x10]
    16f0:	48 8b 84 c5 70 ff ff 	mov    rax,QWORD PTR [rbp+rax*8-0x90]
    16f7:	ff 
    16f8:	48 83 f8 04          	cmp    rax,0x4
    16fc:	75 19                	jne    0x1717
    16fe:	b8 11 00 00 00       	mov    eax,0x11
    1703:	48 2b 45 f0          	sub    rax,QWORD PTR [rbp-0x10]
    1707:	48 89 c2             	mov    rdx,rax
    170a:	48 8b 85 60 ff ff ff 	mov    rax,QWORD PTR [rbp-0xa0]
    1711:	48 01 d0             	add    rax,rdx
    1714:	c6 00 34             	mov    BYTE PTR [rax],0x34
    1717:	48 8b 45 f0          	mov    rax,QWORD PTR [rbp-0x10]
    171b:	48 8b 84 c5 70 ff ff 	mov    rax,QWORD PTR [rbp+rax*8-0x90]
    1722:	ff 
    1723:	48 83 f8 05          	cmp    rax,0x5
    1727:	75 19                	jne    0x1742
    1729:	b8 11 00 00 00       	mov    eax,0x11
    172e:	48 2b 45 f0          	sub    rax,QWORD PTR [rbp-0x10]
    1732:	48 89 c2             	mov    rdx,rax
    1735:	48 8b 85 60 ff ff ff 	mov    rax,QWORD PTR [rbp-0xa0]
    173c:	48 01 d0             	add    rax,rdx
    173f:	c6 00 35             	mov    BYTE PTR [rax],0x35
    1742:	48 8b 45 f0          	mov    rax,QWORD PTR [rbp-0x10]
    1746:	48 8b 84 c5 70 ff ff 	mov    rax,QWORD PTR [rbp+rax*8-0x90]
    174d:	ff 
    174e:	48 83 f8 06          	cmp    rax,0x6
    1752:	75 19                	jne    0x176d
    1754:	b8 11 00 00 00       	mov    eax,0x11
    1759:	48 2b 45 f0          	sub    rax,QWORD PTR [rbp-0x10]
    175d:	48 89 c2             	mov    rdx,rax
    1760:	48 8b 85 60 ff ff ff 	mov    rax,QWORD PTR [rbp-0xa0]
    1767:	48 01 d0             	add    rax,rdx
    176a:	c6 00 36             	mov    BYTE PTR [rax],0x36
    176d:	48 8b 45 f0          	mov    rax,QWORD PTR [rbp-0x10]
    1771:	48 8b 84 c5 70 ff ff 	mov    rax,QWORD PTR [rbp+rax*8-0x90]
    1778:	ff 
    1779:	48 83 f8 07          	cmp    rax,0x7
    177d:	75 19                	jne    0x1798
    177f:	b8 11 00 00 00       	mov    eax,0x11
    1784:	48 2b 45 f0          	sub    rax,QWORD PTR [rbp-0x10]
    1788:	48 89 c2             	mov    rdx,rax
    178b:	48 8b 85 60 ff ff ff 	mov    rax,QWORD PTR [rbp-0xa0]
    1792:	48 01 d0             	add    rax,rdx
    1795:	c6 00 37             	mov    BYTE PTR [rax],0x37
    1798:	48 8b 45 f0          	mov    rax,QWORD PTR [rbp-0x10]
    179c:	48 8b 84 c5 70 ff ff 	mov    rax,QWORD PTR [rbp+rax*8-0x90]
    17a3:	ff 
    17a4:	48 83 f8 08          	cmp    rax,0x8
    17a8:	75 19                	jne    0x17c3
    17aa:	b8 11 00 00 00       	mov    eax,0x11
    17af:	48 2b 45 f0          	sub    rax,QWORD PTR [rbp-0x10]
    17b3:	48 89 c2             	mov    rdx,rax
    17b6:	48 8b 85 60 ff ff ff 	mov    rax,QWORD PTR [rbp-0xa0]
    17bd:	48 01 d0             	add    rax,rdx
    17c0:	c6 00 38             	mov    BYTE PTR [rax],0x38
    17c3:	48 8b 45 f0          	mov    rax,QWORD PTR [rbp-0x10]
    17c7:	48 8b 84 c5 70 ff ff 	mov    rax,QWORD PTR [rbp+rax*8-0x90]
    17ce:	ff 
    17cf:	48 83 f8 09          	cmp    rax,0x9
    17d3:	75 19                	jne    0x17ee
    17d5:	b8 11 00 00 00       	mov    eax,0x11
    17da:	48 2b 45 f0          	sub    rax,QWORD PTR [rbp-0x10]
    17de:	48 89 c2             	mov    rdx,rax
    17e1:	48 8b 85 60 ff ff ff 	mov    rax,QWORD PTR [rbp-0xa0]
    17e8:	48 01 d0             	add    rax,rdx
    17eb:	c6 00 39             	mov    BYTE PTR [rax],0x39
    17ee:	48 8b 45 f0          	mov    rax,QWORD PTR [rbp-0x10]
    17f2:	48 8b 84 c5 70 ff ff 	mov    rax,QWORD PTR [rbp+rax*8-0x90]
    17f9:	ff 
    17fa:	48 83 f8 0a          	cmp    rax,0xa
    17fe:	75 19                	jne    0x1819
    1800:	b8 11 00 00 00       	mov    eax,0x11
    1805:	48 2b 45 f0          	sub    rax,QWORD PTR [rbp-0x10]
    1809:	48 89 c2             	mov    rdx,rax
    180c:	48 8b 85 60 ff ff ff 	mov    rax,QWORD PTR [rbp-0xa0]
    1813:	48 01 d0             	add    rax,rdx
    1816:	c6 00 61             	mov    BYTE PTR [rax],0x61
    1819:	48 8b 45 f0          	mov    rax,QWORD PTR [rbp-0x10]
    181d:	48 8b 84 c5 70 ff ff 	mov    rax,QWORD PTR [rbp+rax*8-0x90]
    1824:	ff 
    1825:	48 83 f8 0b          	cmp    rax,0xb
    1829:	75 19                	jne    0x1844
    182b:	b8 11 00 00 00       	mov    eax,0x11
    1830:	48 2b 45 f0          	sub    rax,QWORD PTR [rbp-0x10]
    1834:	48 89 c2             	mov    rdx,rax
    1837:	48 8b 85 60 ff ff ff 	mov    rax,QWORD PTR [rbp-0xa0]
    183e:	48 01 d0             	add    rax,rdx
    1841:	c6 00 62             	mov    BYTE PTR [rax],0x62
    1844:	48 8b 45 f0          	mov    rax,QWORD PTR [rbp-0x10]
    1848:	48 8b 84 c5 70 ff ff 	mov    rax,QWORD PTR [rbp+rax*8-0x90]
    184f:	ff 
    1850:	48 83 f8 0c          	cmp    rax,0xc
    1854:	75 19                	jne    0x186f
    1856:	b8 11 00 00 00       	mov    eax,0x11
    185b:	48 2b 45 f0          	sub    rax,QWORD PTR [rbp-0x10]
    185f:	48 89 c2             	mov    rdx,rax
    1862:	48 8b 85 60 ff ff ff 	mov    rax,QWORD PTR [rbp-0xa0]
    1869:	48 01 d0             	add    rax,rdx
    186c:	c6 00 63             	mov    BYTE PTR [rax],0x63
    186f:	48 8b 45 f0          	mov    rax,QWORD PTR [rbp-0x10]
    1873:	48 8b 84 c5 70 ff ff 	mov    rax,QWORD PTR [rbp+rax*8-0x90]
    187a:	ff 
    187b:	48 83 f8 0d          	cmp    rax,0xd
    187f:	75 19                	jne    0x189a
    1881:	b8 11 00 00 00       	mov    eax,0x11
    1886:	48 2b 45 f0          	sub    rax,QWORD PTR [rbp-0x10]
    188a:	48 89 c2             	mov    rdx,rax
    188d:	48 8b 85 60 ff ff ff 	mov    rax,QWORD PTR [rbp-0xa0]
    1894:	48 01 d0             	add    rax,rdx
    1897:	c6 00 64             	mov    BYTE PTR [rax],0x64
    189a:	48 8b 45 f0          	mov    rax,QWORD PTR [rbp-0x10]
    189e:	48 8b 84 c5 70 ff ff 	mov    rax,QWORD PTR [rbp+rax*8-0x90]
    18a5:	ff 
    18a6:	48 83 f8 0e          	cmp    rax,0xe
    18aa:	75 19                	jne    0x18c5
    18ac:	b8 11 00 00 00       	mov    eax,0x11
    18b1:	48 2b 45 f0          	sub    rax,QWORD PTR [rbp-0x10]
    18b5:	48 89 c2             	mov    rdx,rax
    18b8:	48 8b 85 60 ff ff ff 	mov    rax,QWORD PTR [rbp-0xa0]
    18bf:	48 01 d0             	add    rax,rdx
    18c2:	c6 00 65             	mov    BYTE PTR [rax],0x65
    18c5:	48 8b 45 f0          	mov    rax,QWORD PTR [rbp-0x10]
    18c9:	48 8b 84 c5 70 ff ff 	mov    rax,QWORD PTR [rbp+rax*8-0x90]
    18d0:	ff 
    18d1:	48 83 f8 0f          	cmp    rax,0xf
    18d5:	75 19                	jne    0x18f0
    18d7:	b8 11 00 00 00       	mov    eax,0x11
    18dc:	48 2b 45 f0          	sub    rax,QWORD PTR [rbp-0x10]
    18e0:	48 89 c2             	mov    rdx,rax
    18e3:	48 8b 85 60 ff ff ff 	mov    rax,QWORD PTR [rbp-0xa0]
    18ea:	48 01 d0             	add    rax,rdx
    18ed:	c6 00 66             	mov    BYTE PTR [rax],0x66
    18f0:	48 83 45 f0 01       	add    QWORD PTR [rbp-0x10],0x1
    18f5:	48 83 7d f0 0f       	cmp    QWORD PTR [rbp-0x10],0xf
    18fa:	0f 86 41 fd ff ff    	jbe    0x1641
    1900:	90                   	nop
    1901:	90                   	nop
    1902:	48 81 c4 a0 00 00 00 	add    rsp,0xa0
    1909:	5b                   	pop    rbx
    190a:	5d                   	pop    rbp
    190b:	c3                   	ret    
0x000000000011190c: demchar_to_u64
    190c:	55                   	push   rbp
    190d:	48 89 e5             	mov    rbp,rsp
    1910:	48 83 ec 08          	sub    rsp,0x8
    1914:	89 f8                	mov    eax,edi
    1916:	88 45 fc             	mov    BYTE PTR [rbp-0x4],al
    1919:	80 7d fc 30          	cmp    BYTE PTR [rbp-0x4],0x30
    191d:	75 07                	jne    0x1926
    191f:	b8 00 00 00 00       	mov    eax,0x0
    1924:	eb 7a                	jmp    0x19a0
    1926:	80 7d fc 31          	cmp    BYTE PTR [rbp-0x4],0x31
    192a:	75 07                	jne    0x1933
    192c:	b8 01 00 00 00       	mov    eax,0x1
    1931:	eb 6d                	jmp    0x19a0
    1933:	80 7d fc 32          	cmp    BYTE PTR [rbp-0x4],0x32
    1937:	75 07                	jne    0x1940
    1939:	b8 02 00 00 00       	mov    eax,0x2
    193e:	eb 60                	jmp    0x19a0
    1940:	80 7d fc 33          	cmp    BYTE PTR [rbp-0x4],0x33
    1944:	75 07                	jne    0x194d
    1946:	b8 03 00 00 00       	mov    eax,0x3
    194b:	eb 53                	jmp    0x19a0
    194d:	80 7d fc 34          	cmp    BYTE PTR [rbp-0x4],0x34
    1951:	75 07                	jne    0x195a
    1953:	b8 04 00 00 00       	mov    eax,0x4
    1958:	eb 46                	jmp    0x19a0
    195a:	80 7d fc 35          	cmp    BYTE PTR [rbp-0x4],0x35
    195e:	75 07                	jne    0x1967
    1960:	b8 05 00 00 00       	mov    eax,0x5
    1965:	eb 39                	jmp    0x19a0
    1967:	80 7d fc 36          	cmp    BYTE PTR [rbp-0x4],0x36
    196b:	75 07                	jne    0x1974
    196d:	b8 06 00 00 00       	mov    eax,0x6
    1972:	eb 2c                	jmp    0x19a0
    1974:	80 7d fc 37          	cmp    BYTE PTR [rbp-0x4],0x37
    1978:	75 07                	jne    0x1981
    197a:	b8 07 00 00 00       	mov    eax,0x7
    197f:	eb 1f                	jmp    0x19a0
    1981:	80 7d fc 38          	cmp    BYTE PTR [rbp-0x4],0x38
    1985:	75 07                	jne    0x198e
    1987:	b8 08 00 00 00       	mov    eax,0x8
    198c:	eb 12                	jmp    0x19a0
    198e:	80 7d fc 39          	cmp    BYTE PTR [rbp-0x4],0x39
    1992:	75 07                	jne    0x199b
    1994:	b8 09 00 00 00       	mov    eax,0x9
    1999:	eb 05                	jmp    0x19a0
    199b:	b8 00 00 00 00       	mov    eax,0x0
    19a0:	c9                   	leave  
    19a1:	c3                   	ret    
0x00000000001119a2: demstr_to_u64
    19a2:	55                   	push   rbp
    19a3:	48 89 e5             	mov    rbp,rsp
    19a6:	41 54                	push   r12
    19a8:	53                   	push   rbx
    19a9:	48 83 ec 40          	sub    rsp,0x40
    19ad:	48 89 7d b8          	mov    QWORD PTR [rbp-0x48],rdi
    19b1:	c6 45 df 00          	mov    BYTE PTR [rbp-0x21],0x0
    19b5:	48 c7 45 e0 00 00 00 	mov    QWORD PTR [rbp-0x20],0x0
    19bc:	00 
    19bd:	eb 0a                	jmp    0x19c9
    19bf:	0f b6 45 df          	movzx  eax,BYTE PTR [rbp-0x21]
    19c3:	83 c0 01             	add    eax,0x1
    19c6:	88 45 df             	mov    BYTE PTR [rbp-0x21],al
    19c9:	0f b6 55 df          	movzx  edx,BYTE PTR [rbp-0x21]
    19cd:	48 8b 45 b8          	mov    rax,QWORD PTR [rbp-0x48]
    19d1:	48 01 d0             	add    rax,rdx
    19d4:	0f b6 00             	movzx  eax,BYTE PTR [rax]
    19d7:	84 c0                	test   al,al
    19d9:	75 e4                	jne    0x19bf
    19db:	0f b6 45 df          	movzx  eax,BYTE PTR [rbp-0x21]
    19df:	48 89 e2             	mov    rdx,rsp
    19e2:	49 89 d4             	mov    r12,rdx
    19e5:	0f b6 d0             	movzx  edx,al
    19e8:	48 83 ea 01          	sub    rdx,0x1
    19ec:	48 89 55 d0          	mov    QWORD PTR [rbp-0x30],rdx
    19f0:	0f b6 d0             	movzx  edx,al
    19f3:	49 89 d0             	mov    r8,rdx
    19f6:	41 b9 00 00 00 00    	mov    r9d,0x0
    19fc:	0f b6 d0             	movzx  edx,al
    19ff:	48 89 d1             	mov    rcx,rdx
    1a02:	bb 00 00 00 00       	mov    ebx,0x0
    1a07:	0f b6 c0             	movzx  eax,al
    1a0a:	48 8d 14 c5 00 00 00 	lea    rdx,[rax*8+0x0]
    1a11:	00 
    1a12:	b8 10 00 00 00       	mov    eax,0x10
    1a17:	48 83 e8 01          	sub    rax,0x1
    1a1b:	48 01 d0             	add    rax,rdx
    1a1e:	be 10 00 00 00       	mov    esi,0x10
    1a23:	ba 00 00 00 00       	mov    edx,0x0
    1a28:	48 f7 f6             	div    rsi
    1a2b:	48 6b c0 10          	imul   rax,rax,0x10
    1a2f:	48 29 c4             	sub    rsp,rax
    1a32:	48 89 e0             	mov    rax,rsp
    1a35:	48 83 c0 07          	add    rax,0x7
    1a39:	48 c1 e8 03          	shr    rax,0x3
    1a3d:	48 c1 e0 03          	shl    rax,0x3
    1a41:	48 89 45 c8          	mov    QWORD PTR [rbp-0x38],rax
    1a45:	c7 45 e8 00 00 00 00 	mov    DWORD PTR [rbp-0x18],0x0
    1a4c:	eb 33                	jmp    0x1a81
    1a4e:	0f b6 45 df          	movzx  eax,BYTE PTR [rbp-0x21]
    1a52:	83 e8 01             	sub    eax,0x1
    1a55:	2b 45 e8             	sub    eax,DWORD PTR [rbp-0x18]
    1a58:	48 63 d0             	movsxd rdx,eax
    1a5b:	48 8b 45 b8          	mov    rax,QWORD PTR [rbp-0x48]
    1a5f:	48 01 d0             	add    rax,rdx
    1a62:	0f b6 00             	movzx  eax,BYTE PTR [rax]
    1a65:	0f be c0             	movsx  eax,al
    1a68:	89 c7                	mov    edi,eax
    1a6a:	e8 9d fe ff ff       	call   0x190c
    1a6f:	48 8b 55 c8          	mov    rdx,QWORD PTR [rbp-0x38]
    1a73:	8b 4d e8             	mov    ecx,DWORD PTR [rbp-0x18]
    1a76:	48 63 c9             	movsxd rcx,ecx
    1a79:	48 89 04 ca          	mov    QWORD PTR [rdx+rcx*8],rax
    1a7d:	83 45 e8 01          	add    DWORD PTR [rbp-0x18],0x1
    1a81:	0f b6 45 df          	movzx  eax,BYTE PTR [rbp-0x21]
    1a85:	39 45 e8             	cmp    DWORD PTR [rbp-0x18],eax
    1a88:	7c c4                	jl     0x1a4e
    1a8a:	c7 45 ec 00 00 00 00 	mov    DWORD PTR [rbp-0x14],0x0
    1a91:	eb 2c                	jmp    0x1abf
    1a93:	48 8b 45 c8          	mov    rax,QWORD PTR [rbp-0x38]
    1a97:	8b 55 ec             	mov    edx,DWORD PTR [rbp-0x14]
    1a9a:	48 63 d2             	movsxd rdx,edx
    1a9d:	48 8b 1c d0          	mov    rbx,QWORD PTR [rax+rdx*8]
    1aa1:	8b 45 ec             	mov    eax,DWORD PTR [rbp-0x14]
    1aa4:	48 98                	cdqe   
    1aa6:	48 89 c6             	mov    rsi,rax
    1aa9:	bf 0a 00 00 00       	mov    edi,0xa
    1aae:	e8 c0 f3 ff ff       	call   0xe73
    1ab3:	48 0f af c3          	imul   rax,rbx
    1ab7:	48 01 45 e0          	add    QWORD PTR [rbp-0x20],rax
    1abb:	83 45 ec 01          	add    DWORD PTR [rbp-0x14],0x1
    1abf:	0f b6 45 df          	movzx  eax,BYTE PTR [rbp-0x21]
    1ac3:	39 45 ec             	cmp    DWORD PTR [rbp-0x14],eax
    1ac6:	7c cb                	jl     0x1a93
    1ac8:	48 8b 45 e0          	mov    rax,QWORD PTR [rbp-0x20]
    1acc:	4c 89 e4             	mov    rsp,r12
    1acf:	48 8d 65 f0          	lea    rsp,[rbp-0x10]
    1ad3:	5b                   	pop    rbx
    1ad4:	41 5c                	pop    r12
    1ad6:	5d                   	pop    rbp
    1ad7:	c3                   	ret    
0x0000000000111ad8: null_to_space
    1ad8:	55                   	push   rbp
    1ad9:	48 89 e5             	mov    rbp,rsp
    1adc:	48 83 ec 20          	sub    rsp,0x20
    1ae0:	48 89 7d e8          	mov    QWORD PTR [rbp-0x18],rdi
    1ae4:	89 75 e4             	mov    DWORD PTR [rbp-0x1c],esi
    1ae7:	c7 45 fc 00 00 00 00 	mov    DWORD PTR [rbp-0x4],0x0
    1aee:	eb 28                	jmp    0x1b18
    1af0:	8b 45 fc             	mov    eax,DWORD PTR [rbp-0x4]
    1af3:	48 63 d0             	movsxd rdx,eax
    1af6:	48 8b 45 e8          	mov    rax,QWORD PTR [rbp-0x18]
    1afa:	48 01 d0             	add    rax,rdx
    1afd:	0f b6 00             	movzx  eax,BYTE PTR [rax]
    1b00:	84 c0                	test   al,al
    1b02:	75 10                	jne    0x1b14
    1b04:	8b 45 fc             	mov    eax,DWORD PTR [rbp-0x4]
    1b07:	48 63 d0             	movsxd rdx,eax
    1b0a:	48 8b 45 e8          	mov    rax,QWORD PTR [rbp-0x18]
    1b0e:	48 01 d0             	add    rax,rdx
    1b11:	c6 00 20             	mov    BYTE PTR [rax],0x20
    1b14:	83 45 fc 01          	add    DWORD PTR [rbp-0x4],0x1
    1b18:	8b 45 fc             	mov    eax,DWORD PTR [rbp-0x4]
    1b1b:	3b 45 e4             	cmp    eax,DWORD PTR [rbp-0x1c]
    1b1e:	7c d0                	jl     0x1af0
    1b20:	90                   	nop
    1b21:	90                   	nop
    1b22:	c9                   	leave  
    1b23:	c3                   	ret    
0x0000000000111b24: io_cli
    1b24:	fa                   	cli    
    1b25:	c3                   	ret    
0x0000000000111b26: io_sti
    1b26:	fb                   	sti    
    1b27:	c3                   	ret    
0x0000000000111b28: io_inb
    1b28:	48 89 fa             	mov    rdx,rdi
    1b2b:	ec                   	in     al,dx
    1b2c:	c3                   	ret    
0x0000000000111b2d: io_in32
    1b2d:	48 89 fa             	mov    rdx,rdi
    1b30:	ed                   	in     eax,dx
    1b31:	c3                   	ret    
0x0000000000111b32: io_outb
    1b32:	48 89 fa             	mov    rdx,rdi
    1b35:	48 89 f0             	mov    rax,rsi
    1b38:	ee                   	out    dx,al
    1b39:	c3                   	ret    
0x0000000000111b3a: io_out32
    1b3a:	48 89 fa             	mov    rdx,rdi
    1b3d:	48 89 f0             	mov    rax,rsi
    1b40:	ef                   	out    dx,eax
    1b41:	c3                   	ret    
0x0000000000111b42: io_rdmsr
    1b42:	48 89 f9             	mov    rcx,rdi
    1b45:	0f 32                	rdmsr  
    1b47:	48 c1 ea 20          	shr    rdx,0x20
    1b4b:	48 09 d0             	or     rax,rdx
    1b4e:	c3                   	ret    
0x0000000000111b4f: io_wrmsr
    1b4f:	48 89 fa             	mov    rdx,rdi
    1b52:	48 89 f0             	mov    rax,rsi
    1b55:	0f 30                	wrmsr  
    1b57:	c3                   	ret    
0x0000000000111b58: init_irq
    1b58:	b0 11                	mov    al,0x11
    1b5a:	e6 20                	out    0x20,al
    1b5c:	b0 20                	mov    al,0x20
    1b5e:	e6 21                	out    0x21,al
    1b60:	b0 04                	mov    al,0x4
    1b62:	e6 21                	out    0x21,al
    1b64:	b0 11                	mov    al,0x11
    1b66:	e6 a0                	out    0xa0,al
    1b68:	b0 28                	mov    al,0x28
    1b6a:	e6 a1                	out    0xa1,al
    1b6c:	b0 02                	mov    al,0x2
    1b6e:	e6 a1                	out    0xa1,al
    1b70:	b0 04                	mov    al,0x4
    1b72:	e6 21                	out    0x21,al
    1b74:	b0 02                	mov    al,0x2
    1b76:	e6 a1                	out    0xa1,al
    1b78:	b0 01                	mov    al,0x1
    1b7a:	e6 21                	out    0x21,al
    1b7c:	e6 a1                	out    0xa1,al
    1b7e:	c3                   	ret    
0x0000000000111b7f: send_eoi
    1b7f:	b0 20                	mov    al,0x20
    1b81:	e6 20                	out    0x20,al
    1b83:	c3                   	ret    
0x0000000000111b84: set_rflags
    1b84:	57                   	push   rdi
    1b85:	9d                   	popf   
    1b86:	c3                   	ret    
0x0000000000111b87: init_bss
    1b87:	55                   	push   rbp
    1b88:	48 89 e5             	mov    rbp,rsp
    1b8b:	48 83 ec 10          	sub    rsp,0x10
    1b8f:	48 8b 15 5a 69 03 00 	mov    rdx,QWORD PTR [rip+0x3695a]        # 0x384f0
    1b96:	48 8b 05 ab 62 00 00 	mov    rax,QWORD PTR [rip+0x62ab]        # 0x7e48
    1b9d:	48 29 c2             	sub    rdx,rax
    1ba0:	48 89 d0             	mov    rax,rdx
    1ba3:	48 c1 f8 02          	sar    rax,0x2
    1ba7:	89 45 f8             	mov    DWORD PTR [rbp-0x8],eax
    1baa:	c7 45 fc 00 00 00 00 	mov    DWORD PTR [rbp-0x4],0x0
    1bb1:	eb 1e                	jmp    0x1bd1
    1bb3:	48 8b 05 8e 62 00 00 	mov    rax,QWORD PTR [rip+0x628e]        # 0x7e48
    1bba:	8b 55 fc             	mov    edx,DWORD PTR [rbp-0x4]
    1bbd:	48 63 d2             	movsxd rdx,edx
    1bc0:	48 c1 e2 02          	shl    rdx,0x2
    1bc4:	48 01 d0             	add    rax,rdx
    1bc7:	c7 00 00 00 00 00    	mov    DWORD PTR [rax],0x0
    1bcd:	83 45 fc 01          	add    DWORD PTR [rbp-0x4],0x1
    1bd1:	8b 45 fc             	mov    eax,DWORD PTR [rbp-0x4]
    1bd4:	3b 45 f8             	cmp    eax,DWORD PTR [rbp-0x8]
    1bd7:	7c da                	jl     0x1bb3
    1bd9:	90                   	nop
    1bda:	90                   	nop
    1bdb:	c9                   	leave  
    1bdc:	c3                   	ret    
0x0000000000111bdd: init_global_variables
    1bdd:	55                   	push   rbp
    1bde:	48 89 e5             	mov    rbp,rsp
    1be1:	48 83 ec 08          	sub    rsp,0x8
    1be5:	48 89 7d f8          	mov    QWORD PTR [rbp-0x8],rdi
    1be9:	48 8b 45 f8          	mov    rax,QWORD PTR [rbp-0x8]
    1bed:	48 8b 40 20          	mov    rax,QWORD PTR [rax+0x20]
    1bf1:	48 89 05 58 62 00 00 	mov    QWORD PTR [rip+0x6258],rax        # 0x7e50
    1bf8:	48 8b 45 f8          	mov    rax,QWORD PTR [rbp-0x8]
    1bfc:	48 89 05 45 62 00 00 	mov    QWORD PTR [rip+0x6245],rax        # 0x7e48
    1c03:	48 8b 45 f8          	mov    rax,QWORD PTR [rbp-0x8]
    1c07:	48 8b 40 28          	mov    rax,QWORD PTR [rax+0x28]
    1c0b:	48 89 05 46 62 00 00 	mov    QWORD PTR [rip+0x6246],rax        # 0x7e58
    1c12:	48 8b 45 f8          	mov    rax,QWORD PTR [rbp-0x8]
    1c16:	48 8b 40 30          	mov    rax,QWORD PTR [rax+0x30]
    1c1a:	48 89 05 3f 62 00 00 	mov    QWORD PTR [rip+0x623f],rax        # 0x7e60
    1c21:	48 8b 45 f8          	mov    rax,QWORD PTR [rbp-0x8]
    1c25:	48 8b 40 38          	mov    rax,QWORD PTR [rax+0x38]
    1c29:	48 89 05 38 62 00 00 	mov    QWORD PTR [rip+0x6238],rax        # 0x7e68
    1c30:	90                   	nop
    1c31:	c9                   	leave  
    1c32:	c3                   	ret    
0x0000000000111c33: init_gdt
    1c33:	55                   	push   rbp
    1c34:	48 89 e5             	mov    rbp,rsp
    1c37:	53                   	push   rbx
    1c38:	48 83 ec 08          	sub    rsp,0x8
    1c3c:	48 8b 1d ad 5b 00 00 	mov    rbx,QWORD PTR [rip+0x5bad]        # 0x77f0
    1c43:	ba 01 00 00 00       	mov    edx,0x1
    1c48:	be 00 00 00 00       	mov    esi,0x0
    1c4d:	bf 00 00 00 00       	mov    edi,0x0
    1c52:	e8 80 05 00 00       	call   0x21d7
    1c57:	48 89 03             	mov    QWORD PTR [rbx],rax
    1c5a:	48 8b 05 8f 5b 00 00 	mov    rax,QWORD PTR [rip+0x5b8f]        # 0x77f0
    1c61:	48 8d 58 08          	lea    rbx,[rax+0x8]
    1c65:	ba 00 00 00 00       	mov    edx,0x0
    1c6a:	be 00 00 00 00       	mov    esi,0x0
    1c6f:	bf 05 00 00 00       	mov    edi,0x5
    1c74:	e8 5e 05 00 00       	call   0x21d7
    1c79:	48 89 03             	mov    QWORD PTR [rbx],rax
    1c7c:	48 8b 05 6d 5b 00 00 	mov    rax,QWORD PTR [rip+0x5b6d]        # 0x77f0
    1c83:	48 8d 58 10          	lea    rbx,[rax+0x10]
    1c87:	ba 00 00 00 00       	mov    edx,0x0
    1c8c:	be 00 00 00 00       	mov    esi,0x0
    1c91:	bf 01 00 00 00       	mov    edi,0x1
    1c96:	e8 3c 05 00 00       	call   0x21d7
    1c9b:	48 89 03             	mov    QWORD PTR [rbx],rax
    1c9e:	48 8b 05 4b 5b 00 00 	mov    rax,QWORD PTR [rip+0x5b4b]        # 0x77f0
    1ca5:	be 18 00 00 00       	mov    esi,0x18
    1caa:	48 89 c7             	mov    rdi,rax
    1cad:	e8 fa 07 00 00       	call   0x24ac
    1cb2:	bf 08 00 00 00       	mov    edi,0x8
    1cb7:	e8 08 08 00 00       	call   0x24c4
    1cbc:	90                   	nop
    1cbd:	48 83 c4 08          	add    rsp,0x8
    1cc1:	5b                   	pop    rbx
    1cc2:	5d                   	pop    rbp
    1cc3:	c3                   	ret    
0x0000000000111cc4: init_paging
    1cc4:	55                   	push   rbp
    1cc5:	48 89 e5             	mov    rbp,rsp
    1cc8:	48 8b 15 39 5b 00 00 	mov    rdx,QWORD PTR [rip+0x5b39]        # 0x7808
    1ccf:	48 8b 0d 2a 5b 00 00 	mov    rcx,QWORD PTR [rip+0x5b2a]        # 0x7800
    1cd6:	48 8b 05 1b 5b 00 00 	mov    rax,QWORD PTR [rip+0x5b1b]        # 0x77f8
    1cdd:	48 89 ce             	mov    rsi,rcx
    1ce0:	48 89 c7             	mov    rdi,rax
    1ce3:	e8 42 05 00 00       	call   0x222a
    1ce8:	48 8b 05 09 5b 00 00 	mov    rax,QWORD PTR [rip+0x5b09]        # 0x77f8
    1cef:	48 89 c7             	mov    rdi,rax
    1cf2:	e8 aa 07 00 00       	call   0x24a1
    1cf7:	90                   	nop
    1cf8:	5d                   	pop    rbp
    1cf9:	c3                   	ret    
0x0000000000111cfa: init_graphics
    1cfa:	55                   	push   rbp
    1cfb:	48 89 e5             	mov    rbp,rsp
    1cfe:	48 83 ec 20          	sub    rsp,0x20
    1d02:	48 8b 05 3f 61 00 00 	mov    rax,QWORD PTR [rip+0x613f]        # 0x7e48
    1d09:	8b 40 10             	mov    eax,DWORD PTR [rax+0x10]
    1d0c:	89 45 f4             	mov    DWORD PTR [rbp-0xc],eax
    1d0f:	48 8b 05 32 61 00 00 	mov    rax,QWORD PTR [rip+0x6132]        # 0x7e48
    1d16:	8b 40 14             	mov    eax,DWORD PTR [rax+0x14]
    1d19:	89 45 f0             	mov    DWORD PTR [rbp-0x10],eax
    1d1c:	48 8b 05 25 61 00 00 	mov    rax,QWORD PTR [rip+0x6125]        # 0x7e48
    1d23:	8b 40 18             	mov    eax,DWORD PTR [rax+0x18]
    1d26:	89 45 ec             	mov    DWORD PTR [rbp-0x14],eax
    1d29:	48 8b 05 18 61 00 00 	mov    rax,QWORD PTR [rip+0x6118]        # 0x7e48
    1d30:	48 8b 00             	mov    rax,QWORD PTR [rax]
    1d33:	48 89 45 e0          	mov    QWORD PTR [rbp-0x20],rax
    1d37:	c7 45 fc 00 00 00 00 	mov    DWORD PTR [rbp-0x4],0x0
    1d3e:	eb 40                	jmp    0x1d80
    1d40:	c7 45 f8 00 00 00 00 	mov    DWORD PTR [rbp-0x8],0x0
    1d47:	eb 2b                	jmp    0x1d74
    1d49:	8b 45 fc             	mov    eax,DWORD PTR [rbp-0x4]
    1d4c:	0f af 45 ec          	imul   eax,DWORD PTR [rbp-0x14]
    1d50:	89 c2                	mov    edx,eax
    1d52:	8b 45 f8             	mov    eax,DWORD PTR [rbp-0x8]
    1d55:	01 d0                	add    eax,edx
    1d57:	89 c0                	mov    eax,eax
    1d59:	48 8d 14 85 00 00 00 	lea    rdx,[rax*4+0x0]
    1d60:	00 
    1d61:	48 8b 45 e0          	mov    rax,QWORD PTR [rbp-0x20]
    1d65:	48 01 c2             	add    rdx,rax
    1d68:	8b 05 a2 60 00 00    	mov    eax,DWORD PTR [rip+0x60a2]        # 0x7e10
    1d6e:	89 02                	mov    DWORD PTR [rdx],eax
    1d70:	83 45 f8 01          	add    DWORD PTR [rbp-0x8],0x1
    1d74:	8b 45 f8             	mov    eax,DWORD PTR [rbp-0x8]
    1d77:	3b 45 f4             	cmp    eax,DWORD PTR [rbp-0xc]
    1d7a:	72 cd                	jb     0x1d49
    1d7c:	83 45 fc 01          	add    DWORD PTR [rbp-0x4],0x1
    1d80:	8b 45 fc             	mov    eax,DWORD PTR [rbp-0x4]
    1d83:	3b 45 f0             	cmp    eax,DWORD PTR [rbp-0x10]
    1d86:	72 b8                	jb     0x1d40
    1d88:	90                   	nop
    1d89:	90                   	nop
    1d8a:	c9                   	leave  
    1d8b:	c3                   	ret    
0x0000000000111d8c: init_interrupt
    1d8c:	55                   	push   rbp
    1d8d:	48 89 e5             	mov    rbp,rsp
    1d90:	53                   	push   rbx
    1d91:	48 83 ec 18          	sub    rsp,0x18
    1d95:	c7 45 ec 00 00 00 00 	mov    DWORD PTR [rbp-0x14],0x0
    1d9c:	eb 39                	jmp    0x1dd7
    1d9e:	bf 88 43 11 00       	mov    edi,0x114388
    1da3:	48 8b 05 66 5a 00 00 	mov    rax,QWORD PTR [rip+0x5a66]        # 0x7810
    1daa:	8b 55 ec             	mov    edx,DWORD PTR [rbp-0x14]
    1dad:	48 63 d2             	movsxd rdx,edx
    1db0:	48 c1 e2 04          	shl    rdx,0x4
    1db4:	48 8d 1c 10          	lea    rbx,[rax+rdx*1]
    1db8:	b9 00 00 00 00       	mov    ecx,0x0
    1dbd:	ba 00 00 00 00       	mov    edx,0x0
    1dc2:	be 00 00 00 00       	mov    esi,0x0
    1dc7:	e8 8f 07 00 00       	call   0x255b
    1dcc:	48 89 03             	mov    QWORD PTR [rbx],rax
    1dcf:	48 89 53 08          	mov    QWORD PTR [rbx+0x8],rdx
    1dd3:	83 45 ec 01          	add    DWORD PTR [rbp-0x14],0x1
    1dd7:	81 7d ec ff 00 00 00 	cmp    DWORD PTR [rbp-0x14],0xff
    1dde:	7e be                	jle    0x1d9e
    1de0:	b8 91 26 11 00       	mov    eax,0x112691
    1de5:	48 8b 1d 24 5a 00 00 	mov    rbx,QWORD PTR [rip+0x5a24]        # 0x7810
    1dec:	b9 00 00 00 00       	mov    ecx,0x0
    1df1:	ba 00 00 00 00       	mov    edx,0x0
    1df6:	be 00 00 00 00       	mov    esi,0x0
    1dfb:	48 89 c7             	mov    rdi,rax
    1dfe:	e8 58 07 00 00       	call   0x255b
    1e03:	48 89 03             	mov    QWORD PTR [rbx],rax
    1e06:	48 89 53 08          	mov    QWORD PTR [rbx+0x8],rdx
    1e0a:	bf 9f 27 11 00       	mov    edi,0x11279f
    1e0f:	48 8b 05 fa 59 00 00 	mov    rax,QWORD PTR [rip+0x59fa]        # 0x7810
    1e16:	48 8d 58 10          	lea    rbx,[rax+0x10]
    1e1a:	b9 00 00 00 00       	mov    ecx,0x0
    1e1f:	ba 00 00 00 00       	mov    edx,0x0
    1e24:	be 00 00 00 00       	mov    esi,0x0
    1e29:	e8 2d 07 00 00       	call   0x255b
    1e2e:	48 89 03             	mov    QWORD PTR [rbx],rax
    1e31:	48 89 53 08          	mov    QWORD PTR [rbx+0x8],rdx
    1e35:	bf ad 28 11 00       	mov    edi,0x1128ad
    1e3a:	48 8b 05 cf 59 00 00 	mov    rax,QWORD PTR [rip+0x59cf]        # 0x7810
    1e41:	48 8d 58 20          	lea    rbx,[rax+0x20]
    1e45:	b9 00 00 00 00       	mov    ecx,0x0
    1e4a:	ba 00 00 00 00       	mov    edx,0x0
    1e4f:	be 00 00 00 00       	mov    esi,0x0
    1e54:	e8 02 07 00 00       	call   0x255b
    1e59:	48 89 03             	mov    QWORD PTR [rbx],rax
    1e5c:	48 89 53 08          	mov    QWORD PTR [rbx+0x8],rdx
    1e60:	bf bb 29 11 00       	mov    edi,0x1129bb
    1e65:	48 8b 05 a4 59 00 00 	mov    rax,QWORD PTR [rip+0x59a4]        # 0x7810
    1e6c:	48 8d 58 30          	lea    rbx,[rax+0x30]
    1e70:	b9 00 00 00 00       	mov    ecx,0x0
    1e75:	ba 00 00 00 00       	mov    edx,0x0
    1e7a:	be 00 00 00 00       	mov    esi,0x0
    1e7f:	e8 d7 06 00 00       	call   0x255b
    1e84:	48 89 03             	mov    QWORD PTR [rbx],rax
    1e87:	48 89 53 08          	mov    QWORD PTR [rbx+0x8],rdx
    1e8b:	bf 3a 2d 11 00       	mov    edi,0x112d3a
    1e90:	48 8b 05 79 59 00 00 	mov    rax,QWORD PTR [rip+0x5979]        # 0x7810
    1e97:	48 8d 58 40          	lea    rbx,[rax+0x40]
    1e9b:	b9 00 00 00 00       	mov    ecx,0x0
    1ea0:	ba 00 00 00 00       	mov    edx,0x0
    1ea5:	be 00 00 00 00       	mov    esi,0x0
    1eaa:	e8 ac 06 00 00       	call   0x255b
    1eaf:	48 89 03             	mov    QWORD PTR [rbx],rax
    1eb2:	48 89 53 08          	mov    QWORD PTR [rbx+0x8],rdx
    1eb6:	bf 48 2e 11 00       	mov    edi,0x112e48
    1ebb:	48 8b 05 4e 59 00 00 	mov    rax,QWORD PTR [rip+0x594e]        # 0x7810
    1ec2:	48 8d 58 50          	lea    rbx,[rax+0x50]
    1ec6:	b9 00 00 00 00       	mov    ecx,0x0
    1ecb:	ba 00 00 00 00       	mov    edx,0x0
    1ed0:	be 00 00 00 00       	mov    esi,0x0
    1ed5:	e8 81 06 00 00       	call   0x255b
    1eda:	48 89 03             	mov    QWORD PTR [rbx],rax
    1edd:	48 89 53 08          	mov    QWORD PTR [rbx+0x8],rdx
    1ee1:	bf 56 2f 11 00       	mov    edi,0x112f56
    1ee6:	48 8b 05 23 59 00 00 	mov    rax,QWORD PTR [rip+0x5923]        # 0x7810
    1eed:	48 8d 58 60          	lea    rbx,[rax+0x60]
    1ef1:	b9 00 00 00 00       	mov    ecx,0x0
    1ef6:	ba 00 00 00 00       	mov    edx,0x0
    1efb:	be 00 00 00 00       	mov    esi,0x0
    1f00:	e8 56 06 00 00       	call   0x255b
    1f05:	48 89 03             	mov    QWORD PTR [rbx],rax
    1f08:	48 89 53 08          	mov    QWORD PTR [rbx+0x8],rdx
    1f0c:	bf c0 32 11 00       	mov    edi,0x1132c0
    1f11:	48 8b 05 f8 58 00 00 	mov    rax,QWORD PTR [rip+0x58f8]        # 0x7810
    1f18:	48 8d 58 70          	lea    rbx,[rax+0x70]
    1f1c:	b9 00 00 00 00       	mov    ecx,0x0
    1f21:	ba 00 00 00 00       	mov    edx,0x0
    1f26:	be 00 00 00 00       	mov    esi,0x0
    1f2b:	e8 2b 06 00 00       	call   0x255b
    1f30:	48 89 03             	mov    QWORD PTR [rbx],rax
    1f33:	48 89 53 08          	mov    QWORD PTR [rbx+0x8],rdx
    1f37:	bf ce 33 11 00       	mov    edi,0x1133ce
    1f3c:	48 8b 05 cd 58 00 00 	mov    rax,QWORD PTR [rip+0x58cd]        # 0x7810
    1f43:	48 8d 98 80 00 00 00 	lea    rbx,[rax+0x80]
    1f4a:	b9 00 00 00 00       	mov    ecx,0x0
    1f4f:	ba 00 00 00 00       	mov    edx,0x0
    1f54:	be 00 00 00 00       	mov    esi,0x0
    1f59:	e8 fd 05 00 00       	call   0x255b
    1f5e:	48 89 03             	mov    QWORD PTR [rbx],rax
    1f61:	48 89 53 08          	mov    QWORD PTR [rbx+0x8],rdx
    1f65:	bf fa 34 11 00       	mov    edi,0x1134fa
    1f6a:	48 8b 05 9f 58 00 00 	mov    rax,QWORD PTR [rip+0x589f]        # 0x7810
    1f71:	48 8d 98 a0 00 00 00 	lea    rbx,[rax+0xa0]
    1f78:	b9 00 00 00 00       	mov    ecx,0x0
    1f7d:	ba 00 00 00 00       	mov    edx,0x0
    1f82:	be 00 00 00 00       	mov    esi,0x0
    1f87:	e8 cf 05 00 00       	call   0x255b
    1f8c:	48 89 03             	mov    QWORD PTR [rbx],rax
    1f8f:	48 89 53 08          	mov    QWORD PTR [rbx+0x8],rdx
    1f93:	bf 26 36 11 00       	mov    edi,0x113626
    1f98:	48 8b 05 71 58 00 00 	mov    rax,QWORD PTR [rip+0x5871]        # 0x7810
    1f9f:	48 8d 98 b0 00 00 00 	lea    rbx,[rax+0xb0]
    1fa6:	b9 00 00 00 00       	mov    ecx,0x0
    1fab:	ba 00 00 00 00       	mov    edx,0x0
    1fb0:	be 00 00 00 00       	mov    esi,0x0
    1fb5:	e8 a1 05 00 00       	call   0x255b
    1fba:	48 89 03             	mov    QWORD PTR [rbx],rax
    1fbd:	48 89 53 08          	mov    QWORD PTR [rbx+0x8],rdx
    1fc1:	bf 52 37 11 00       	mov    edi,0x113752
    1fc6:	48 8b 05 43 58 00 00 	mov    rax,QWORD PTR [rip+0x5843]        # 0x7810
    1fcd:	48 8d 98 c0 00 00 00 	lea    rbx,[rax+0xc0]
    1fd4:	b9 00 00 00 00       	mov    ecx,0x0
    1fd9:	ba 00 00 00 00       	mov    edx,0x0
    1fde:	be 00 00 00 00       	mov    esi,0x0
    1fe3:	e8 73 05 00 00       	call   0x255b
    1fe8:	48 89 03             	mov    QWORD PTR [rbx],rax
    1feb:	48 89 53 08          	mov    QWORD PTR [rbx+0x8],rdx
    1fef:	bf 7e 38 11 00       	mov    edi,0x11387e
    1ff4:	48 8b 05 15 58 00 00 	mov    rax,QWORD PTR [rip+0x5815]        # 0x7810
    1ffb:	48 8d 98 d0 00 00 00 	lea    rbx,[rax+0xd0]
    2002:	b9 00 00 00 00       	mov    ecx,0x0
    2007:	ba 00 00 00 00       	mov    edx,0x0
    200c:	be 00 00 00 00       	mov    esi,0x0
    2011:	e8 45 05 00 00       	call   0x255b
    2016:	48 89 03             	mov    QWORD PTR [rbx],rax
    2019:	48 89 53 08          	mov    QWORD PTR [rbx+0x8],rdx
    201d:	bf aa 39 11 00       	mov    edi,0x1139aa
    2022:	48 8b 05 e7 57 00 00 	mov    rax,QWORD PTR [rip+0x57e7]        # 0x7810
    2029:	48 8d 98 e0 00 00 00 	lea    rbx,[rax+0xe0]
    2030:	b9 00 00 00 00       	mov    ecx,0x0
    2035:	ba 00 00 00 00       	mov    edx,0x0
    203a:	be 00 00 00 00       	mov    esi,0x0
    203f:	e8 17 05 00 00       	call   0x255b
    2044:	48 89 03             	mov    QWORD PTR [rbx],rax
    2047:	48 89 53 08          	mov    QWORD PTR [rbx+0x8],rdx
    204b:	bf 25 3d 11 00       	mov    edi,0x113d25
    2050:	48 8b 05 b9 57 00 00 	mov    rax,QWORD PTR [rip+0x57b9]        # 0x7810
    2057:	48 8d 98 00 01 00 00 	lea    rbx,[rax+0x100]
    205e:	b9 00 00 00 00       	mov    ecx,0x0
    2063:	ba 00 00 00 00       	mov    edx,0x0
    2068:	be 00 00 00 00       	mov    esi,0x0
    206d:	e8 e9 04 00 00       	call   0x255b
    2072:	48 89 03             	mov    QWORD PTR [rbx],rax
    2075:	48 89 53 08          	mov    QWORD PTR [rbx+0x8],rdx
    2079:	bf 33 3e 11 00       	mov    edi,0x113e33
    207e:	48 8b 05 8b 57 00 00 	mov    rax,QWORD PTR [rip+0x578b]        # 0x7810
    2085:	48 8d 98 10 01 00 00 	lea    rbx,[rax+0x110]
    208c:	b9 00 00 00 00       	mov    ecx,0x0
    2091:	ba 00 00 00 00       	mov    edx,0x0
    2096:	be 00 00 00 00       	mov    esi,0x0
    209b:	e8 bb 04 00 00       	call   0x255b
    20a0:	48 89 03             	mov    QWORD PTR [rbx],rax
    20a3:	48 89 53 08          	mov    QWORD PTR [rbx+0x8],rdx
    20a7:	bf 5f 3f 11 00       	mov    edi,0x113f5f
    20ac:	48 8b 05 5d 57 00 00 	mov    rax,QWORD PTR [rip+0x575d]        # 0x7810
    20b3:	48 8d 98 20 01 00 00 	lea    rbx,[rax+0x120]
    20ba:	b9 00 00 00 00       	mov    ecx,0x0
    20bf:	ba 00 00 00 00       	mov    edx,0x0
    20c4:	be 00 00 00 00       	mov    esi,0x0
    20c9:	e8 8d 04 00 00       	call   0x255b
    20ce:	48 89 03             	mov    QWORD PTR [rbx],rax
    20d1:	48 89 53 08          	mov    QWORD PTR [rbx+0x8],rdx
    20d5:	bf 6d 40 11 00       	mov    edi,0x11406d
    20da:	48 8b 05 2f 57 00 00 	mov    rax,QWORD PTR [rip+0x572f]        # 0x7810
    20e1:	48 8d 98 30 01 00 00 	lea    rbx,[rax+0x130]
    20e8:	b9 00 00 00 00       	mov    ecx,0x0
    20ed:	ba 00 00 00 00       	mov    edx,0x0
    20f2:	be 00 00 00 00       	mov    esi,0x0
    20f7:	e8 5f 04 00 00       	call   0x255b
    20fc:	48 89 03             	mov    QWORD PTR [rbx],rax
    20ff:	48 89 53 08          	mov    QWORD PTR [rbx+0x8],rdx
    2103:	bf 7b 41 11 00       	mov    edi,0x11417b
    2108:	48 8b 05 01 57 00 00 	mov    rax,QWORD PTR [rip+0x5701]        # 0x7810
    210f:	48 8d 98 00 02 00 00 	lea    rbx,[rax+0x200]
    2116:	b9 00 00 00 00       	mov    ecx,0x0
    211b:	ba 00 00 00 00       	mov    edx,0x0
    2120:	be 00 00 00 00       	mov    esi,0x0
    2125:	e8 31 04 00 00       	call   0x255b
    212a:	48 89 03             	mov    QWORD PTR [rbx],rax
    212d:	48 89 53 08          	mov    QWORD PTR [rbx+0x8],rdx
    2131:	bf 48 42 11 00       	mov    edi,0x114248
    2136:	48 8b 05 d3 56 00 00 	mov    rax,QWORD PTR [rip+0x56d3]        # 0x7810
    213d:	48 8d 98 10 02 00 00 	lea    rbx,[rax+0x210]
    2144:	b9 00 00 00 00       	mov    ecx,0x0
    2149:	ba 00 00 00 00       	mov    edx,0x0
    214e:	be 00 00 00 00       	mov    esi,0x0
    2153:	e8 03 04 00 00       	call   0x255b
    2158:	48 89 03             	mov    QWORD PTR [rbx],rax
    215b:	48 89 53 08          	mov    QWORD PTR [rbx+0x8],rdx
    215f:	bf b8 42 11 00       	mov    edi,0x1142b8
    2164:	48 8b 05 a5 56 00 00 	mov    rax,QWORD PTR [rip+0x56a5]        # 0x7810
    216b:	48 8d 98 40 02 00 00 	lea    rbx,[rax+0x240]
    2172:	b9 00 00 00 00       	mov    ecx,0x0
    2177:	ba 00 00 00 00       	mov    edx,0x0
    217c:	be 00 00 00 00       	mov    esi,0x0
    2181:	e8 d5 03 00 00       	call   0x255b
    2186:	48 89 03             	mov    QWORD PTR [rbx],rax
    2189:	48 89 53 08          	mov    QWORD PTR [rbx+0x8],rdx
    218d:	bf 2d 43 11 00       	mov    edi,0x11432d
    2192:	48 8b 05 77 56 00 00 	mov    rax,QWORD PTR [rip+0x5677]        # 0x7810
    2199:	48 8d 98 c0 02 00 00 	lea    rbx,[rax+0x2c0]
    21a0:	b9 00 00 00 00       	mov    ecx,0x0
    21a5:	ba 00 00 00 00       	mov    edx,0x0
    21aa:	be 00 00 00 00       	mov    esi,0x0
    21af:	e8 a7 03 00 00       	call   0x255b
    21b4:	48 89 03             	mov    QWORD PTR [rbx],rax
    21b7:	48 89 53 08          	mov    QWORD PTR [rbx+0x8],rdx
    21bb:	48 8b 05 4e 56 00 00 	mov    rax,QWORD PTR [rip+0x564e]        # 0x7810
    21c2:	be ff 0f 00 00       	mov    esi,0xfff
    21c7:	48 89 c7             	mov    rdi,rax
    21ca:	e8 74 03 00 00       	call   0x2543
    21cf:	90                   	nop
    21d0:	48 83 c4 18          	add    rsp,0x18
    21d4:	5b                   	pop    rbx
    21d5:	5d                   	pop    rbp
    21d6:	c3                   	ret    
0x00000000001121d7: make_segment_descriptor
    21d7:	55                   	push   rbp
    21d8:	48 89 e5             	mov    rbp,rsp
    21db:	48 83 ec 20          	sub    rsp,0x20
    21df:	89 7d ec             	mov    DWORD PTR [rbp-0x14],edi
    21e2:	89 75 e8             	mov    DWORD PTR [rbp-0x18],esi
    21e5:	89 55 e4             	mov    DWORD PTR [rbp-0x1c],edx
    21e8:	48 c7 45 f8 00 00 00 	mov    QWORD PTR [rbp-0x8],0x0
    21ef:	00 
    21f0:	8b 45 ec             	mov    eax,DWORD PTR [rbp-0x14]
    21f3:	48 c1 e0 29          	shl    rax,0x29
    21f7:	48 09 45 f8          	or     QWORD PTR [rbp-0x8],rax
    21fb:	8b 45 e8             	mov    eax,DWORD PTR [rbp-0x18]
    21fe:	48 c1 e0 2d          	shl    rax,0x2d
    2202:	48 09 45 f8          	or     QWORD PTR [rbp-0x8],rax
    2206:	83 7d e4 00          	cmp    DWORD PTR [rbp-0x1c],0x0
    220a:	75 10                	jne    0x221c
    220c:	48 b8 00 00 00 00 00 	movabs rax,0xa0900000000000
    2213:	90 a0 00 
    2216:	48 09 45 f8          	or     QWORD PTR [rbp-0x8],rax
    221a:	eb 08                	jmp    0x2224
    221c:	48 c7 45 f8 00 00 00 	mov    QWORD PTR [rbp-0x8],0x0
    2223:	00 
    2224:	48 8b 45 f8          	mov    rax,QWORD PTR [rbp-0x8]
    2228:	c9                   	leave  
    2229:	c3                   	ret    
0x000000000011222a: create_pgtable
    222a:	55                   	push   rbp
    222b:	48 89 e5             	mov    rbp,rsp
    222e:	48 83 ec 28          	sub    rsp,0x28
    2232:	48 89 7d e8          	mov    QWORD PTR [rbp-0x18],rdi
    2236:	48 89 75 e0          	mov    QWORD PTR [rbp-0x20],rsi
    223a:	48 89 55 d8          	mov    QWORD PTR [rbp-0x28],rdx
    223e:	c7 45 fc 00 00 00 00 	mov    DWORD PTR [rbp-0x4],0x0
    2245:	eb 3a                	jmp    0x2281
    2247:	8b 45 fc             	mov    eax,DWORD PTR [rbp-0x4]
    224a:	48 98                	cdqe   
    224c:	48 8d 14 c5 00 00 00 	lea    rdx,[rax*8+0x0]
    2253:	00 
    2254:	48 8b 45 e8          	mov    rax,QWORD PTR [rbp-0x18]
    2258:	48 01 d0             	add    rax,rdx
    225b:	48 c7 00 00 00 00 00 	mov    QWORD PTR [rax],0x0
    2262:	8b 45 fc             	mov    eax,DWORD PTR [rbp-0x4]
    2265:	48 98                	cdqe   
    2267:	48 8d 14 c5 00 00 00 	lea    rdx,[rax*8+0x0]
    226e:	00 
    226f:	48 8b 45 e0          	mov    rax,QWORD PTR [rbp-0x20]
    2273:	48 01 d0             	add    rax,rdx
    2276:	48 c7 00 00 00 00 00 	mov    QWORD PTR [rax],0x0
    227d:	83 45 fc 01          	add    DWORD PTR [rbp-0x4],0x1
    2281:	81 7d fc ff 01 00 00 	cmp    DWORD PTR [rbp-0x4],0x1ff
    2288:	7e bd                	jle    0x2247
    228a:	c7 45 fc 00 00 00 00 	mov    DWORD PTR [rbp-0x4],0x0
    2291:	eb 1f                	jmp    0x22b2
    2293:	8b 45 fc             	mov    eax,DWORD PTR [rbp-0x4]
    2296:	48 98                	cdqe   
    2298:	48 8d 14 c5 00 00 00 	lea    rdx,[rax*8+0x0]
    229f:	00 
    22a0:	48 8b 45 d8          	mov    rax,QWORD PTR [rbp-0x28]
    22a4:	48 01 d0             	add    rax,rdx
    22a7:	48 c7 00 00 00 00 00 	mov    QWORD PTR [rax],0x0
    22ae:	83 45 fc 01          	add    DWORD PTR [rbp-0x4],0x1
    22b2:	81 7d fc ff 1f 00 00 	cmp    DWORD PTR [rbp-0x4],0x1fff
    22b9:	7e d8                	jle    0x2293
    22bb:	c7 45 fc 00 00 00 00 	mov    DWORD PTR [rbp-0x4],0x0
    22c2:	eb 2a                	jmp    0x22ee
    22c4:	8b 45 fc             	mov    eax,DWORD PTR [rbp-0x4]
    22c7:	48 98                	cdqe   
    22c9:	48 c1 e0 15          	shl    rax,0x15
    22cd:	48 89 c2             	mov    rdx,rax
    22d0:	8b 45 fc             	mov    eax,DWORD PTR [rbp-0x4]
    22d3:	48 98                	cdqe   
    22d5:	48 8d 0c c5 00 00 00 	lea    rcx,[rax*8+0x0]
    22dc:	00 
    22dd:	48 8b 45 d8          	mov    rax,QWORD PTR [rbp-0x28]
    22e1:	48 01 c8             	add    rax,rcx
    22e4:	80 ca 83             	or     dl,0x83
    22e7:	48 89 10             	mov    QWORD PTR [rax],rdx
    22ea:	83 45 fc 01          	add    DWORD PTR [rbp-0x4],0x1
    22ee:	81 7d fc ff 1f 00 00 	cmp    DWORD PTR [rbp-0x4],0x1fff
    22f5:	7e cd                	jle    0x22c4
    22f7:	c7 45 fc 00 00 00 00 	mov    DWORD PTR [rbp-0x4],0x0
    22fe:	eb 3c                	jmp    0x233c
    2300:	8b 45 fc             	mov    eax,DWORD PTR [rbp-0x4]
    2303:	c1 e0 09             	shl    eax,0x9
    2306:	48 98                	cdqe   
    2308:	48 8d 14 c5 00 00 00 	lea    rdx,[rax*8+0x0]
    230f:	00 
    2310:	48 8b 45 d8          	mov    rax,QWORD PTR [rbp-0x28]
    2314:	48 01 d0             	add    rax,rdx
    2317:	48 89 c1             	mov    rcx,rax
    231a:	8b 45 fc             	mov    eax,DWORD PTR [rbp-0x4]
    231d:	48 98                	cdqe   
    231f:	48 8d 14 c5 00 00 00 	lea    rdx,[rax*8+0x0]
    2326:	00 
    2327:	48 8b 45 e0          	mov    rax,QWORD PTR [rbp-0x20]
    232b:	48 01 d0             	add    rax,rdx
    232e:	48 83 c9 03          	or     rcx,0x3
    2332:	48 89 ca             	mov    rdx,rcx
    2335:	48 89 10             	mov    QWORD PTR [rax],rdx
    2338:	83 45 fc 01          	add    DWORD PTR [rbp-0x4],0x1
    233c:	83 7d fc 0f          	cmp    DWORD PTR [rbp-0x4],0xf
    2340:	7e be                	jle    0x2300
    2342:	48 8b 45 e0          	mov    rax,QWORD PTR [rbp-0x20]
    2346:	48 83 c8 03          	or     rax,0x3
    234a:	48 89 c2             	mov    rdx,rax
    234d:	48 8b 45 e8          	mov    rax,QWORD PTR [rbp-0x18]
    2351:	48 89 10             	mov    QWORD PTR [rax],rdx
    2354:	90                   	nop
    2355:	c9                   	leave  
    2356:	c3                   	ret    
0x0000000000112357: calc_mem_size
    2357:	55                   	push   rbp
    2358:	48 89 e5             	mov    rbp,rsp
    235b:	48 83 ec 20          	sub    rsp,0x20
    235f:	48 89 7d e8          	mov    QWORD PTR [rbp-0x18],rdi
    2363:	48 89 75 e0          	mov    QWORD PTR [rbp-0x20],rsi
    2367:	e8 2a 01 00 00       	call   0x2496
    236c:	89 45 fc             	mov    DWORD PTR [rbp-0x4],eax
    236f:	81 4d fc 00 00 00 60 	or     DWORD PTR [rbp-0x4],0x60000000
    2376:	8b 45 fc             	mov    eax,DWORD PTR [rbp-0x4]
    2379:	89 c7                	mov    edi,eax
    237b:	e8 1a 01 00 00       	call   0x249a
    2380:	48 8b 55 e0          	mov    rdx,QWORD PTR [rbp-0x20]
    2384:	48 8b 45 e8          	mov    rax,QWORD PTR [rbp-0x18]
    2388:	48 89 d6             	mov    rsi,rdx
    238b:	48 89 c7             	mov    rdi,rax
    238e:	e8 23 00 00 00       	call   0x23b6
    2393:	48 89 45 f0          	mov    QWORD PTR [rbp-0x10],rax
    2397:	e8 fa 00 00 00       	call   0x2496
    239c:	89 45 fc             	mov    DWORD PTR [rbp-0x4],eax
    239f:	81 65 fc ff ff ff 9f 	and    DWORD PTR [rbp-0x4],0x9fffffff
    23a6:	8b 45 fc             	mov    eax,DWORD PTR [rbp-0x4]
    23a9:	89 c7                	mov    edi,eax
    23ab:	e8 ea 00 00 00       	call   0x249a
    23b0:	48 8b 45 f0          	mov    rax,QWORD PTR [rbp-0x10]
    23b4:	c9                   	leave  
    23b5:	c3                   	ret    
0x00000000001123b6: calc_mem_size_sub
    23b6:	55                   	push   rbp
    23b7:	48 89 e5             	mov    rbp,rsp
    23ba:	48 83 ec 40          	sub    rsp,0x40
    23be:	48 89 7d c8          	mov    QWORD PTR [rbp-0x38],rdi
    23c2:	48 89 75 c0          	mov    QWORD PTR [rbp-0x40],rsi
    23c6:	48 b8 55 aa 55 aa 55 	movabs rax,0xaa55aa55aa55aa55
    23cd:	aa 55 aa 
    23d0:	48 89 45 f0          	mov    QWORD PTR [rbp-0x10],rax
    23d4:	48 b8 aa 55 aa 55 aa 	movabs rax,0x55aa55aa55aa55aa
    23db:	55 aa 55 
    23de:	48 89 45 e8          	mov    QWORD PTR [rbp-0x18],rax
    23e2:	48 8b 45 c8          	mov    rax,QWORD PTR [rbp-0x38]
    23e6:	48 89 45 f8          	mov    QWORD PTR [rbp-0x8],rax
    23ea:	e9 93 00 00 00       	jmp    0x2482
    23ef:	48 8b 45 f8          	mov    rax,QWORD PTR [rbp-0x8]
    23f3:	48 05 fc 0f 00 00    	add    rax,0xffc
    23f9:	48 89 45 e0          	mov    QWORD PTR [rbp-0x20],rax
    23fd:	48 8b 45 e0          	mov    rax,QWORD PTR [rbp-0x20]
    2401:	48 8b 00             	mov    rax,QWORD PTR [rax]
    2404:	48 89 45 d8          	mov    QWORD PTR [rbp-0x28],rax
    2408:	48 8b 45 e0          	mov    rax,QWORD PTR [rbp-0x20]
    240c:	48 8b 55 f0          	mov    rdx,QWORD PTR [rbp-0x10]
    2410:	48 89 10             	mov    QWORD PTR [rax],rdx
    2413:	48 8b 45 e0          	mov    rax,QWORD PTR [rbp-0x20]
    2417:	48 8b 00             	mov    rax,QWORD PTR [rax]
    241a:	48 f7 d0             	not    rax
    241d:	48 89 c2             	mov    rdx,rax
    2420:	48 8b 45 e0          	mov    rax,QWORD PTR [rbp-0x20]
    2424:	48 89 10             	mov    QWORD PTR [rax],rdx
    2427:	48 8b 45 e0          	mov    rax,QWORD PTR [rbp-0x20]
    242b:	48 8b 00             	mov    rax,QWORD PTR [rax]
    242e:	48 39 45 e8          	cmp    QWORD PTR [rbp-0x18],rax
    2432:	74 0d                	je     0x2441
    2434:	48 8b 45 e0          	mov    rax,QWORD PTR [rbp-0x20]
    2438:	48 8b 55 d8          	mov    rdx,QWORD PTR [rbp-0x28]
    243c:	48 89 10             	mov    QWORD PTR [rax],rdx
    243f:	eb 4f                	jmp    0x2490
    2441:	48 8b 45 e0          	mov    rax,QWORD PTR [rbp-0x20]
    2445:	48 8b 00             	mov    rax,QWORD PTR [rax]
    2448:	48 f7 d0             	not    rax
    244b:	48 89 c2             	mov    rdx,rax
    244e:	48 8b 45 e0          	mov    rax,QWORD PTR [rbp-0x20]
    2452:	48 89 10             	mov    QWORD PTR [rax],rdx
    2455:	48 8b 45 e0          	mov    rax,QWORD PTR [rbp-0x20]
    2459:	48 8b 00             	mov    rax,QWORD PTR [rax]
    245c:	48 39 45 f0          	cmp    QWORD PTR [rbp-0x10],rax
    2460:	74 0d                	je     0x246f
    2462:	48 8b 45 e0          	mov    rax,QWORD PTR [rbp-0x20]
    2466:	48 8b 55 d8          	mov    rdx,QWORD PTR [rbp-0x28]
    246a:	48 89 10             	mov    QWORD PTR [rax],rdx
    246d:	eb 21                	jmp    0x2490
    246f:	48 8b 45 e0          	mov    rax,QWORD PTR [rbp-0x20]
    2473:	48 8b 55 d8          	mov    rdx,QWORD PTR [rbp-0x28]
    2477:	48 89 10             	mov    QWORD PTR [rax],rdx
    247a:	48 81 45 f8 00 10 00 	add    QWORD PTR [rbp-0x8],0x1000
    2481:	00 
    2482:	48 8b 45 f8          	mov    rax,QWORD PTR [rbp-0x8]
    2486:	48 3b 45 c0          	cmp    rax,QWORD PTR [rbp-0x40]
    248a:	0f 86 5f ff ff ff    	jbe    0x23ef
    2490:	48 8b 45 f8          	mov    rax,QWORD PTR [rbp-0x8]
    2494:	c9                   	leave  
    2495:	c3                   	ret    
0x0000000000112496: load_cr0
    2496:	0f 20 c0             	mov    rax,cr0
    2499:	c3                   	ret    
0x000000000011249a: store_cr0
    249a:	48 89 f8             	mov    rax,rdi
    249d:	0f 22 c0             	mov    cr0,rax
    24a0:	c3                   	ret    
0x00000000001124a1: load_pgtable
    24a1:	48 89 f9             	mov    rcx,rdi
    24a4:	48 83 c9 18          	or     rcx,0x18
    24a8:	0f 22 d9             	mov    cr3,rcx
    24ab:	c3                   	ret    
0x00000000001124ac: load_gdt
    24ac:	48 89 f8             	mov    rax,rdi
    24af:	48 89 f1             	mov    rcx,rsi
    24b2:	48 c7 c2 10 00 00 00 	mov    rdx,0x10
    24b9:	66 89 0a             	mov    WORD PTR [rdx],cx
    24bc:	48 89 42 02          	mov    QWORD PTR [rdx+0x2],rax
    24c0:	0f 01 12             	lgdt   [rdx]
    24c3:	c3                   	ret    
0x00000000001124c4: set_segment_register
    24c4:	fa                   	cli    
    24c5:	66 b8 00 00          	mov    ax,0x0
    24c9:	8e d8                	mov    ds,eax
    24cb:	8e c0                	mov    es,eax
    24cd:	8e d0                	mov    ss,eax
    24cf:	8e e8                	mov    gs,eax
    24d1:	8e e0                	mov    fs,eax
    24d3:	48 89 e1             	mov    rcx,rsp
    24d6:	6a 00                	push   0x0
    24d8:	51                   	push   rcx
    24d9:	9c                   	pushf  
    24da:	57                   	push   rdi
    24db:	48 8d 0c 25 e6 24 11 	lea    rcx,ds:0x1124e6
    24e2:	00 
    24e3:	51                   	push   rcx
    24e4:	48 cf                	iretq  
0x00000000001124e6: main_label
    24e6:	fb                   	sti    
    24e7:	e8 3e db ff ff       	call   0x2a
0x00000000001124ec: insert_to_reg
    24ec:	48 89 f9             	mov    rcx,rdi
    24ef:	c3                   	ret    
0x00000000001124f0: get_cr3
    24f0:	0f 20 d8             	mov    rax,cr3
    24f3:	c3                   	ret    
0x00000000001124f4: get_cr4
    24f4:	0f 20 e0             	mov    rax,cr4
    24f7:	c3                   	ret    
0x00000000001124f8: get_efer
    24f8:	b9 80 00 00 c0       	mov    ecx,0xc0000080
    24fd:	0f 32                	rdmsr  
    24ff:	c3                   	ret    
0x0000000000112500: generate_gp
    2500:	cd 0d                	int    0xd
    2502:	c3                   	ret    
0x0000000000112503: get_general_registers
    2503:	48 89 07             	mov    QWORD PTR [rdi],rax
    2506:	48 89 5f 08          	mov    QWORD PTR [rdi+0x8],rbx
    250a:	48 89 4f 10          	mov    QWORD PTR [rdi+0x10],rcx
    250e:	48 89 57 18          	mov    QWORD PTR [rdi+0x18],rdx
    2512:	48 89 77 20          	mov    QWORD PTR [rdi+0x20],rsi
    2516:	48 89 7f 28          	mov    QWORD PTR [rdi+0x28],rdi
    251a:	48 89 67 30          	mov    QWORD PTR [rdi+0x30],rsp
    251e:	48 89 6f 38          	mov    QWORD PTR [rdi+0x38],rbp
    2522:	4c 89 47 40          	mov    QWORD PTR [rdi+0x40],r8
    2526:	4c 89 4f 48          	mov    QWORD PTR [rdi+0x48],r9
    252a:	4c 89 57 50          	mov    QWORD PTR [rdi+0x50],r10
    252e:	4c 89 5f 58          	mov    QWORD PTR [rdi+0x58],r11
    2532:	4c 89 67 60          	mov    QWORD PTR [rdi+0x60],r12
    2536:	4c 89 6f 68          	mov    QWORD PTR [rdi+0x68],r13
    253a:	4c 89 77 70          	mov    QWORD PTR [rdi+0x70],r14
    253e:	4c 89 7f 78          	mov    QWORD PTR [rdi+0x78],r15
    2542:	c3                   	ret    
0x0000000000112543: load_idt
    2543:	48 89 f8             	mov    rax,rdi
    2546:	48 89 f1             	mov    rcx,rsi
    2549:	48 c7 c2 10 00 00 00 	mov    rdx,0x10
    2550:	66 89 0a             	mov    WORD PTR [rdx],cx
    2553:	48 89 42 02          	mov    QWORD PTR [rdx+0x2],rax
    2557:	0f 01 1a             	lidt   [rdx]
    255a:	c3                   	ret    
0x000000000011255b: make_gate_descriptor
    255b:	55                   	push   rbp
    255c:	48 89 e5             	mov    rbp,rsp
    255f:	48 83 ec 28          	sub    rsp,0x28
    2563:	48 89 7d e8          	mov    QWORD PTR [rbp-0x18],rdi
    2567:	89 75 e4             	mov    DWORD PTR [rbp-0x1c],esi
    256a:	89 55 e0             	mov    DWORD PTR [rbp-0x20],edx
    256d:	89 4d dc             	mov    DWORD PTR [rbp-0x24],ecx
    2570:	48 8b 45 e8          	mov    rax,QWORD PTR [rbp-0x18]
    2574:	48 c1 e8 20          	shr    rax,0x20
    2578:	48 89 45 f8          	mov    QWORD PTR [rbp-0x8],rax
    257c:	48 8b 45 e8          	mov    rax,QWORD PTR [rbp-0x18]
    2580:	66 b8 00 00          	mov    ax,0x0
    2584:	89 c2                	mov    edx,eax
    2586:	8b 45 e4             	mov    eax,DWORD PTR [rbp-0x1c]
    2589:	c1 e0 0d             	shl    eax,0xd
    258c:	09 c2                	or     edx,eax
    258e:	8b 45 e0             	mov    eax,DWORD PTR [rbp-0x20]
    2591:	c1 e0 08             	shl    eax,0x8
    2594:	09 d0                	or     eax,edx
    2596:	0b 45 dc             	or     eax,DWORD PTR [rbp-0x24]
    2599:	80 cc 8e             	or     ah,0x8e
    259c:	89 45 f4             	mov    DWORD PTR [rbp-0xc],eax
    259f:	48 8b 45 e8          	mov    rax,QWORD PTR [rbp-0x18]
    25a3:	0f b7 c0             	movzx  eax,ax
    25a6:	0d 00 00 08 00       	or     eax,0x80000
    25ab:	89 45 f0             	mov    DWORD PTR [rbp-0x10],eax
    25ae:	48 8b 45 f0          	mov    rax,QWORD PTR [rbp-0x10]
    25b2:	48 8b 55 f8          	mov    rdx,QWORD PTR [rbp-0x8]
    25b6:	c9                   	leave  
    25b7:	c3                   	ret    
0x00000000001125b8: init_pic
    25b8:	55                   	push   rbp
    25b9:	48 89 e5             	mov    rbp,rsp
    25bc:	be 11 00 00 00       	mov    esi,0x11
    25c1:	bf 20 00 00 00       	mov    edi,0x20
    25c6:	e8 67 f5 ff ff       	call   0x1b32
    25cb:	be 20 00 00 00       	mov    esi,0x20
    25d0:	bf 21 00 00 00       	mov    edi,0x21
    25d5:	e8 58 f5 ff ff       	call   0x1b32
    25da:	be 04 00 00 00       	mov    esi,0x4
    25df:	bf 21 00 00 00       	mov    edi,0x21
    25e4:	e8 49 f5 ff ff       	call   0x1b32
    25e9:	be 01 00 00 00       	mov    esi,0x1
    25ee:	bf 21 00 00 00       	mov    edi,0x21
    25f3:	e8 3a f5 ff ff       	call   0x1b32
    25f8:	be ff 00 00 00       	mov    esi,0xff
    25fd:	bf 21 00 00 00       	mov    edi,0x21
    2602:	e8 2b f5 ff ff       	call   0x1b32
    2607:	be 11 00 00 00       	mov    esi,0x11
    260c:	bf a0 00 00 00       	mov    edi,0xa0
    2611:	e8 1c f5 ff ff       	call   0x1b32
    2616:	be 28 00 00 00       	mov    esi,0x28
    261b:	bf a1 00 00 00       	mov    edi,0xa1
    2620:	e8 0d f5 ff ff       	call   0x1b32
    2625:	be 02 00 00 00       	mov    esi,0x2
    262a:	bf a1 00 00 00       	mov    edi,0xa1
    262f:	e8 fe f4 ff ff       	call   0x1b32
    2634:	be 01 00 00 00       	mov    esi,0x1
    2639:	bf a1 00 00 00       	mov    edi,0xa1
    263e:	e8 ef f4 ff ff       	call   0x1b32
    2643:	be ff 00 00 00       	mov    esi,0xff
    2648:	bf a1 00 00 00       	mov    edi,0xa1
    264d:	e8 e0 f4 ff ff       	call   0x1b32
    2652:	be ee 00 00 00       	mov    esi,0xee
    2657:	bf 21 00 00 00       	mov    edi,0x21
    265c:	e8 d1 f4 ff ff       	call   0x1b32
    2661:	be ff 00 00 00       	mov    esi,0xff
    2666:	bf a1 00 00 00       	mov    edi,0xa1
    266b:	e8 c2 f4 ff ff       	call   0x1b32
    2670:	90                   	nop
    2671:	5d                   	pop    rbp
    2672:	c3                   	ret    
0x0000000000112673: writebyte
    2673:	55                   	push   rbp
    2674:	48 89 e5             	mov    rbp,rsp
    2677:	48 83 ec 10          	sub    rsp,0x10
    267b:	48 89 7d f8          	mov    QWORD PTR [rbp-0x8],rdi
    267f:	89 f0                	mov    eax,esi
    2681:	88 45 f4             	mov    BYTE PTR [rbp-0xc],al
    2684:	48 8b 45 f8          	mov    rax,QWORD PTR [rbp-0x8]
    2688:	0f b6 55 f4          	movzx  edx,BYTE PTR [rbp-0xc]
    268c:	88 10                	mov    BYTE PTR [rax],dl
    268e:	90                   	nop
    268f:	c9                   	leave  
    2690:	c3                   	ret    
0x0000000000112691: de_handler
    2691:	55                   	push   rbp
    2692:	48 89 e5             	mov    rbp,rsp
    2695:	41 53                	push   r11
    2697:	41 52                	push   r10
    2699:	41 51                	push   r9
    269b:	41 50                	push   r8
    269d:	57                   	push   rdi
    269e:	56                   	push   rsi
    269f:	51                   	push   rcx
    26a0:	52                   	push   rdx
    26a1:	50                   	push   rax
    26a2:	48 83 ec 18          	sub    rsp,0x18
    26a6:	48 8d 45 08          	lea    rax,[rbp+0x8]
    26aa:	48 89 45 a8          	mov    QWORD PTR [rbp-0x58],rax
    26ae:	fc                   	cld    
    26af:	e8 70 f4 ff ff       	call   0x1b24
    26b4:	bf 84 62 11 00       	mov    edi,0x116284
    26b9:	e8 4a 1e 00 00       	call   0x4508
    26be:	bf 8f 62 11 00       	mov    edi,0x11628f
    26c3:	e8 40 1e 00 00       	call   0x4508
    26c8:	48 8b 45 a8          	mov    rax,QWORD PTR [rbp-0x58]
    26cc:	48 8b 00             	mov    rax,QWORD PTR [rax]
    26cf:	48 89 c7             	mov    rdi,rax
    26d2:	e8 84 1e 00 00       	call   0x455b
    26d7:	bf 95 62 11 00       	mov    edi,0x116295
    26dc:	e8 27 1e 00 00       	call   0x4508
    26e1:	bf 97 62 11 00       	mov    edi,0x116297
    26e6:	e8 1d 1e 00 00       	call   0x4508
    26eb:	48 8b 45 a8          	mov    rax,QWORD PTR [rbp-0x58]
    26ef:	48 8b 40 08          	mov    rax,QWORD PTR [rax+0x8]
    26f3:	48 89 c7             	mov    rdi,rax
    26f6:	e8 60 1e 00 00       	call   0x455b
    26fb:	bf 95 62 11 00       	mov    edi,0x116295
    2700:	e8 03 1e 00 00       	call   0x4508
    2705:	bf 9c 62 11 00       	mov    edi,0x11629c
    270a:	e8 f9 1d 00 00       	call   0x4508
    270f:	48 8b 45 a8          	mov    rax,QWORD PTR [rbp-0x58]
    2713:	48 8b 40 10          	mov    rax,QWORD PTR [rax+0x10]
    2717:	48 89 c7             	mov    rdi,rax
    271a:	e8 3c 1e 00 00       	call   0x455b
    271f:	bf 95 62 11 00       	mov    edi,0x116295
    2724:	e8 df 1d 00 00       	call   0x4508
    2729:	bf a5 62 11 00       	mov    edi,0x1162a5
    272e:	e8 d5 1d 00 00       	call   0x4508
    2733:	48 8b 45 a8          	mov    rax,QWORD PTR [rbp-0x58]
    2737:	48 8b 40 18          	mov    rax,QWORD PTR [rax+0x18]
    273b:	48 89 c7             	mov    rdi,rax
    273e:	e8 18 1e 00 00       	call   0x455b
    2743:	bf 95 62 11 00       	mov    edi,0x116295
    2748:	e8 bb 1d 00 00       	call   0x4508
    274d:	bf ab 62 11 00       	mov    edi,0x1162ab
    2752:	e8 b1 1d 00 00       	call   0x4508
    2757:	48 8b 45 a8          	mov    rax,QWORD PTR [rbp-0x58]
    275b:	48 8b 40 20          	mov    rax,QWORD PTR [rax+0x20]
    275f:	48 89 c7             	mov    rdi,rax
    2762:	e8 f4 1d 00 00       	call   0x455b
    2767:	bf b0 62 11 00       	mov    edi,0x1162b0
    276c:	e8 97 1d 00 00       	call   0x4508
    2771:	48 8b 05 d0 56 00 00 	mov    rax,QWORD PTR [rip+0x56d0]        # 0x7e48
    2778:	41 b9 b3 62 11 00    	mov    r9d,0x1162b3
    277e:	49 89 c0             	mov    r8,rax
    2781:	8b 0d 95 56 00 00    	mov    ecx,DWORD PTR [rip+0x5695]        # 0x7e1c
    2787:	8b 15 83 56 00 00    	mov    edx,DWORD PTR [rip+0x5683]        # 0x7e10
    278d:	be f4 01 00 00       	mov    esi,0x1f4
    2792:	bf 58 02 00 00       	mov    edi,0x258
    2797:	e8 34 e2 ff ff       	call   0x9d0
    279c:	f4                   	hlt    
    279d:	eb fd                	jmp    0x279c
0x000000000011279f: db_handler
    279f:	55                   	push   rbp
    27a0:	48 89 e5             	mov    rbp,rsp
    27a3:	41 53                	push   r11
    27a5:	41 52                	push   r10
    27a7:	41 51                	push   r9
    27a9:	41 50                	push   r8
    27ab:	57                   	push   rdi
    27ac:	56                   	push   rsi
    27ad:	51                   	push   rcx
    27ae:	52                   	push   rdx
    27af:	50                   	push   rax
    27b0:	48 83 ec 18          	sub    rsp,0x18
    27b4:	48 8d 45 08          	lea    rax,[rbp+0x8]
    27b8:	48 89 45 a8          	mov    QWORD PTR [rbp-0x58],rax
    27bc:	fc                   	cld    
    27bd:	e8 62 f3 ff ff       	call   0x1b24
    27c2:	bf b7 62 11 00       	mov    edi,0x1162b7
    27c7:	e8 3c 1d 00 00       	call   0x4508
    27cc:	bf 8f 62 11 00       	mov    edi,0x11628f
    27d1:	e8 32 1d 00 00       	call   0x4508
    27d6:	48 8b 45 a8          	mov    rax,QWORD PTR [rbp-0x58]
    27da:	48 8b 00             	mov    rax,QWORD PTR [rax]
    27dd:	48 89 c7             	mov    rdi,rax
    27e0:	e8 76 1d 00 00       	call   0x455b
    27e5:	bf 95 62 11 00       	mov    edi,0x116295
    27ea:	e8 19 1d 00 00       	call   0x4508
    27ef:	bf 97 62 11 00       	mov    edi,0x116297
    27f4:	e8 0f 1d 00 00       	call   0x4508
    27f9:	48 8b 45 a8          	mov    rax,QWORD PTR [rbp-0x58]
    27fd:	48 8b 40 08          	mov    rax,QWORD PTR [rax+0x8]
    2801:	48 89 c7             	mov    rdi,rax
    2804:	e8 52 1d 00 00       	call   0x455b
    2809:	bf 95 62 11 00       	mov    edi,0x116295
    280e:	e8 f5 1c 00 00       	call   0x4508
    2813:	bf 9c 62 11 00       	mov    edi,0x11629c
    2818:	e8 eb 1c 00 00       	call   0x4508
    281d:	48 8b 45 a8          	mov    rax,QWORD PTR [rbp-0x58]
    2821:	48 8b 40 10          	mov    rax,QWORD PTR [rax+0x10]
    2825:	48 89 c7             	mov    rdi,rax
    2828:	e8 2e 1d 00 00       	call   0x455b
    282d:	bf 95 62 11 00       	mov    edi,0x116295
    2832:	e8 d1 1c 00 00       	call   0x4508
    2837:	bf a5 62 11 00       	mov    edi,0x1162a5
    283c:	e8 c7 1c 00 00       	call   0x4508
    2841:	48 8b 45 a8          	mov    rax,QWORD PTR [rbp-0x58]
    2845:	48 8b 40 18          	mov    rax,QWORD PTR [rax+0x18]
    2849:	48 89 c7             	mov    rdi,rax
    284c:	e8 0a 1d 00 00       	call   0x455b
    2851:	bf 95 62 11 00       	mov    edi,0x116295
    2856:	e8 ad 1c 00 00       	call   0x4508
    285b:	bf ab 62 11 00       	mov    edi,0x1162ab
    2860:	e8 a3 1c 00 00       	call   0x4508
    2865:	48 8b 45 a8          	mov    rax,QWORD PTR [rbp-0x58]
    2869:	48 8b 40 20          	mov    rax,QWORD PTR [rax+0x20]
    286d:	48 89 c7             	mov    rdi,rax
    2870:	e8 e6 1c 00 00       	call   0x455b
    2875:	bf b0 62 11 00       	mov    edi,0x1162b0
    287a:	e8 89 1c 00 00       	call   0x4508
    287f:	48 8b 05 c2 55 00 00 	mov    rax,QWORD PTR [rip+0x55c2]        # 0x7e48
    2886:	41 b9 c2 62 11 00    	mov    r9d,0x1162c2
    288c:	49 89 c0             	mov    r8,rax
    288f:	8b 0d 87 55 00 00    	mov    ecx,DWORD PTR [rip+0x5587]        # 0x7e1c
    2895:	8b 15 75 55 00 00    	mov    edx,DWORD PTR [rip+0x5575]        # 0x7e10
    289b:	be f4 01 00 00       	mov    esi,0x1f4
    28a0:	bf 58 02 00 00       	mov    edi,0x258
    28a5:	e8 26 e1 ff ff       	call   0x9d0
    28aa:	f4                   	hlt    
    28ab:	eb fd                	jmp    0x28aa
0x00000000001128ad: nmi_handler
    28ad:	55                   	push   rbp
    28ae:	48 89 e5             	mov    rbp,rsp
    28b1:	41 53                	push   r11
    28b3:	41 52                	push   r10
    28b5:	41 51                	push   r9
    28b7:	41 50                	push   r8
    28b9:	57                   	push   rdi
    28ba:	56                   	push   rsi
    28bb:	51                   	push   rcx
    28bc:	52                   	push   rdx
    28bd:	50                   	push   rax
    28be:	48 83 ec 18          	sub    rsp,0x18
    28c2:	48 8d 45 08          	lea    rax,[rbp+0x8]
    28c6:	48 89 45 a8          	mov    QWORD PTR [rbp-0x58],rax
    28ca:	fc                   	cld    
    28cb:	e8 54 f2 ff ff       	call   0x1b24
    28d0:	bf c6 62 11 00       	mov    edi,0x1162c6
    28d5:	e8 2e 1c 00 00       	call   0x4508
    28da:	bf 8f 62 11 00       	mov    edi,0x11628f
    28df:	e8 24 1c 00 00       	call   0x4508
    28e4:	48 8b 45 a8          	mov    rax,QWORD PTR [rbp-0x58]
    28e8:	48 8b 00             	mov    rax,QWORD PTR [rax]
    28eb:	48 89 c7             	mov    rdi,rax
    28ee:	e8 68 1c 00 00       	call   0x455b
    28f3:	bf 95 62 11 00       	mov    edi,0x116295
    28f8:	e8 0b 1c 00 00       	call   0x4508
    28fd:	bf 97 62 11 00       	mov    edi,0x116297
    2902:	e8 01 1c 00 00       	call   0x4508
    2907:	48 8b 45 a8          	mov    rax,QWORD PTR [rbp-0x58]
    290b:	48 8b 40 08          	mov    rax,QWORD PTR [rax+0x8]
    290f:	48 89 c7             	mov    rdi,rax
    2912:	e8 44 1c 00 00       	call   0x455b
    2917:	bf 95 62 11 00       	mov    edi,0x116295
    291c:	e8 e7 1b 00 00       	call   0x4508
    2921:	bf 9c 62 11 00       	mov    edi,0x11629c
    2926:	e8 dd 1b 00 00       	call   0x4508
    292b:	48 8b 45 a8          	mov    rax,QWORD PTR [rbp-0x58]
    292f:	48 8b 40 10          	mov    rax,QWORD PTR [rax+0x10]
    2933:	48 89 c7             	mov    rdi,rax
    2936:	e8 20 1c 00 00       	call   0x455b
    293b:	bf 95 62 11 00       	mov    edi,0x116295
    2940:	e8 c3 1b 00 00       	call   0x4508
    2945:	bf a5 62 11 00       	mov    edi,0x1162a5
    294a:	e8 b9 1b 00 00       	call   0x4508
    294f:	48 8b 45 a8          	mov    rax,QWORD PTR [rbp-0x58]
    2953:	48 8b 40 18          	mov    rax,QWORD PTR [rax+0x18]
    2957:	48 89 c7             	mov    rdi,rax
    295a:	e8 fc 1b 00 00       	call   0x455b
    295f:	bf 95 62 11 00       	mov    edi,0x116295
    2964:	e8 9f 1b 00 00       	call   0x4508
    2969:	bf ab 62 11 00       	mov    edi,0x1162ab
    296e:	e8 95 1b 00 00       	call   0x4508
    2973:	48 8b 45 a8          	mov    rax,QWORD PTR [rbp-0x58]
    2977:	48 8b 40 20          	mov    rax,QWORD PTR [rax+0x20]
    297b:	48 89 c7             	mov    rdi,rax
    297e:	e8 d8 1b 00 00       	call   0x455b
    2983:	bf b0 62 11 00       	mov    edi,0x1162b0
    2988:	e8 7b 1b 00 00       	call   0x4508
    298d:	48 8b 05 b4 54 00 00 	mov    rax,QWORD PTR [rip+0x54b4]        # 0x7e48
    2994:	41 b9 d5 62 11 00    	mov    r9d,0x1162d5
    299a:	49 89 c0             	mov    r8,rax
    299d:	8b 0d 79 54 00 00    	mov    ecx,DWORD PTR [rip+0x5479]        # 0x7e1c
    29a3:	8b 15 67 54 00 00    	mov    edx,DWORD PTR [rip+0x5467]        # 0x7e10
    29a9:	be f4 01 00 00       	mov    esi,0x1f4
    29ae:	bf 58 02 00 00       	mov    edi,0x258
    29b3:	e8 18 e0 ff ff       	call   0x9d0
    29b8:	f4                   	hlt    
    29b9:	eb fd                	jmp    0x29b8
0x00000000001129bb: bp_handler
    29bb:	55                   	push   rbp
    29bc:	48 89 e5             	mov    rbp,rsp
    29bf:	41 53                	push   r11
    29c1:	41 52                	push   r10
    29c3:	41 51                	push   r9
    29c5:	41 50                	push   r8
    29c7:	57                   	push   rdi
    29c8:	56                   	push   rsi
    29c9:	51                   	push   rcx
    29ca:	52                   	push   rdx
    29cb:	50                   	push   rax
    29cc:	48 81 ec 98 00 00 00 	sub    rsp,0x98
    29d3:	48 8d 45 08          	lea    rax,[rbp+0x8]
    29d7:	48 89 85 28 ff ff ff 	mov    QWORD PTR [rbp-0xd8],rax
    29de:	fc                   	cld    
    29df:	e8 40 f1 ff ff       	call   0x1b24
    29e4:	48 8d 95 30 ff ff ff 	lea    rdx,[rbp-0xd0]
    29eb:	b8 00 00 00 00       	mov    eax,0x0
    29f0:	be 10 00 00 00       	mov    esi,0x10
    29f5:	48 89 d7             	mov    rdi,rdx
    29f8:	48 89 f1             	mov    rcx,rsi
    29fb:	f3 48 ab             	rep stos QWORD PTR es:[rdi],rax
    29fe:	48 8d 85 30 ff ff ff 	lea    rax,[rbp-0xd0]
    2a05:	48 89 c7             	mov    rdi,rax
    2a08:	e8 f6 fa ff ff       	call   0x2503
    2a0d:	bf d9 62 11 00       	mov    edi,0x1162d9
    2a12:	e8 f1 1a 00 00       	call   0x4508
    2a17:	bf e8 62 11 00       	mov    edi,0x1162e8
    2a1c:	e8 e7 1a 00 00       	call   0x4508
    2a21:	48 8b 85 30 ff ff ff 	mov    rax,QWORD PTR [rbp-0xd0]
    2a28:	48 89 c7             	mov    rdi,rax
    2a2b:	e8 2b 1b 00 00       	call   0x455b
    2a30:	bf 95 62 11 00       	mov    edi,0x116295
    2a35:	e8 ce 1a 00 00       	call   0x4508
    2a3a:	bf ee 62 11 00       	mov    edi,0x1162ee
    2a3f:	e8 c4 1a 00 00       	call   0x4508
    2a44:	48 8b 85 38 ff ff ff 	mov    rax,QWORD PTR [rbp-0xc8]
    2a4b:	48 89 c7             	mov    rdi,rax
    2a4e:	e8 08 1b 00 00       	call   0x455b
    2a53:	bf 95 62 11 00       	mov    edi,0x116295
    2a58:	e8 ab 1a 00 00       	call   0x4508
    2a5d:	bf f4 62 11 00       	mov    edi,0x1162f4
    2a62:	e8 a1 1a 00 00       	call   0x4508
    2a67:	48 8b 85 40 ff ff ff 	mov    rax,QWORD PTR [rbp-0xc0]
    2a6e:	48 89 c7             	mov    rdi,rax
    2a71:	e8 e5 1a 00 00       	call   0x455b
    2a76:	bf 95 62 11 00       	mov    edi,0x116295
    2a7b:	e8 88 1a 00 00       	call   0x4508
    2a80:	bf fa 62 11 00       	mov    edi,0x1162fa
    2a85:	e8 7e 1a 00 00       	call   0x4508
    2a8a:	48 8b 85 48 ff ff ff 	mov    rax,QWORD PTR [rbp-0xb8]
    2a91:	48 89 c7             	mov    rdi,rax
    2a94:	e8 c2 1a 00 00       	call   0x455b
    2a99:	bf 95 62 11 00       	mov    edi,0x116295
    2a9e:	e8 65 1a 00 00       	call   0x4508
    2aa3:	bf 00 63 11 00       	mov    edi,0x116300
    2aa8:	e8 5b 1a 00 00       	call   0x4508
    2aad:	48 8b 85 50 ff ff ff 	mov    rax,QWORD PTR [rbp-0xb0]
    2ab4:	48 89 c7             	mov    rdi,rax
    2ab7:	e8 9f 1a 00 00       	call   0x455b
    2abc:	bf 95 62 11 00       	mov    edi,0x116295
    2ac1:	e8 42 1a 00 00       	call   0x4508
    2ac6:	bf 06 63 11 00       	mov    edi,0x116306
    2acb:	e8 38 1a 00 00       	call   0x4508
    2ad0:	48 8b 85 58 ff ff ff 	mov    rax,QWORD PTR [rbp-0xa8]
    2ad7:	48 89 c7             	mov    rdi,rax
    2ada:	e8 7c 1a 00 00       	call   0x455b
    2adf:	bf 95 62 11 00       	mov    edi,0x116295
    2ae4:	e8 1f 1a 00 00       	call   0x4508
    2ae9:	bf 0c 63 11 00       	mov    edi,0x11630c
    2aee:	e8 15 1a 00 00       	call   0x4508
    2af3:	48 8b 85 60 ff ff ff 	mov    rax,QWORD PTR [rbp-0xa0]
    2afa:	48 89 c7             	mov    rdi,rax
    2afd:	e8 59 1a 00 00       	call   0x455b
    2b02:	bf 95 62 11 00       	mov    edi,0x116295
    2b07:	e8 fc 19 00 00       	call   0x4508
    2b0c:	bf 12 63 11 00       	mov    edi,0x116312
    2b11:	e8 f2 19 00 00       	call   0x4508
    2b16:	48 8b 85 68 ff ff ff 	mov    rax,QWORD PTR [rbp-0x98]
    2b1d:	48 89 c7             	mov    rdi,rax
    2b20:	e8 36 1a 00 00       	call   0x455b
    2b25:	bf 95 62 11 00       	mov    edi,0x116295
    2b2a:	e8 d9 19 00 00       	call   0x4508
    2b2f:	bf 18 63 11 00       	mov    edi,0x116318
    2b34:	e8 cf 19 00 00       	call   0x4508
    2b39:	48 8b 85 70 ff ff ff 	mov    rax,QWORD PTR [rbp-0x90]
    2b40:	48 89 c7             	mov    rdi,rax
    2b43:	e8 13 1a 00 00       	call   0x455b
    2b48:	bf 95 62 11 00       	mov    edi,0x116295
    2b4d:	e8 b6 19 00 00       	call   0x4508
    2b52:	bf 1d 63 11 00       	mov    edi,0x11631d
    2b57:	e8 ac 19 00 00       	call   0x4508
    2b5c:	48 8b 85 78 ff ff ff 	mov    rax,QWORD PTR [rbp-0x88]
    2b63:	48 89 c7             	mov    rdi,rax
    2b66:	e8 f0 19 00 00       	call   0x455b
    2b6b:	bf 95 62 11 00       	mov    edi,0x116295
    2b70:	e8 93 19 00 00       	call   0x4508
    2b75:	bf 22 63 11 00       	mov    edi,0x116322
    2b7a:	e8 89 19 00 00       	call   0x4508
    2b7f:	48 8b 45 80          	mov    rax,QWORD PTR [rbp-0x80]
    2b83:	48 89 c7             	mov    rdi,rax
    2b86:	e8 d0 19 00 00       	call   0x455b
    2b8b:	bf 95 62 11 00       	mov    edi,0x116295
    2b90:	e8 73 19 00 00       	call   0x4508
    2b95:	bf 28 63 11 00       	mov    edi,0x116328
    2b9a:	e8 69 19 00 00       	call   0x4508
    2b9f:	48 8b 45 88          	mov    rax,QWORD PTR [rbp-0x78]
    2ba3:	48 89 c7             	mov    rdi,rax
    2ba6:	e8 b0 19 00 00       	call   0x455b
    2bab:	bf 95 62 11 00       	mov    edi,0x116295
    2bb0:	e8 53 19 00 00       	call   0x4508
    2bb5:	bf 2e 63 11 00       	mov    edi,0x11632e
    2bba:	e8 49 19 00 00       	call   0x4508
    2bbf:	48 8b 45 90          	mov    rax,QWORD PTR [rbp-0x70]
    2bc3:	48 89 c7             	mov    rdi,rax
    2bc6:	e8 90 19 00 00       	call   0x455b
    2bcb:	bf 95 62 11 00       	mov    edi,0x116295
    2bd0:	e8 33 19 00 00       	call   0x4508
    2bd5:	bf 34 63 11 00       	mov    edi,0x116334
    2bda:	e8 29 19 00 00       	call   0x4508
    2bdf:	48 8b 45 98          	mov    rax,QWORD PTR [rbp-0x68]
    2be3:	48 89 c7             	mov    rdi,rax
    2be6:	e8 70 19 00 00       	call   0x455b
    2beb:	bf 95 62 11 00       	mov    edi,0x116295
    2bf0:	e8 13 19 00 00       	call   0x4508
    2bf5:	bf 3a 63 11 00       	mov    edi,0x11633a
    2bfa:	e8 09 19 00 00       	call   0x4508
    2bff:	48 8b 45 a0          	mov    rax,QWORD PTR [rbp-0x60]
    2c03:	48 89 c7             	mov    rdi,rax
    2c06:	e8 50 19 00 00       	call   0x455b
    2c0b:	bf 95 62 11 00       	mov    edi,0x116295
    2c10:	e8 f3 18 00 00       	call   0x4508
    2c15:	bf 40 63 11 00       	mov    edi,0x116340
    2c1a:	e8 e9 18 00 00       	call   0x4508
    2c1f:	48 8b 45 a8          	mov    rax,QWORD PTR [rbp-0x58]
    2c23:	48 89 c7             	mov    rdi,rax
    2c26:	e8 30 19 00 00       	call   0x455b
    2c2b:	bf 95 62 11 00       	mov    edi,0x116295
    2c30:	e8 d3 18 00 00       	call   0x4508
    2c35:	bf 8f 62 11 00       	mov    edi,0x11628f
    2c3a:	e8 c9 18 00 00       	call   0x4508
    2c3f:	48 8b 85 28 ff ff ff 	mov    rax,QWORD PTR [rbp-0xd8]
    2c46:	48 8b 00             	mov    rax,QWORD PTR [rax]
    2c49:	48 89 c7             	mov    rdi,rax
    2c4c:	e8 0a 19 00 00       	call   0x455b
    2c51:	bf 95 62 11 00       	mov    edi,0x116295
    2c56:	e8 ad 18 00 00       	call   0x4508
    2c5b:	bf 97 62 11 00       	mov    edi,0x116297
    2c60:	e8 a3 18 00 00       	call   0x4508
    2c65:	48 8b 85 28 ff ff ff 	mov    rax,QWORD PTR [rbp-0xd8]
    2c6c:	48 8b 40 08          	mov    rax,QWORD PTR [rax+0x8]
    2c70:	48 89 c7             	mov    rdi,rax
    2c73:	e8 e3 18 00 00       	call   0x455b
    2c78:	bf 95 62 11 00       	mov    edi,0x116295
    2c7d:	e8 86 18 00 00       	call   0x4508
    2c82:	bf 9c 62 11 00       	mov    edi,0x11629c
    2c87:	e8 7c 18 00 00       	call   0x4508
    2c8c:	48 8b 85 28 ff ff ff 	mov    rax,QWORD PTR [rbp-0xd8]
    2c93:	48 8b 40 10          	mov    rax,QWORD PTR [rax+0x10]
    2c97:	48 89 c7             	mov    rdi,rax
    2c9a:	e8 bc 18 00 00       	call   0x455b
    2c9f:	bf 95 62 11 00       	mov    edi,0x116295
    2ca4:	e8 5f 18 00 00       	call   0x4508
    2ca9:	bf a5 62 11 00       	mov    edi,0x1162a5
    2cae:	e8 55 18 00 00       	call   0x4508
    2cb3:	48 8b 85 28 ff ff ff 	mov    rax,QWORD PTR [rbp-0xd8]
    2cba:	48 8b 40 18          	mov    rax,QWORD PTR [rax+0x18]
    2cbe:	48 89 c7             	mov    rdi,rax
    2cc1:	e8 95 18 00 00       	call   0x455b
    2cc6:	bf 95 62 11 00       	mov    edi,0x116295
    2ccb:	e8 38 18 00 00       	call   0x4508
    2cd0:	bf ab 62 11 00       	mov    edi,0x1162ab
    2cd5:	e8 2e 18 00 00       	call   0x4508
    2cda:	48 8b 85 28 ff ff ff 	mov    rax,QWORD PTR [rbp-0xd8]
    2ce1:	48 8b 40 20          	mov    rax,QWORD PTR [rax+0x20]
    2ce5:	48 89 c7             	mov    rdi,rax
    2ce8:	e8 6e 18 00 00       	call   0x455b
    2ced:	bf b0 62 11 00       	mov    edi,0x1162b0
    2cf2:	e8 11 18 00 00       	call   0x4508
    2cf7:	48 8b 05 4a 51 00 00 	mov    rax,QWORD PTR [rip+0x514a]        # 0x7e48
    2cfe:	41 b9 46 63 11 00    	mov    r9d,0x116346
    2d04:	49 89 c0             	mov    r8,rax
    2d07:	8b 0d 0f 51 00 00    	mov    ecx,DWORD PTR [rip+0x510f]        # 0x7e1c
    2d0d:	8b 15 fd 50 00 00    	mov    edx,DWORD PTR [rip+0x50fd]        # 0x7e10
    2d13:	be f4 01 00 00       	mov    esi,0x1f4
    2d18:	bf 58 02 00 00       	mov    edi,0x258
    2d1d:	e8 ae dc ff ff       	call   0x9d0
    2d22:	90                   	nop
    2d23:	48 81 c4 98 00 00 00 	add    rsp,0x98
    2d2a:	58                   	pop    rax
    2d2b:	5a                   	pop    rdx
    2d2c:	59                   	pop    rcx
    2d2d:	5e                   	pop    rsi
    2d2e:	5f                   	pop    rdi
    2d2f:	41 58                	pop    r8
    2d31:	41 59                	pop    r9
    2d33:	41 5a                	pop    r10
    2d35:	41 5b                	pop    r11
    2d37:	5d                   	pop    rbp
    2d38:	48 cf                	iretq  
0x0000000000112d3a: of_handler
    2d3a:	55                   	push   rbp
    2d3b:	48 89 e5             	mov    rbp,rsp
    2d3e:	41 53                	push   r11
    2d40:	41 52                	push   r10
    2d42:	41 51                	push   r9
    2d44:	41 50                	push   r8
    2d46:	57                   	push   rdi
    2d47:	56                   	push   rsi
    2d48:	51                   	push   rcx
    2d49:	52                   	push   rdx
    2d4a:	50                   	push   rax
    2d4b:	48 83 ec 18          	sub    rsp,0x18
    2d4f:	48 8d 45 08          	lea    rax,[rbp+0x8]
    2d53:	48 89 45 a8          	mov    QWORD PTR [rbp-0x58],rax
    2d57:	fc                   	cld    
    2d58:	e8 c7 ed ff ff       	call   0x1b24
    2d5d:	bf 4a 63 11 00       	mov    edi,0x11634a
    2d62:	e8 a1 17 00 00       	call   0x4508
    2d67:	bf 8f 62 11 00       	mov    edi,0x11628f
    2d6c:	e8 97 17 00 00       	call   0x4508
    2d71:	48 8b 45 a8          	mov    rax,QWORD PTR [rbp-0x58]
    2d75:	48 8b 00             	mov    rax,QWORD PTR [rax]
    2d78:	48 89 c7             	mov    rdi,rax
    2d7b:	e8 db 17 00 00       	call   0x455b
    2d80:	bf 95 62 11 00       	mov    edi,0x116295
    2d85:	e8 7e 17 00 00       	call   0x4508
    2d8a:	bf 97 62 11 00       	mov    edi,0x116297
    2d8f:	e8 74 17 00 00       	call   0x4508
    2d94:	48 8b 45 a8          	mov    rax,QWORD PTR [rbp-0x58]
    2d98:	48 8b 40 08          	mov    rax,QWORD PTR [rax+0x8]
    2d9c:	48 89 c7             	mov    rdi,rax
    2d9f:	e8 b7 17 00 00       	call   0x455b
    2da4:	bf 95 62 11 00       	mov    edi,0x116295
    2da9:	e8 5a 17 00 00       	call   0x4508
    2dae:	bf 9c 62 11 00       	mov    edi,0x11629c
    2db3:	e8 50 17 00 00       	call   0x4508
    2db8:	48 8b 45 a8          	mov    rax,QWORD PTR [rbp-0x58]
    2dbc:	48 8b 40 10          	mov    rax,QWORD PTR [rax+0x10]
    2dc0:	48 89 c7             	mov    rdi,rax
    2dc3:	e8 93 17 00 00       	call   0x455b
    2dc8:	bf 95 62 11 00       	mov    edi,0x116295
    2dcd:	e8 36 17 00 00       	call   0x4508
    2dd2:	bf a5 62 11 00       	mov    edi,0x1162a5
    2dd7:	e8 2c 17 00 00       	call   0x4508
    2ddc:	48 8b 45 a8          	mov    rax,QWORD PTR [rbp-0x58]
    2de0:	48 8b 40 18          	mov    rax,QWORD PTR [rax+0x18]
    2de4:	48 89 c7             	mov    rdi,rax
    2de7:	e8 6f 17 00 00       	call   0x455b
    2dec:	bf 95 62 11 00       	mov    edi,0x116295
    2df1:	e8 12 17 00 00       	call   0x4508
    2df6:	bf ab 62 11 00       	mov    edi,0x1162ab
    2dfb:	e8 08 17 00 00       	call   0x4508
    2e00:	48 8b 45 a8          	mov    rax,QWORD PTR [rbp-0x58]
    2e04:	48 8b 40 20          	mov    rax,QWORD PTR [rax+0x20]
    2e08:	48 89 c7             	mov    rdi,rax
    2e0b:	e8 4b 17 00 00       	call   0x455b
    2e10:	bf b0 62 11 00       	mov    edi,0x1162b0
    2e15:	e8 ee 16 00 00       	call   0x4508
    2e1a:	48 8b 05 27 50 00 00 	mov    rax,QWORD PTR [rip+0x5027]        # 0x7e48
    2e21:	41 b9 55 63 11 00    	mov    r9d,0x116355
    2e27:	49 89 c0             	mov    r8,rax
    2e2a:	8b 0d ec 4f 00 00    	mov    ecx,DWORD PTR [rip+0x4fec]        # 0x7e1c
    2e30:	8b 15 da 4f 00 00    	mov    edx,DWORD PTR [rip+0x4fda]        # 0x7e10
    2e36:	be f4 01 00 00       	mov    esi,0x1f4
    2e3b:	bf 58 02 00 00       	mov    edi,0x258
    2e40:	e8 8b db ff ff       	call   0x9d0
    2e45:	f4                   	hlt    
    2e46:	eb fd                	jmp    0x2e45
0x0000000000112e48: br_handler
    2e48:	55                   	push   rbp
    2e49:	48 89 e5             	mov    rbp,rsp
    2e4c:	41 53                	push   r11
    2e4e:	41 52                	push   r10
    2e50:	41 51                	push   r9
    2e52:	41 50                	push   r8
    2e54:	57                   	push   rdi
    2e55:	56                   	push   rsi
    2e56:	51                   	push   rcx
    2e57:	52                   	push   rdx
    2e58:	50                   	push   rax
    2e59:	48 83 ec 18          	sub    rsp,0x18
    2e5d:	48 8d 45 08          	lea    rax,[rbp+0x8]
    2e61:	48 89 45 a8          	mov    QWORD PTR [rbp-0x58],rax
    2e65:	fc                   	cld    
    2e66:	e8 b9 ec ff ff       	call   0x1b24
    2e6b:	bf 59 63 11 00       	mov    edi,0x116359
    2e70:	e8 93 16 00 00       	call   0x4508
    2e75:	bf 8f 62 11 00       	mov    edi,0x11628f
    2e7a:	e8 89 16 00 00       	call   0x4508
    2e7f:	48 8b 45 a8          	mov    rax,QWORD PTR [rbp-0x58]
    2e83:	48 8b 00             	mov    rax,QWORD PTR [rax]
    2e86:	48 89 c7             	mov    rdi,rax
    2e89:	e8 cd 16 00 00       	call   0x455b
    2e8e:	bf 95 62 11 00       	mov    edi,0x116295
    2e93:	e8 70 16 00 00       	call   0x4508
    2e98:	bf 97 62 11 00       	mov    edi,0x116297
    2e9d:	e8 66 16 00 00       	call   0x4508
    2ea2:	48 8b 45 a8          	mov    rax,QWORD PTR [rbp-0x58]
    2ea6:	48 8b 40 08          	mov    rax,QWORD PTR [rax+0x8]
    2eaa:	48 89 c7             	mov    rdi,rax
    2ead:	e8 a9 16 00 00       	call   0x455b
    2eb2:	bf 95 62 11 00       	mov    edi,0x116295
    2eb7:	e8 4c 16 00 00       	call   0x4508
    2ebc:	bf 9c 62 11 00       	mov    edi,0x11629c
    2ec1:	e8 42 16 00 00       	call   0x4508
    2ec6:	48 8b 45 a8          	mov    rax,QWORD PTR [rbp-0x58]
    2eca:	48 8b 40 10          	mov    rax,QWORD PTR [rax+0x10]
    2ece:	48 89 c7             	mov    rdi,rax
    2ed1:	e8 85 16 00 00       	call   0x455b
    2ed6:	bf 95 62 11 00       	mov    edi,0x116295
    2edb:	e8 28 16 00 00       	call   0x4508
    2ee0:	bf a5 62 11 00       	mov    edi,0x1162a5
    2ee5:	e8 1e 16 00 00       	call   0x4508
    2eea:	48 8b 45 a8          	mov    rax,QWORD PTR [rbp-0x58]
    2eee:	48 8b 40 18          	mov    rax,QWORD PTR [rax+0x18]
    2ef2:	48 89 c7             	mov    rdi,rax
    2ef5:	e8 61 16 00 00       	call   0x455b
    2efa:	bf 95 62 11 00       	mov    edi,0x116295
    2eff:	e8 04 16 00 00       	call   0x4508
    2f04:	bf ab 62 11 00       	mov    edi,0x1162ab
    2f09:	e8 fa 15 00 00       	call   0x4508
    2f0e:	48 8b 45 a8          	mov    rax,QWORD PTR [rbp-0x58]
    2f12:	48 8b 40 20          	mov    rax,QWORD PTR [rax+0x20]
    2f16:	48 89 c7             	mov    rdi,rax
    2f19:	e8 3d 16 00 00       	call   0x455b
    2f1e:	bf b0 62 11 00       	mov    edi,0x1162b0
    2f23:	e8 e0 15 00 00       	call   0x4508
    2f28:	48 8b 05 19 4f 00 00 	mov    rax,QWORD PTR [rip+0x4f19]        # 0x7e48
    2f2f:	41 b9 64 63 11 00    	mov    r9d,0x116364
    2f35:	49 89 c0             	mov    r8,rax
    2f38:	8b 0d de 4e 00 00    	mov    ecx,DWORD PTR [rip+0x4ede]        # 0x7e1c
    2f3e:	8b 15 cc 4e 00 00    	mov    edx,DWORD PTR [rip+0x4ecc]        # 0x7e10
    2f44:	be f4 01 00 00       	mov    esi,0x1f4
    2f49:	bf 58 02 00 00       	mov    edi,0x258
    2f4e:	e8 7d da ff ff       	call   0x9d0
    2f53:	f4                   	hlt    
    2f54:	eb fd                	jmp    0x2f53
0x0000000000112f56: ud_handler
    2f56:	55                   	push   rbp
    2f57:	48 89 e5             	mov    rbp,rsp
    2f5a:	41 53                	push   r11
    2f5c:	41 52                	push   r10
    2f5e:	41 51                	push   r9
    2f60:	41 50                	push   r8
    2f62:	57                   	push   rdi
    2f63:	56                   	push   rsi
    2f64:	51                   	push   rcx
    2f65:	52                   	push   rdx
    2f66:	50                   	push   rax
    2f67:	48 81 ec 98 00 00 00 	sub    rsp,0x98
    2f6e:	48 8d 45 08          	lea    rax,[rbp+0x8]
    2f72:	48 89 85 28 ff ff ff 	mov    QWORD PTR [rbp-0xd8],rax
    2f79:	fc                   	cld    
    2f7a:	e8 a5 eb ff ff       	call   0x1b24
    2f7f:	48 8d 95 30 ff ff ff 	lea    rdx,[rbp-0xd0]
    2f86:	b8 00 00 00 00       	mov    eax,0x0
    2f8b:	be 10 00 00 00       	mov    esi,0x10
    2f90:	48 89 d7             	mov    rdi,rdx
    2f93:	48 89 f1             	mov    rcx,rsi
    2f96:	f3 48 ab             	rep stos QWORD PTR es:[rdi],rax
    2f99:	48 8d 85 30 ff ff ff 	lea    rax,[rbp-0xd0]
    2fa0:	48 89 c7             	mov    rdi,rax
    2fa3:	e8 5b f5 ff ff       	call   0x2503
    2fa8:	bf 68 63 11 00       	mov    edi,0x116368
    2fad:	e8 56 15 00 00       	call   0x4508
    2fb2:	bf e8 62 11 00       	mov    edi,0x1162e8
    2fb7:	e8 4c 15 00 00       	call   0x4508
    2fbc:	48 8b 85 30 ff ff ff 	mov    rax,QWORD PTR [rbp-0xd0]
    2fc3:	48 89 c7             	mov    rdi,rax
    2fc6:	e8 90 15 00 00       	call   0x455b
    2fcb:	bf 95 62 11 00       	mov    edi,0x116295
    2fd0:	e8 33 15 00 00       	call   0x4508
    2fd5:	bf ee 62 11 00       	mov    edi,0x1162ee
    2fda:	e8 29 15 00 00       	call   0x4508
    2fdf:	48 8b 85 38 ff ff ff 	mov    rax,QWORD PTR [rbp-0xc8]
    2fe6:	48 89 c7             	mov    rdi,rax
    2fe9:	e8 6d 15 00 00       	call   0x455b
    2fee:	bf 95 62 11 00       	mov    edi,0x116295
    2ff3:	e8 10 15 00 00       	call   0x4508
    2ff8:	bf f4 62 11 00       	mov    edi,0x1162f4
    2ffd:	e8 06 15 00 00       	call   0x4508
    3002:	48 8b 85 40 ff ff ff 	mov    rax,QWORD PTR [rbp-0xc0]
    3009:	48 89 c7             	mov    rdi,rax
    300c:	e8 4a 15 00 00       	call   0x455b
    3011:	bf 95 62 11 00       	mov    edi,0x116295
    3016:	e8 ed 14 00 00       	call   0x4508
    301b:	bf fa 62 11 00       	mov    edi,0x1162fa
    3020:	e8 e3 14 00 00       	call   0x4508
    3025:	48 8b 85 48 ff ff ff 	mov    rax,QWORD PTR [rbp-0xb8]
    302c:	48 89 c7             	mov    rdi,rax
    302f:	e8 27 15 00 00       	call   0x455b
    3034:	bf 95 62 11 00       	mov    edi,0x116295
    3039:	e8 ca 14 00 00       	call   0x4508
    303e:	bf 00 63 11 00       	mov    edi,0x116300
    3043:	e8 c0 14 00 00       	call   0x4508
    3048:	48 8b 85 50 ff ff ff 	mov    rax,QWORD PTR [rbp-0xb0]
    304f:	48 89 c7             	mov    rdi,rax
    3052:	e8 04 15 00 00       	call   0x455b
    3057:	bf 95 62 11 00       	mov    edi,0x116295
    305c:	e8 a7 14 00 00       	call   0x4508
    3061:	bf 06 63 11 00       	mov    edi,0x116306
    3066:	e8 9d 14 00 00       	call   0x4508
    306b:	48 8b 85 58 ff ff ff 	mov    rax,QWORD PTR [rbp-0xa8]
    3072:	48 89 c7             	mov    rdi,rax
    3075:	e8 e1 14 00 00       	call   0x455b
    307a:	bf 95 62 11 00       	mov    edi,0x116295
    307f:	e8 84 14 00 00       	call   0x4508
    3084:	bf 0c 63 11 00       	mov    edi,0x11630c
    3089:	e8 7a 14 00 00       	call   0x4508
    308e:	48 8b 85 60 ff ff ff 	mov    rax,QWORD PTR [rbp-0xa0]
    3095:	48 89 c7             	mov    rdi,rax
    3098:	e8 be 14 00 00       	call   0x455b
    309d:	bf 95 62 11 00       	mov    edi,0x116295
    30a2:	e8 61 14 00 00       	call   0x4508
    30a7:	bf 12 63 11 00       	mov    edi,0x116312
    30ac:	e8 57 14 00 00       	call   0x4508
    30b1:	48 8b 85 68 ff ff ff 	mov    rax,QWORD PTR [rbp-0x98]
    30b8:	48 89 c7             	mov    rdi,rax
    30bb:	e8 9b 14 00 00       	call   0x455b
    30c0:	bf 95 62 11 00       	mov    edi,0x116295
    30c5:	e8 3e 14 00 00       	call   0x4508
    30ca:	bf 18 63 11 00       	mov    edi,0x116318
    30cf:	e8 34 14 00 00       	call   0x4508
    30d4:	48 8b 85 70 ff ff ff 	mov    rax,QWORD PTR [rbp-0x90]
    30db:	48 89 c7             	mov    rdi,rax
    30de:	e8 78 14 00 00       	call   0x455b
    30e3:	bf 95 62 11 00       	mov    edi,0x116295
    30e8:	e8 1b 14 00 00       	call   0x4508
    30ed:	bf 1d 63 11 00       	mov    edi,0x11631d
    30f2:	e8 11 14 00 00       	call   0x4508
    30f7:	48 8b 85 78 ff ff ff 	mov    rax,QWORD PTR [rbp-0x88]
    30fe:	48 89 c7             	mov    rdi,rax
    3101:	e8 55 14 00 00       	call   0x455b
    3106:	bf 95 62 11 00       	mov    edi,0x116295
    310b:	e8 f8 13 00 00       	call   0x4508
    3110:	bf 22 63 11 00       	mov    edi,0x116322
    3115:	e8 ee 13 00 00       	call   0x4508
    311a:	48 8b 45 80          	mov    rax,QWORD PTR [rbp-0x80]
    311e:	48 89 c7             	mov    rdi,rax
    3121:	e8 35 14 00 00       	call   0x455b
    3126:	bf 95 62 11 00       	mov    edi,0x116295
    312b:	e8 d8 13 00 00       	call   0x4508
    3130:	bf 28 63 11 00       	mov    edi,0x116328
    3135:	e8 ce 13 00 00       	call   0x4508
    313a:	48 8b 45 88          	mov    rax,QWORD PTR [rbp-0x78]
    313e:	48 89 c7             	mov    rdi,rax
    3141:	e8 15 14 00 00       	call   0x455b
    3146:	bf 95 62 11 00       	mov    edi,0x116295
    314b:	e8 b8 13 00 00       	call   0x4508
    3150:	bf 2e 63 11 00       	mov    edi,0x11632e
    3155:	e8 ae 13 00 00       	call   0x4508
    315a:	48 8b 45 90          	mov    rax,QWORD PTR [rbp-0x70]
    315e:	48 89 c7             	mov    rdi,rax
    3161:	e8 f5 13 00 00       	call   0x455b
    3166:	bf 95 62 11 00       	mov    edi,0x116295
    316b:	e8 98 13 00 00       	call   0x4508
    3170:	bf 34 63 11 00       	mov    edi,0x116334
    3175:	e8 8e 13 00 00       	call   0x4508
    317a:	48 8b 45 98          	mov    rax,QWORD PTR [rbp-0x68]
    317e:	48 89 c7             	mov    rdi,rax
    3181:	e8 d5 13 00 00       	call   0x455b
    3186:	bf 95 62 11 00       	mov    edi,0x116295
    318b:	e8 78 13 00 00       	call   0x4508
    3190:	bf 3a 63 11 00       	mov    edi,0x11633a
    3195:	e8 6e 13 00 00       	call   0x4508
    319a:	48 8b 45 a0          	mov    rax,QWORD PTR [rbp-0x60]
    319e:	48 89 c7             	mov    rdi,rax
    31a1:	e8 b5 13 00 00       	call   0x455b
    31a6:	bf 95 62 11 00       	mov    edi,0x116295
    31ab:	e8 58 13 00 00       	call   0x4508
    31b0:	bf 40 63 11 00       	mov    edi,0x116340
    31b5:	e8 4e 13 00 00       	call   0x4508
    31ba:	48 8b 45 a8          	mov    rax,QWORD PTR [rbp-0x58]
    31be:	48 89 c7             	mov    rdi,rax
    31c1:	e8 95 13 00 00       	call   0x455b
    31c6:	bf 95 62 11 00       	mov    edi,0x116295
    31cb:	e8 38 13 00 00       	call   0x4508
    31d0:	bf 8f 62 11 00       	mov    edi,0x11628f
    31d5:	e8 2e 13 00 00       	call   0x4508
    31da:	48 8b 85 28 ff ff ff 	mov    rax,QWORD PTR [rbp-0xd8]
    31e1:	48 8b 00             	mov    rax,QWORD PTR [rax]
    31e4:	48 89 c7             	mov    rdi,rax
    31e7:	e8 6f 13 00 00       	call   0x455b
    31ec:	bf 95 62 11 00       	mov    edi,0x116295
    31f1:	e8 12 13 00 00       	call   0x4508
    31f6:	bf 97 62 11 00       	mov    edi,0x116297
    31fb:	e8 08 13 00 00       	call   0x4508
    3200:	48 8b 85 28 ff ff ff 	mov    rax,QWORD PTR [rbp-0xd8]
    3207:	48 8b 40 08          	mov    rax,QWORD PTR [rax+0x8]
    320b:	48 89 c7             	mov    rdi,rax
    320e:	e8 48 13 00 00       	call   0x455b
    3213:	bf 95 62 11 00       	mov    edi,0x116295
    3218:	e8 eb 12 00 00       	call   0x4508
    321d:	bf 9c 62 11 00       	mov    edi,0x11629c
    3222:	e8 e1 12 00 00       	call   0x4508
    3227:	48 8b 85 28 ff ff ff 	mov    rax,QWORD PTR [rbp-0xd8]
    322e:	48 8b 40 10          	mov    rax,QWORD PTR [rax+0x10]
    3232:	48 89 c7             	mov    rdi,rax
    3235:	e8 21 13 00 00       	call   0x455b
    323a:	bf 95 62 11 00       	mov    edi,0x116295
    323f:	e8 c4 12 00 00       	call   0x4508
    3244:	bf a5 62 11 00       	mov    edi,0x1162a5
    3249:	e8 ba 12 00 00       	call   0x4508
    324e:	48 8b 85 28 ff ff ff 	mov    rax,QWORD PTR [rbp-0xd8]
    3255:	48 8b 40 18          	mov    rax,QWORD PTR [rax+0x18]
    3259:	48 89 c7             	mov    rdi,rax
    325c:	e8 fa 12 00 00       	call   0x455b
    3261:	bf 95 62 11 00       	mov    edi,0x116295
    3266:	e8 9d 12 00 00       	call   0x4508
    326b:	bf ab 62 11 00       	mov    edi,0x1162ab
    3270:	e8 93 12 00 00       	call   0x4508
    3275:	48 8b 85 28 ff ff ff 	mov    rax,QWORD PTR [rbp-0xd8]
    327c:	48 8b 40 20          	mov    rax,QWORD PTR [rax+0x20]
    3280:	48 89 c7             	mov    rdi,rax
    3283:	e8 d3 12 00 00       	call   0x455b
    3288:	bf b0 62 11 00       	mov    edi,0x1162b0
    328d:	e8 76 12 00 00       	call   0x4508
    3292:	48 8b 05 af 4b 00 00 	mov    rax,QWORD PTR [rip+0x4baf]        # 0x7e48
    3299:	41 b9 73 63 11 00    	mov    r9d,0x116373
    329f:	49 89 c0             	mov    r8,rax
    32a2:	8b 0d 74 4b 00 00    	mov    ecx,DWORD PTR [rip+0x4b74]        # 0x7e1c
    32a8:	8b 15 62 4b 00 00    	mov    edx,DWORD PTR [rip+0x4b62]        # 0x7e10
    32ae:	be f4 01 00 00       	mov    esi,0x1f4
    32b3:	bf 58 02 00 00       	mov    edi,0x258
    32b8:	e8 13 d7 ff ff       	call   0x9d0
    32bd:	f4                   	hlt    
    32be:	eb fd                	jmp    0x32bd
0x00000000001132c0: nm_handler
    32c0:	55                   	push   rbp
    32c1:	48 89 e5             	mov    rbp,rsp
    32c4:	41 53                	push   r11
    32c6:	41 52                	push   r10
    32c8:	41 51                	push   r9
    32ca:	41 50                	push   r8
    32cc:	57                   	push   rdi
    32cd:	56                   	push   rsi
    32ce:	51                   	push   rcx
    32cf:	52                   	push   rdx
    32d0:	50                   	push   rax
    32d1:	48 83 ec 18          	sub    rsp,0x18
    32d5:	48 8d 45 08          	lea    rax,[rbp+0x8]
    32d9:	48 89 45 a8          	mov    QWORD PTR [rbp-0x58],rax
    32dd:	fc                   	cld    
    32de:	e8 41 e8 ff ff       	call   0x1b24
    32e3:	bf 77 63 11 00       	mov    edi,0x116377
    32e8:	e8 1b 12 00 00       	call   0x4508
    32ed:	bf 8f 62 11 00       	mov    edi,0x11628f
    32f2:	e8 11 12 00 00       	call   0x4508
    32f7:	48 8b 45 a8          	mov    rax,QWORD PTR [rbp-0x58]
    32fb:	48 8b 00             	mov    rax,QWORD PTR [rax]
    32fe:	48 89 c7             	mov    rdi,rax
    3301:	e8 55 12 00 00       	call   0x455b
    3306:	bf 95 62 11 00       	mov    edi,0x116295
    330b:	e8 f8 11 00 00       	call   0x4508
    3310:	bf 97 62 11 00       	mov    edi,0x116297
    3315:	e8 ee 11 00 00       	call   0x4508
    331a:	48 8b 45 a8          	mov    rax,QWORD PTR [rbp-0x58]
    331e:	48 8b 40 08          	mov    rax,QWORD PTR [rax+0x8]
    3322:	48 89 c7             	mov    rdi,rax
    3325:	e8 31 12 00 00       	call   0x455b
    332a:	bf 95 62 11 00       	mov    edi,0x116295
    332f:	e8 d4 11 00 00       	call   0x4508
    3334:	bf 9c 62 11 00       	mov    edi,0x11629c
    3339:	e8 ca 11 00 00       	call   0x4508
    333e:	48 8b 45 a8          	mov    rax,QWORD PTR [rbp-0x58]
    3342:	48 8b 40 10          	mov    rax,QWORD PTR [rax+0x10]
    3346:	48 89 c7             	mov    rdi,rax
    3349:	e8 0d 12 00 00       	call   0x455b
    334e:	bf 95 62 11 00       	mov    edi,0x116295
    3353:	e8 b0 11 00 00       	call   0x4508
    3358:	bf a5 62 11 00       	mov    edi,0x1162a5
    335d:	e8 a6 11 00 00       	call   0x4508
    3362:	48 8b 45 a8          	mov    rax,QWORD PTR [rbp-0x58]
    3366:	48 8b 40 18          	mov    rax,QWORD PTR [rax+0x18]
    336a:	48 89 c7             	mov    rdi,rax
    336d:	e8 e9 11 00 00       	call   0x455b
    3372:	bf 95 62 11 00       	mov    edi,0x116295
    3377:	e8 8c 11 00 00       	call   0x4508
    337c:	bf ab 62 11 00       	mov    edi,0x1162ab
    3381:	e8 82 11 00 00       	call   0x4508
    3386:	48 8b 45 a8          	mov    rax,QWORD PTR [rbp-0x58]
    338a:	48 8b 40 20          	mov    rax,QWORD PTR [rax+0x20]
    338e:	48 89 c7             	mov    rdi,rax
    3391:	e8 c5 11 00 00       	call   0x455b
    3396:	bf b0 62 11 00       	mov    edi,0x1162b0
    339b:	e8 68 11 00 00       	call   0x4508
    33a0:	48 8b 05 a1 4a 00 00 	mov    rax,QWORD PTR [rip+0x4aa1]        # 0x7e48
    33a7:	41 b9 82 63 11 00    	mov    r9d,0x116382
    33ad:	49 89 c0             	mov    r8,rax
    33b0:	8b 0d 66 4a 00 00    	mov    ecx,DWORD PTR [rip+0x4a66]        # 0x7e1c
    33b6:	8b 15 54 4a 00 00    	mov    edx,DWORD PTR [rip+0x4a54]        # 0x7e10
    33bc:	be f4 01 00 00       	mov    esi,0x1f4
    33c1:	bf 58 02 00 00       	mov    edi,0x258
    33c6:	e8 05 d6 ff ff       	call   0x9d0
    33cb:	f4                   	hlt    
    33cc:	eb fd                	jmp    0x33cb
0x00000000001133ce: df_handler
    33ce:	55                   	push   rbp
    33cf:	48 89 e5             	mov    rbp,rsp
    33d2:	41 53                	push   r11
    33d4:	41 52                	push   r10
    33d6:	41 51                	push   r9
    33d8:	41 50                	push   r8
    33da:	57                   	push   rdi
    33db:	56                   	push   rsi
    33dc:	51                   	push   rcx
    33dd:	52                   	push   rdx
    33de:	50                   	push   rax
    33df:	48 83 ec 10          	sub    rsp,0x10
    33e3:	48 8d 45 10          	lea    rax,[rbp+0x10]
    33e7:	48 89 45 b0          	mov    QWORD PTR [rbp-0x50],rax
    33eb:	48 8b 45 08          	mov    rax,QWORD PTR [rbp+0x8]
    33ef:	48 89 45 a8          	mov    QWORD PTR [rbp-0x58],rax
    33f3:	fc                   	cld    
    33f4:	e8 2b e7 ff ff       	call   0x1b24
    33f9:	bf 86 63 11 00       	mov    edi,0x116386
    33fe:	e8 05 11 00 00       	call   0x4508
    3403:	48 8b 45 a8          	mov    rax,QWORD PTR [rbp-0x58]
    3407:	48 89 c7             	mov    rdi,rax
    340a:	e8 4c 11 00 00       	call   0x455b
    340f:	bf 95 62 11 00       	mov    edi,0x116295
    3414:	e8 ef 10 00 00       	call   0x4508
    3419:	bf 8f 62 11 00       	mov    edi,0x11628f
    341e:	e8 e5 10 00 00       	call   0x4508
    3423:	48 8b 45 b0          	mov    rax,QWORD PTR [rbp-0x50]
    3427:	48 8b 00             	mov    rax,QWORD PTR [rax]
    342a:	48 89 c7             	mov    rdi,rax
    342d:	e8 29 11 00 00       	call   0x455b
    3432:	bf 95 62 11 00       	mov    edi,0x116295
    3437:	e8 cc 10 00 00       	call   0x4508
    343c:	bf 97 62 11 00       	mov    edi,0x116297
    3441:	e8 c2 10 00 00       	call   0x4508
    3446:	48 8b 45 b0          	mov    rax,QWORD PTR [rbp-0x50]
    344a:	48 8b 40 08          	mov    rax,QWORD PTR [rax+0x8]
    344e:	48 89 c7             	mov    rdi,rax
    3451:	e8 05 11 00 00       	call   0x455b
    3456:	bf 95 62 11 00       	mov    edi,0x116295
    345b:	e8 a8 10 00 00       	call   0x4508
    3460:	bf 9c 62 11 00       	mov    edi,0x11629c
    3465:	e8 9e 10 00 00       	call   0x4508
    346a:	48 8b 45 b0          	mov    rax,QWORD PTR [rbp-0x50]
    346e:	48 8b 40 10          	mov    rax,QWORD PTR [rax+0x10]
    3472:	48 89 c7             	mov    rdi,rax
    3475:	e8 e1 10 00 00       	call   0x455b
    347a:	bf 95 62 11 00       	mov    edi,0x116295
    347f:	e8 84 10 00 00       	call   0x4508
    3484:	bf a5 62 11 00       	mov    edi,0x1162a5
    3489:	e8 7a 10 00 00       	call   0x4508
    348e:	48 8b 45 b0          	mov    rax,QWORD PTR [rbp-0x50]
    3492:	48 8b 40 18          	mov    rax,QWORD PTR [rax+0x18]
    3496:	48 89 c7             	mov    rdi,rax
    3499:	e8 bd 10 00 00       	call   0x455b
    349e:	bf 95 62 11 00       	mov    edi,0x116295
    34a3:	e8 60 10 00 00       	call   0x4508
    34a8:	bf ab 62 11 00       	mov    edi,0x1162ab
    34ad:	e8 56 10 00 00       	call   0x4508
    34b2:	48 8b 45 b0          	mov    rax,QWORD PTR [rbp-0x50]
    34b6:	48 8b 40 20          	mov    rax,QWORD PTR [rax+0x20]
    34ba:	48 89 c7             	mov    rdi,rax
    34bd:	e8 99 10 00 00       	call   0x455b
    34c2:	bf b0 62 11 00       	mov    edi,0x1162b0
    34c7:	e8 3c 10 00 00       	call   0x4508
    34cc:	48 8b 05 75 49 00 00 	mov    rax,QWORD PTR [rip+0x4975]        # 0x7e48
    34d3:	41 b9 98 63 11 00    	mov    r9d,0x116398
    34d9:	49 89 c0             	mov    r8,rax
    34dc:	8b 0d 3a 49 00 00    	mov    ecx,DWORD PTR [rip+0x493a]        # 0x7e1c
    34e2:	8b 15 28 49 00 00    	mov    edx,DWORD PTR [rip+0x4928]        # 0x7e10
    34e8:	be f4 01 00 00       	mov    esi,0x1f4
    34ed:	bf 58 02 00 00       	mov    edi,0x258
    34f2:	e8 d9 d4 ff ff       	call   0x9d0
    34f7:	f4                   	hlt    
    34f8:	eb fd                	jmp    0x34f7
0x00000000001134fa: ts_handler
    34fa:	55                   	push   rbp
    34fb:	48 89 e5             	mov    rbp,rsp
    34fe:	41 53                	push   r11
    3500:	41 52                	push   r10
    3502:	41 51                	push   r9
    3504:	41 50                	push   r8
    3506:	57                   	push   rdi
    3507:	56                   	push   rsi
    3508:	51                   	push   rcx
    3509:	52                   	push   rdx
    350a:	50                   	push   rax
    350b:	48 83 ec 10          	sub    rsp,0x10
    350f:	48 8d 45 10          	lea    rax,[rbp+0x10]
    3513:	48 89 45 b0          	mov    QWORD PTR [rbp-0x50],rax
    3517:	48 8b 45 08          	mov    rax,QWORD PTR [rbp+0x8]
    351b:	48 89 45 a8          	mov    QWORD PTR [rbp-0x58],rax
    351f:	fc                   	cld    
    3520:	e8 ff e5 ff ff       	call   0x1b24
    3525:	bf 9c 63 11 00       	mov    edi,0x11639c
    352a:	e8 d9 0f 00 00       	call   0x4508
    352f:	48 8b 45 a8          	mov    rax,QWORD PTR [rbp-0x58]
    3533:	48 89 c7             	mov    rdi,rax
    3536:	e8 20 10 00 00       	call   0x455b
    353b:	bf 95 62 11 00       	mov    edi,0x116295
    3540:	e8 c3 0f 00 00       	call   0x4508
    3545:	bf 8f 62 11 00       	mov    edi,0x11628f
    354a:	e8 b9 0f 00 00       	call   0x4508
    354f:	48 8b 45 b0          	mov    rax,QWORD PTR [rbp-0x50]
    3553:	48 8b 00             	mov    rax,QWORD PTR [rax]
    3556:	48 89 c7             	mov    rdi,rax
    3559:	e8 fd 0f 00 00       	call   0x455b
    355e:	bf 95 62 11 00       	mov    edi,0x116295
    3563:	e8 a0 0f 00 00       	call   0x4508
    3568:	bf 97 62 11 00       	mov    edi,0x116297
    356d:	e8 96 0f 00 00       	call   0x4508
    3572:	48 8b 45 b0          	mov    rax,QWORD PTR [rbp-0x50]
    3576:	48 8b 40 08          	mov    rax,QWORD PTR [rax+0x8]
    357a:	48 89 c7             	mov    rdi,rax
    357d:	e8 d9 0f 00 00       	call   0x455b
    3582:	bf 95 62 11 00       	mov    edi,0x116295
    3587:	e8 7c 0f 00 00       	call   0x4508
    358c:	bf 9c 62 11 00       	mov    edi,0x11629c
    3591:	e8 72 0f 00 00       	call   0x4508
    3596:	48 8b 45 b0          	mov    rax,QWORD PTR [rbp-0x50]
    359a:	48 8b 40 10          	mov    rax,QWORD PTR [rax+0x10]
    359e:	48 89 c7             	mov    rdi,rax
    35a1:	e8 b5 0f 00 00       	call   0x455b
    35a6:	bf 95 62 11 00       	mov    edi,0x116295
    35ab:	e8 58 0f 00 00       	call   0x4508
    35b0:	bf a5 62 11 00       	mov    edi,0x1162a5
    35b5:	e8 4e 0f 00 00       	call   0x4508
    35ba:	48 8b 45 b0          	mov    rax,QWORD PTR [rbp-0x50]
    35be:	48 8b 40 18          	mov    rax,QWORD PTR [rax+0x18]
    35c2:	48 89 c7             	mov    rdi,rax
    35c5:	e8 91 0f 00 00       	call   0x455b
    35ca:	bf 95 62 11 00       	mov    edi,0x116295
    35cf:	e8 34 0f 00 00       	call   0x4508
    35d4:	bf ab 62 11 00       	mov    edi,0x1162ab
    35d9:	e8 2a 0f 00 00       	call   0x4508
    35de:	48 8b 45 b0          	mov    rax,QWORD PTR [rbp-0x50]
    35e2:	48 8b 40 20          	mov    rax,QWORD PTR [rax+0x20]
    35e6:	48 89 c7             	mov    rdi,rax
    35e9:	e8 6d 0f 00 00       	call   0x455b
    35ee:	bf b0 62 11 00       	mov    edi,0x1162b0
    35f3:	e8 10 0f 00 00       	call   0x4508
    35f8:	48 8b 05 49 48 00 00 	mov    rax,QWORD PTR [rip+0x4849]        # 0x7e48
    35ff:	41 b9 ae 63 11 00    	mov    r9d,0x1163ae
    3605:	49 89 c0             	mov    r8,rax
    3608:	8b 0d 0e 48 00 00    	mov    ecx,DWORD PTR [rip+0x480e]        # 0x7e1c
    360e:	8b 15 fc 47 00 00    	mov    edx,DWORD PTR [rip+0x47fc]        # 0x7e10
    3614:	be f4 01 00 00       	mov    esi,0x1f4
    3619:	bf 58 02 00 00       	mov    edi,0x258
    361e:	e8 ad d3 ff ff       	call   0x9d0
    3623:	f4                   	hlt    
    3624:	eb fd                	jmp    0x3623
0x0000000000113626: np_handler
    3626:	55                   	push   rbp
    3627:	48 89 e5             	mov    rbp,rsp
    362a:	41 53                	push   r11
    362c:	41 52                	push   r10
    362e:	41 51                	push   r9
    3630:	41 50                	push   r8
    3632:	57                   	push   rdi
    3633:	56                   	push   rsi
    3634:	51                   	push   rcx
    3635:	52                   	push   rdx
    3636:	50                   	push   rax
    3637:	48 83 ec 10          	sub    rsp,0x10
    363b:	48 8d 45 10          	lea    rax,[rbp+0x10]
    363f:	48 89 45 b0          	mov    QWORD PTR [rbp-0x50],rax
    3643:	48 8b 45 08          	mov    rax,QWORD PTR [rbp+0x8]
    3647:	48 89 45 a8          	mov    QWORD PTR [rbp-0x58],rax
    364b:	fc                   	cld    
    364c:	e8 d3 e4 ff ff       	call   0x1b24
    3651:	bf b2 63 11 00       	mov    edi,0x1163b2
    3656:	e8 ad 0e 00 00       	call   0x4508
    365b:	48 8b 45 a8          	mov    rax,QWORD PTR [rbp-0x58]
    365f:	48 89 c7             	mov    rdi,rax
    3662:	e8 f4 0e 00 00       	call   0x455b
    3667:	bf 95 62 11 00       	mov    edi,0x116295
    366c:	e8 97 0e 00 00       	call   0x4508
    3671:	bf 8f 62 11 00       	mov    edi,0x11628f
    3676:	e8 8d 0e 00 00       	call   0x4508
    367b:	48 8b 45 b0          	mov    rax,QWORD PTR [rbp-0x50]
    367f:	48 8b 00             	mov    rax,QWORD PTR [rax]
    3682:	48 89 c7             	mov    rdi,rax
    3685:	e8 d1 0e 00 00       	call   0x455b
    368a:	bf 95 62 11 00       	mov    edi,0x116295
    368f:	e8 74 0e 00 00       	call   0x4508
    3694:	bf 97 62 11 00       	mov    edi,0x116297
    3699:	e8 6a 0e 00 00       	call   0x4508
    369e:	48 8b 45 b0          	mov    rax,QWORD PTR [rbp-0x50]
    36a2:	48 8b 40 08          	mov    rax,QWORD PTR [rax+0x8]
    36a6:	48 89 c7             	mov    rdi,rax
    36a9:	e8 ad 0e 00 00       	call   0x455b
    36ae:	bf 95 62 11 00       	mov    edi,0x116295
    36b3:	e8 50 0e 00 00       	call   0x4508
    36b8:	bf 9c 62 11 00       	mov    edi,0x11629c
    36bd:	e8 46 0e 00 00       	call   0x4508
    36c2:	48 8b 45 b0          	mov    rax,QWORD PTR [rbp-0x50]
    36c6:	48 8b 40 10          	mov    rax,QWORD PTR [rax+0x10]
    36ca:	48 89 c7             	mov    rdi,rax
    36cd:	e8 89 0e 00 00       	call   0x455b
    36d2:	bf 95 62 11 00       	mov    edi,0x116295
    36d7:	e8 2c 0e 00 00       	call   0x4508
    36dc:	bf a5 62 11 00       	mov    edi,0x1162a5
    36e1:	e8 22 0e 00 00       	call   0x4508
    36e6:	48 8b 45 b0          	mov    rax,QWORD PTR [rbp-0x50]
    36ea:	48 8b 40 18          	mov    rax,QWORD PTR [rax+0x18]
    36ee:	48 89 c7             	mov    rdi,rax
    36f1:	e8 65 0e 00 00       	call   0x455b
    36f6:	bf 95 62 11 00       	mov    edi,0x116295
    36fb:	e8 08 0e 00 00       	call   0x4508
    3700:	bf ab 62 11 00       	mov    edi,0x1162ab
    3705:	e8 fe 0d 00 00       	call   0x4508
    370a:	48 8b 45 b0          	mov    rax,QWORD PTR [rbp-0x50]
    370e:	48 8b 40 20          	mov    rax,QWORD PTR [rax+0x20]
    3712:	48 89 c7             	mov    rdi,rax
    3715:	e8 41 0e 00 00       	call   0x455b
    371a:	bf b0 62 11 00       	mov    edi,0x1162b0
    371f:	e8 e4 0d 00 00       	call   0x4508
    3724:	48 8b 05 1d 47 00 00 	mov    rax,QWORD PTR [rip+0x471d]        # 0x7e48
    372b:	41 b9 c4 63 11 00    	mov    r9d,0x1163c4
    3731:	49 89 c0             	mov    r8,rax
    3734:	8b 0d e2 46 00 00    	mov    ecx,DWORD PTR [rip+0x46e2]        # 0x7e1c
    373a:	8b 15 d0 46 00 00    	mov    edx,DWORD PTR [rip+0x46d0]        # 0x7e10
    3740:	be f4 01 00 00       	mov    esi,0x1f4
    3745:	bf 58 02 00 00       	mov    edi,0x258
    374a:	e8 81 d2 ff ff       	call   0x9d0
    374f:	f4                   	hlt    
    3750:	eb fd                	jmp    0x374f
0x0000000000113752: ss_handler
    3752:	55                   	push   rbp
    3753:	48 89 e5             	mov    rbp,rsp
    3756:	41 53                	push   r11
    3758:	41 52                	push   r10
    375a:	41 51                	push   r9
    375c:	41 50                	push   r8
    375e:	57                   	push   rdi
    375f:	56                   	push   rsi
    3760:	51                   	push   rcx
    3761:	52                   	push   rdx
    3762:	50                   	push   rax
    3763:	48 83 ec 10          	sub    rsp,0x10
    3767:	48 8d 45 10          	lea    rax,[rbp+0x10]
    376b:	48 89 45 b0          	mov    QWORD PTR [rbp-0x50],rax
    376f:	48 8b 45 08          	mov    rax,QWORD PTR [rbp+0x8]
    3773:	48 89 45 a8          	mov    QWORD PTR [rbp-0x58],rax
    3777:	fc                   	cld    
    3778:	e8 a7 e3 ff ff       	call   0x1b24
    377d:	bf c8 63 11 00       	mov    edi,0x1163c8
    3782:	e8 81 0d 00 00       	call   0x4508
    3787:	48 8b 45 a8          	mov    rax,QWORD PTR [rbp-0x58]
    378b:	48 89 c7             	mov    rdi,rax
    378e:	e8 c8 0d 00 00       	call   0x455b
    3793:	bf 95 62 11 00       	mov    edi,0x116295
    3798:	e8 6b 0d 00 00       	call   0x4508
    379d:	bf 8f 62 11 00       	mov    edi,0x11628f
    37a2:	e8 61 0d 00 00       	call   0x4508
    37a7:	48 8b 45 b0          	mov    rax,QWORD PTR [rbp-0x50]
    37ab:	48 8b 00             	mov    rax,QWORD PTR [rax]
    37ae:	48 89 c7             	mov    rdi,rax
    37b1:	e8 a5 0d 00 00       	call   0x455b
    37b6:	bf 95 62 11 00       	mov    edi,0x116295
    37bb:	e8 48 0d 00 00       	call   0x4508
    37c0:	bf 97 62 11 00       	mov    edi,0x116297
    37c5:	e8 3e 0d 00 00       	call   0x4508
    37ca:	48 8b 45 b0          	mov    rax,QWORD PTR [rbp-0x50]
    37ce:	48 8b 40 08          	mov    rax,QWORD PTR [rax+0x8]
    37d2:	48 89 c7             	mov    rdi,rax
    37d5:	e8 81 0d 00 00       	call   0x455b
    37da:	bf 95 62 11 00       	mov    edi,0x116295
    37df:	e8 24 0d 00 00       	call   0x4508
    37e4:	bf 9c 62 11 00       	mov    edi,0x11629c
    37e9:	e8 1a 0d 00 00       	call   0x4508
    37ee:	48 8b 45 b0          	mov    rax,QWORD PTR [rbp-0x50]
    37f2:	48 8b 40 10          	mov    rax,QWORD PTR [rax+0x10]
    37f6:	48 89 c7             	mov    rdi,rax
    37f9:	e8 5d 0d 00 00       	call   0x455b
    37fe:	bf 95 62 11 00       	mov    edi,0x116295
    3803:	e8 00 0d 00 00       	call   0x4508
    3808:	bf a5 62 11 00       	mov    edi,0x1162a5
    380d:	e8 f6 0c 00 00       	call   0x4508
    3812:	48 8b 45 b0          	mov    rax,QWORD PTR [rbp-0x50]
    3816:	48 8b 40 18          	mov    rax,QWORD PTR [rax+0x18]
    381a:	48 89 c7             	mov    rdi,rax
    381d:	e8 39 0d 00 00       	call   0x455b
    3822:	bf 95 62 11 00       	mov    edi,0x116295
    3827:	e8 dc 0c 00 00       	call   0x4508
    382c:	bf ab 62 11 00       	mov    edi,0x1162ab
    3831:	e8 d2 0c 00 00       	call   0x4508
    3836:	48 8b 45 b0          	mov    rax,QWORD PTR [rbp-0x50]
    383a:	48 8b 40 20          	mov    rax,QWORD PTR [rax+0x20]
    383e:	48 89 c7             	mov    rdi,rax
    3841:	e8 15 0d 00 00       	call   0x455b
    3846:	bf b0 62 11 00       	mov    edi,0x1162b0
    384b:	e8 b8 0c 00 00       	call   0x4508
    3850:	48 8b 05 f1 45 00 00 	mov    rax,QWORD PTR [rip+0x45f1]        # 0x7e48
    3857:	41 b9 da 63 11 00    	mov    r9d,0x1163da
    385d:	49 89 c0             	mov    r8,rax
    3860:	8b 0d b6 45 00 00    	mov    ecx,DWORD PTR [rip+0x45b6]        # 0x7e1c
    3866:	8b 15 a4 45 00 00    	mov    edx,DWORD PTR [rip+0x45a4]        # 0x7e10
    386c:	be f4 01 00 00       	mov    esi,0x1f4
    3871:	bf 58 02 00 00       	mov    edi,0x258
    3876:	e8 55 d1 ff ff       	call   0x9d0
    387b:	f4                   	hlt    
    387c:	eb fd                	jmp    0x387b
0x000000000011387e: gp_handler
    387e:	55                   	push   rbp
    387f:	48 89 e5             	mov    rbp,rsp
    3882:	41 53                	push   r11
    3884:	41 52                	push   r10
    3886:	41 51                	push   r9
    3888:	41 50                	push   r8
    388a:	57                   	push   rdi
    388b:	56                   	push   rsi
    388c:	51                   	push   rcx
    388d:	52                   	push   rdx
    388e:	50                   	push   rax
    388f:	48 83 ec 10          	sub    rsp,0x10
    3893:	48 8d 45 10          	lea    rax,[rbp+0x10]
    3897:	48 89 45 b0          	mov    QWORD PTR [rbp-0x50],rax
    389b:	48 8b 45 08          	mov    rax,QWORD PTR [rbp+0x8]
    389f:	48 89 45 a8          	mov    QWORD PTR [rbp-0x58],rax
    38a3:	fc                   	cld    
    38a4:	e8 7b e2 ff ff       	call   0x1b24
    38a9:	bf de 63 11 00       	mov    edi,0x1163de
    38ae:	e8 55 0c 00 00       	call   0x4508
    38b3:	48 8b 45 a8          	mov    rax,QWORD PTR [rbp-0x58]
    38b7:	48 89 c7             	mov    rdi,rax
    38ba:	e8 9c 0c 00 00       	call   0x455b
    38bf:	bf 95 62 11 00       	mov    edi,0x116295
    38c4:	e8 3f 0c 00 00       	call   0x4508
    38c9:	bf 8f 62 11 00       	mov    edi,0x11628f
    38ce:	e8 35 0c 00 00       	call   0x4508
    38d3:	48 8b 45 b0          	mov    rax,QWORD PTR [rbp-0x50]
    38d7:	48 8b 00             	mov    rax,QWORD PTR [rax]
    38da:	48 89 c7             	mov    rdi,rax
    38dd:	e8 79 0c 00 00       	call   0x455b
    38e2:	bf 95 62 11 00       	mov    edi,0x116295
    38e7:	e8 1c 0c 00 00       	call   0x4508
    38ec:	bf 97 62 11 00       	mov    edi,0x116297
    38f1:	e8 12 0c 00 00       	call   0x4508
    38f6:	48 8b 45 b0          	mov    rax,QWORD PTR [rbp-0x50]
    38fa:	48 8b 40 08          	mov    rax,QWORD PTR [rax+0x8]
    38fe:	48 89 c7             	mov    rdi,rax
    3901:	e8 55 0c 00 00       	call   0x455b
    3906:	bf 95 62 11 00       	mov    edi,0x116295
    390b:	e8 f8 0b 00 00       	call   0x4508
    3910:	bf 9c 62 11 00       	mov    edi,0x11629c
    3915:	e8 ee 0b 00 00       	call   0x4508
    391a:	48 8b 45 b0          	mov    rax,QWORD PTR [rbp-0x50]
    391e:	48 8b 40 10          	mov    rax,QWORD PTR [rax+0x10]
    3922:	48 89 c7             	mov    rdi,rax
    3925:	e8 31 0c 00 00       	call   0x455b
    392a:	bf 95 62 11 00       	mov    edi,0x116295
    392f:	e8 d4 0b 00 00       	call   0x4508
    3934:	bf a5 62 11 00       	mov    edi,0x1162a5
    3939:	e8 ca 0b 00 00       	call   0x4508
    393e:	48 8b 45 b0          	mov    rax,QWORD PTR [rbp-0x50]
    3942:	48 8b 40 18          	mov    rax,QWORD PTR [rax+0x18]
    3946:	48 89 c7             	mov    rdi,rax
    3949:	e8 0d 0c 00 00       	call   0x455b
    394e:	bf 95 62 11 00       	mov    edi,0x116295
    3953:	e8 b0 0b 00 00       	call   0x4508
    3958:	bf ab 62 11 00       	mov    edi,0x1162ab
    395d:	e8 a6 0b 00 00       	call   0x4508
    3962:	48 8b 45 b0          	mov    rax,QWORD PTR [rbp-0x50]
    3966:	48 8b 40 20          	mov    rax,QWORD PTR [rax+0x20]
    396a:	48 89 c7             	mov    rdi,rax
    396d:	e8 e9 0b 00 00       	call   0x455b
    3972:	bf b0 62 11 00       	mov    edi,0x1162b0
    3977:	e8 8c 0b 00 00       	call   0x4508
    397c:	48 8b 05 c5 44 00 00 	mov    rax,QWORD PTR [rip+0x44c5]        # 0x7e48
    3983:	41 b9 f0 63 11 00    	mov    r9d,0x1163f0
    3989:	49 89 c0             	mov    r8,rax
    398c:	8b 0d 8a 44 00 00    	mov    ecx,DWORD PTR [rip+0x448a]        # 0x7e1c
    3992:	8b 15 78 44 00 00    	mov    edx,DWORD PTR [rip+0x4478]        # 0x7e10
    3998:	be f4 01 00 00       	mov    esi,0x1f4
    399d:	bf 58 02 00 00       	mov    edi,0x258
    39a2:	e8 29 d0 ff ff       	call   0x9d0
    39a7:	f4                   	hlt    
    39a8:	eb fd                	jmp    0x39a7
0x00000000001139aa: pf_handler
    39aa:	55                   	push   rbp
    39ab:	48 89 e5             	mov    rbp,rsp
    39ae:	41 53                	push   r11
    39b0:	41 52                	push   r10
    39b2:	41 51                	push   r9
    39b4:	41 50                	push   r8
    39b6:	57                   	push   rdi
    39b7:	56                   	push   rsi
    39b8:	51                   	push   rcx
    39b9:	52                   	push   rdx
    39ba:	50                   	push   rax
    39bb:	48 81 ec 90 00 00 00 	sub    rsp,0x90
    39c2:	48 8d 45 10          	lea    rax,[rbp+0x10]
    39c6:	48 89 85 30 ff ff ff 	mov    QWORD PTR [rbp-0xd0],rax
    39cd:	48 8b 45 08          	mov    rax,QWORD PTR [rbp+0x8]
    39d1:	48 89 85 28 ff ff ff 	mov    QWORD PTR [rbp-0xd8],rax
    39d8:	fc                   	cld    
    39d9:	e8 46 e1 ff ff       	call   0x1b24
    39de:	48 8d 85 38 ff ff ff 	lea    rax,[rbp-0xc8]
    39e5:	48 89 c7             	mov    rdi,rax
    39e8:	e8 16 eb ff ff       	call   0x2503
    39ed:	bf f4 63 11 00       	mov    edi,0x1163f4
    39f2:	e8 11 0b 00 00       	call   0x4508
    39f7:	bf e8 62 11 00       	mov    edi,0x1162e8
    39fc:	e8 07 0b 00 00       	call   0x4508
    3a01:	48 8b 85 38 ff ff ff 	mov    rax,QWORD PTR [rbp-0xc8]
    3a08:	48 89 c7             	mov    rdi,rax
    3a0b:	e8 4b 0b 00 00       	call   0x455b
    3a10:	bf 95 62 11 00       	mov    edi,0x116295
    3a15:	e8 ee 0a 00 00       	call   0x4508
    3a1a:	bf ee 62 11 00       	mov    edi,0x1162ee
    3a1f:	e8 e4 0a 00 00       	call   0x4508
    3a24:	48 8b 85 40 ff ff ff 	mov    rax,QWORD PTR [rbp-0xc0]
    3a2b:	48 89 c7             	mov    rdi,rax
    3a2e:	e8 28 0b 00 00       	call   0x455b
    3a33:	bf 95 62 11 00       	mov    edi,0x116295
    3a38:	e8 cb 0a 00 00       	call   0x4508
    3a3d:	bf f4 62 11 00       	mov    edi,0x1162f4
    3a42:	e8 c1 0a 00 00       	call   0x4508
    3a47:	48 8b 85 48 ff ff ff 	mov    rax,QWORD PTR [rbp-0xb8]
    3a4e:	48 89 c7             	mov    rdi,rax
    3a51:	e8 05 0b 00 00       	call   0x455b
    3a56:	bf 95 62 11 00       	mov    edi,0x116295
    3a5b:	e8 a8 0a 00 00       	call   0x4508
    3a60:	bf fa 62 11 00       	mov    edi,0x1162fa
    3a65:	e8 9e 0a 00 00       	call   0x4508
    3a6a:	48 8b 85 50 ff ff ff 	mov    rax,QWORD PTR [rbp-0xb0]
    3a71:	48 89 c7             	mov    rdi,rax
    3a74:	e8 e2 0a 00 00       	call   0x455b
    3a79:	bf 95 62 11 00       	mov    edi,0x116295
    3a7e:	e8 85 0a 00 00       	call   0x4508
    3a83:	bf 00 63 11 00       	mov    edi,0x116300
    3a88:	e8 7b 0a 00 00       	call   0x4508
    3a8d:	48 8b 85 58 ff ff ff 	mov    rax,QWORD PTR [rbp-0xa8]
    3a94:	48 89 c7             	mov    rdi,rax
    3a97:	e8 bf 0a 00 00       	call   0x455b
    3a9c:	bf 95 62 11 00       	mov    edi,0x116295
    3aa1:	e8 62 0a 00 00       	call   0x4508
    3aa6:	bf 06 63 11 00       	mov    edi,0x116306
    3aab:	e8 58 0a 00 00       	call   0x4508
    3ab0:	48 8b 85 60 ff ff ff 	mov    rax,QWORD PTR [rbp-0xa0]
    3ab7:	48 89 c7             	mov    rdi,rax
    3aba:	e8 9c 0a 00 00       	call   0x455b
    3abf:	bf 95 62 11 00       	mov    edi,0x116295
    3ac4:	e8 3f 0a 00 00       	call   0x4508
    3ac9:	bf 0c 63 11 00       	mov    edi,0x11630c
    3ace:	e8 35 0a 00 00       	call   0x4508
    3ad3:	48 8b 85 68 ff ff ff 	mov    rax,QWORD PTR [rbp-0x98]
    3ada:	48 89 c7             	mov    rdi,rax
    3add:	e8 79 0a 00 00       	call   0x455b
    3ae2:	bf 95 62 11 00       	mov    edi,0x116295
    3ae7:	e8 1c 0a 00 00       	call   0x4508
    3aec:	bf 12 63 11 00       	mov    edi,0x116312
    3af1:	e8 12 0a 00 00       	call   0x4508
    3af6:	48 8b 85 70 ff ff ff 	mov    rax,QWORD PTR [rbp-0x90]
    3afd:	48 89 c7             	mov    rdi,rax
    3b00:	e8 56 0a 00 00       	call   0x455b
    3b05:	bf 95 62 11 00       	mov    edi,0x116295
    3b0a:	e8 f9 09 00 00       	call   0x4508
    3b0f:	bf 18 63 11 00       	mov    edi,0x116318
    3b14:	e8 ef 09 00 00       	call   0x4508
    3b19:	48 8b 85 78 ff ff ff 	mov    rax,QWORD PTR [rbp-0x88]
    3b20:	48 89 c7             	mov    rdi,rax
    3b23:	e8 33 0a 00 00       	call   0x455b
    3b28:	bf 95 62 11 00       	mov    edi,0x116295
    3b2d:	e8 d6 09 00 00       	call   0x4508
    3b32:	bf 1d 63 11 00       	mov    edi,0x11631d
    3b37:	e8 cc 09 00 00       	call   0x4508
    3b3c:	48 8b 45 80          	mov    rax,QWORD PTR [rbp-0x80]
    3b40:	48 89 c7             	mov    rdi,rax
    3b43:	e8 13 0a 00 00       	call   0x455b
    3b48:	bf 95 62 11 00       	mov    edi,0x116295
    3b4d:	e8 b6 09 00 00       	call   0x4508
    3b52:	bf 22 63 11 00       	mov    edi,0x116322
    3b57:	e8 ac 09 00 00       	call   0x4508
    3b5c:	48 8b 45 88          	mov    rax,QWORD PTR [rbp-0x78]
    3b60:	48 89 c7             	mov    rdi,rax
    3b63:	e8 f3 09 00 00       	call   0x455b
    3b68:	bf 95 62 11 00       	mov    edi,0x116295
    3b6d:	e8 96 09 00 00       	call   0x4508
    3b72:	bf 28 63 11 00       	mov    edi,0x116328
    3b77:	e8 8c 09 00 00       	call   0x4508
    3b7c:	48 8b 45 90          	mov    rax,QWORD PTR [rbp-0x70]
    3b80:	48 89 c7             	mov    rdi,rax
    3b83:	e8 d3 09 00 00       	call   0x455b
    3b88:	bf 95 62 11 00       	mov    edi,0x116295
    3b8d:	e8 76 09 00 00       	call   0x4508
    3b92:	bf 2e 63 11 00       	mov    edi,0x11632e
    3b97:	e8 6c 09 00 00       	call   0x4508
    3b9c:	48 8b 45 98          	mov    rax,QWORD PTR [rbp-0x68]
    3ba0:	48 89 c7             	mov    rdi,rax
    3ba3:	e8 b3 09 00 00       	call   0x455b
    3ba8:	bf 95 62 11 00       	mov    edi,0x116295
    3bad:	e8 56 09 00 00       	call   0x4508
    3bb2:	bf 34 63 11 00       	mov    edi,0x116334
    3bb7:	e8 4c 09 00 00       	call   0x4508
    3bbc:	48 8b 45 a0          	mov    rax,QWORD PTR [rbp-0x60]
    3bc0:	48 89 c7             	mov    rdi,rax
    3bc3:	e8 93 09 00 00       	call   0x455b
    3bc8:	bf 95 62 11 00       	mov    edi,0x116295
    3bcd:	e8 36 09 00 00       	call   0x4508
    3bd2:	bf 3a 63 11 00       	mov    edi,0x11633a
    3bd7:	e8 2c 09 00 00       	call   0x4508
    3bdc:	48 8b 45 a8          	mov    rax,QWORD PTR [rbp-0x58]
    3be0:	48 89 c7             	mov    rdi,rax
    3be3:	e8 73 09 00 00       	call   0x455b
    3be8:	bf 95 62 11 00       	mov    edi,0x116295
    3bed:	e8 16 09 00 00       	call   0x4508
    3bf2:	bf 40 63 11 00       	mov    edi,0x116340
    3bf7:	e8 0c 09 00 00       	call   0x4508
    3bfc:	48 8b 45 b0          	mov    rax,QWORD PTR [rbp-0x50]
    3c00:	48 89 c7             	mov    rdi,rax
    3c03:	e8 53 09 00 00       	call   0x455b
    3c08:	bf 95 62 11 00       	mov    edi,0x116295
    3c0d:	e8 f6 08 00 00       	call   0x4508
    3c12:	bf 01 64 11 00       	mov    edi,0x116401
    3c17:	e8 ec 08 00 00       	call   0x4508
    3c1c:	48 8b 85 28 ff ff ff 	mov    rax,QWORD PTR [rbp-0xd8]
    3c23:	48 89 c7             	mov    rdi,rax
    3c26:	e8 30 09 00 00       	call   0x455b
    3c2b:	bf 95 62 11 00       	mov    edi,0x116295
    3c30:	e8 d3 08 00 00       	call   0x4508
    3c35:	bf 8f 62 11 00       	mov    edi,0x11628f
    3c3a:	e8 c9 08 00 00       	call   0x4508
    3c3f:	48 8b 85 30 ff ff ff 	mov    rax,QWORD PTR [rbp-0xd0]
    3c46:	48 8b 00             	mov    rax,QWORD PTR [rax]
    3c49:	48 89 c7             	mov    rdi,rax
    3c4c:	e8 0a 09 00 00       	call   0x455b
    3c51:	bf 95 62 11 00       	mov    edi,0x116295
    3c56:	e8 ad 08 00 00       	call   0x4508
    3c5b:	bf 97 62 11 00       	mov    edi,0x116297
    3c60:	e8 a3 08 00 00       	call   0x4508
    3c65:	48 8b 85 30 ff ff ff 	mov    rax,QWORD PTR [rbp-0xd0]
    3c6c:	48 8b 40 08          	mov    rax,QWORD PTR [rax+0x8]
    3c70:	48 89 c7             	mov    rdi,rax
    3c73:	e8 e3 08 00 00       	call   0x455b
    3c78:	bf 95 62 11 00       	mov    edi,0x116295
    3c7d:	e8 86 08 00 00       	call   0x4508
    3c82:	bf 9c 62 11 00       	mov    edi,0x11629c
    3c87:	e8 7c 08 00 00       	call   0x4508
    3c8c:	48 8b 85 30 ff ff ff 	mov    rax,QWORD PTR [rbp-0xd0]
    3c93:	48 8b 40 10          	mov    rax,QWORD PTR [rax+0x10]
    3c97:	48 89 c7             	mov    rdi,rax
    3c9a:	e8 bc 08 00 00       	call   0x455b
    3c9f:	bf 95 62 11 00       	mov    edi,0x116295
    3ca4:	e8 5f 08 00 00       	call   0x4508
    3ca9:	bf a5 62 11 00       	mov    edi,0x1162a5
    3cae:	e8 55 08 00 00       	call   0x4508
    3cb3:	48 8b 85 30 ff ff ff 	mov    rax,QWORD PTR [rbp-0xd0]
    3cba:	48 8b 40 18          	mov    rax,QWORD PTR [rax+0x18]
    3cbe:	48 89 c7             	mov    rdi,rax
    3cc1:	e8 95 08 00 00       	call   0x455b
    3cc6:	bf 95 62 11 00       	mov    edi,0x116295
    3ccb:	e8 38 08 00 00       	call   0x4508
    3cd0:	bf ab 62 11 00       	mov    edi,0x1162ab
    3cd5:	e8 2e 08 00 00       	call   0x4508
    3cda:	48 8b 85 30 ff ff ff 	mov    rax,QWORD PTR [rbp-0xd0]
    3ce1:	48 8b 40 20          	mov    rax,QWORD PTR [rax+0x20]
    3ce5:	48 89 c7             	mov    rdi,rax
    3ce8:	e8 6e 08 00 00       	call   0x455b
    3ced:	bf b0 62 11 00       	mov    edi,0x1162b0
    3cf2:	e8 11 08 00 00       	call   0x4508
    3cf7:	48 8b 05 4a 41 00 00 	mov    rax,QWORD PTR [rip+0x414a]        # 0x7e48
    3cfe:	41 b9 13 64 11 00    	mov    r9d,0x116413
    3d04:	49 89 c0             	mov    r8,rax
    3d07:	8b 0d 07 41 00 00    	mov    ecx,DWORD PTR [rip+0x4107]        # 0x7e14
    3d0d:	8b 15 fd 40 00 00    	mov    edx,DWORD PTR [rip+0x40fd]        # 0x7e10
    3d13:	be f4 01 00 00       	mov    esi,0x1f4
    3d18:	bf 58 02 00 00       	mov    edi,0x258
    3d1d:	e8 ae cc ff ff       	call   0x9d0
    3d22:	f4                   	hlt    
    3d23:	eb fd                	jmp    0x3d22
0x0000000000113d25: mf_handler
    3d25:	55                   	push   rbp
    3d26:	48 89 e5             	mov    rbp,rsp
    3d29:	41 53                	push   r11
    3d2b:	41 52                	push   r10
    3d2d:	41 51                	push   r9
    3d2f:	41 50                	push   r8
    3d31:	57                   	push   rdi
    3d32:	56                   	push   rsi
    3d33:	51                   	push   rcx
    3d34:	52                   	push   rdx
    3d35:	50                   	push   rax
    3d36:	48 83 ec 18          	sub    rsp,0x18
    3d3a:	48 8d 45 08          	lea    rax,[rbp+0x8]
    3d3e:	48 89 45 a8          	mov    QWORD PTR [rbp-0x58],rax
    3d42:	fc                   	cld    
    3d43:	e8 dc dd ff ff       	call   0x1b24
    3d48:	bf 17 64 11 00       	mov    edi,0x116417
    3d4d:	e8 b6 07 00 00       	call   0x4508
    3d52:	bf 8f 62 11 00       	mov    edi,0x11628f
    3d57:	e8 ac 07 00 00       	call   0x4508
    3d5c:	48 8b 45 a8          	mov    rax,QWORD PTR [rbp-0x58]
    3d60:	48 8b 00             	mov    rax,QWORD PTR [rax]
    3d63:	48 89 c7             	mov    rdi,rax
    3d66:	e8 f0 07 00 00       	call   0x455b
    3d6b:	bf 95 62 11 00       	mov    edi,0x116295
    3d70:	e8 93 07 00 00       	call   0x4508
    3d75:	bf 97 62 11 00       	mov    edi,0x116297
    3d7a:	e8 89 07 00 00       	call   0x4508
    3d7f:	48 8b 45 a8          	mov    rax,QWORD PTR [rbp-0x58]
    3d83:	48 8b 40 08          	mov    rax,QWORD PTR [rax+0x8]
    3d87:	48 89 c7             	mov    rdi,rax
    3d8a:	e8 cc 07 00 00       	call   0x455b
    3d8f:	bf 95 62 11 00       	mov    edi,0x116295
    3d94:	e8 6f 07 00 00       	call   0x4508
    3d99:	bf 9c 62 11 00       	mov    edi,0x11629c
    3d9e:	e8 65 07 00 00       	call   0x4508
    3da3:	48 8b 45 a8          	mov    rax,QWORD PTR [rbp-0x58]
    3da7:	48 8b 40 10          	mov    rax,QWORD PTR [rax+0x10]
    3dab:	48 89 c7             	mov    rdi,rax
    3dae:	e8 a8 07 00 00       	call   0x455b
    3db3:	bf 95 62 11 00       	mov    edi,0x116295
    3db8:	e8 4b 07 00 00       	call   0x4508
    3dbd:	bf a5 62 11 00       	mov    edi,0x1162a5
    3dc2:	e8 41 07 00 00       	call   0x4508
    3dc7:	48 8b 45 a8          	mov    rax,QWORD PTR [rbp-0x58]
    3dcb:	48 8b 40 18          	mov    rax,QWORD PTR [rax+0x18]
    3dcf:	48 89 c7             	mov    rdi,rax
    3dd2:	e8 84 07 00 00       	call   0x455b
    3dd7:	bf 95 62 11 00       	mov    edi,0x116295
    3ddc:	e8 27 07 00 00       	call   0x4508
    3de1:	bf ab 62 11 00       	mov    edi,0x1162ab
    3de6:	e8 1d 07 00 00       	call   0x4508
    3deb:	48 8b 45 a8          	mov    rax,QWORD PTR [rbp-0x58]
    3def:	48 8b 40 20          	mov    rax,QWORD PTR [rax+0x20]
    3df3:	48 89 c7             	mov    rdi,rax
    3df6:	e8 60 07 00 00       	call   0x455b
    3dfb:	bf b0 62 11 00       	mov    edi,0x1162b0
    3e00:	e8 03 07 00 00       	call   0x4508
    3e05:	48 8b 05 3c 40 00 00 	mov    rax,QWORD PTR [rip+0x403c]        # 0x7e48
    3e0c:	41 b9 22 64 11 00    	mov    r9d,0x116422
    3e12:	49 89 c0             	mov    r8,rax
    3e15:	8b 0d f9 3f 00 00    	mov    ecx,DWORD PTR [rip+0x3ff9]        # 0x7e14
    3e1b:	8b 15 ef 3f 00 00    	mov    edx,DWORD PTR [rip+0x3fef]        # 0x7e10
    3e21:	be f4 01 00 00       	mov    esi,0x1f4
    3e26:	bf 58 02 00 00       	mov    edi,0x258
    3e2b:	e8 a0 cb ff ff       	call   0x9d0
    3e30:	f4                   	hlt    
    3e31:	eb fd                	jmp    0x3e30
0x0000000000113e33: ac_handler
    3e33:	55                   	push   rbp
    3e34:	48 89 e5             	mov    rbp,rsp
    3e37:	41 53                	push   r11
    3e39:	41 52                	push   r10
    3e3b:	41 51                	push   r9
    3e3d:	41 50                	push   r8
    3e3f:	57                   	push   rdi
    3e40:	56                   	push   rsi
    3e41:	51                   	push   rcx
    3e42:	52                   	push   rdx
    3e43:	50                   	push   rax
    3e44:	48 83 ec 10          	sub    rsp,0x10
    3e48:	48 8d 45 10          	lea    rax,[rbp+0x10]
    3e4c:	48 89 45 b0          	mov    QWORD PTR [rbp-0x50],rax
    3e50:	48 8b 45 08          	mov    rax,QWORD PTR [rbp+0x8]
    3e54:	48 89 45 a8          	mov    QWORD PTR [rbp-0x58],rax
    3e58:	fc                   	cld    
    3e59:	e8 c6 dc ff ff       	call   0x1b24
    3e5e:	bf 26 64 11 00       	mov    edi,0x116426
    3e63:	e8 a0 06 00 00       	call   0x4508
    3e68:	48 8b 45 a8          	mov    rax,QWORD PTR [rbp-0x58]
    3e6c:	48 89 c7             	mov    rdi,rax
    3e6f:	e8 e7 06 00 00       	call   0x455b
    3e74:	bf 95 62 11 00       	mov    edi,0x116295
    3e79:	e8 8a 06 00 00       	call   0x4508
    3e7e:	bf 8f 62 11 00       	mov    edi,0x11628f
    3e83:	e8 80 06 00 00       	call   0x4508
    3e88:	48 8b 45 b0          	mov    rax,QWORD PTR [rbp-0x50]
    3e8c:	48 8b 00             	mov    rax,QWORD PTR [rax]
    3e8f:	48 89 c7             	mov    rdi,rax
    3e92:	e8 c4 06 00 00       	call   0x455b
    3e97:	bf 95 62 11 00       	mov    edi,0x116295
    3e9c:	e8 67 06 00 00       	call   0x4508
    3ea1:	bf 97 62 11 00       	mov    edi,0x116297
    3ea6:	e8 5d 06 00 00       	call   0x4508
    3eab:	48 8b 45 b0          	mov    rax,QWORD PTR [rbp-0x50]
    3eaf:	48 8b 40 08          	mov    rax,QWORD PTR [rax+0x8]
    3eb3:	48 89 c7             	mov    rdi,rax
    3eb6:	e8 a0 06 00 00       	call   0x455b
    3ebb:	bf 95 62 11 00       	mov    edi,0x116295
    3ec0:	e8 43 06 00 00       	call   0x4508
    3ec5:	bf 9c 62 11 00       	mov    edi,0x11629c
    3eca:	e8 39 06 00 00       	call   0x4508
    3ecf:	48 8b 45 b0          	mov    rax,QWORD PTR [rbp-0x50]
    3ed3:	48 8b 40 10          	mov    rax,QWORD PTR [rax+0x10]
    3ed7:	48 89 c7             	mov    rdi,rax
    3eda:	e8 7c 06 00 00       	call   0x455b
    3edf:	bf 95 62 11 00       	mov    edi,0x116295
    3ee4:	e8 1f 06 00 00       	call   0x4508
    3ee9:	bf a5 62 11 00       	mov    edi,0x1162a5
    3eee:	e8 15 06 00 00       	call   0x4508
    3ef3:	48 8b 45 b0          	mov    rax,QWORD PTR [rbp-0x50]
    3ef7:	48 8b 40 18          	mov    rax,QWORD PTR [rax+0x18]
    3efb:	48 89 c7             	mov    rdi,rax
    3efe:	e8 58 06 00 00       	call   0x455b
    3f03:	bf 95 62 11 00       	mov    edi,0x116295
    3f08:	e8 fb 05 00 00       	call   0x4508
    3f0d:	bf ab 62 11 00       	mov    edi,0x1162ab
    3f12:	e8 f1 05 00 00       	call   0x4508
    3f17:	48 8b 45 b0          	mov    rax,QWORD PTR [rbp-0x50]
    3f1b:	48 8b 40 20          	mov    rax,QWORD PTR [rax+0x20]
    3f1f:	48 89 c7             	mov    rdi,rax
    3f22:	e8 34 06 00 00       	call   0x455b
    3f27:	bf b0 62 11 00       	mov    edi,0x1162b0
    3f2c:	e8 d7 05 00 00       	call   0x4508
    3f31:	48 8b 05 10 3f 00 00 	mov    rax,QWORD PTR [rip+0x3f10]        # 0x7e48
    3f38:	41 b9 38 64 11 00    	mov    r9d,0x116438
    3f3e:	49 89 c0             	mov    r8,rax
    3f41:	8b 0d cd 3e 00 00    	mov    ecx,DWORD PTR [rip+0x3ecd]        # 0x7e14
    3f47:	8b 15 c3 3e 00 00    	mov    edx,DWORD PTR [rip+0x3ec3]        # 0x7e10
    3f4d:	be f4 01 00 00       	mov    esi,0x1f4
    3f52:	bf 58 02 00 00       	mov    edi,0x258
    3f57:	e8 74 ca ff ff       	call   0x9d0
    3f5c:	f4                   	hlt    
    3f5d:	eb fd                	jmp    0x3f5c
0x0000000000113f5f: mc_handler
    3f5f:	55                   	push   rbp
    3f60:	48 89 e5             	mov    rbp,rsp
    3f63:	41 53                	push   r11
    3f65:	41 52                	push   r10
    3f67:	41 51                	push   r9
    3f69:	41 50                	push   r8
    3f6b:	57                   	push   rdi
    3f6c:	56                   	push   rsi
    3f6d:	51                   	push   rcx
    3f6e:	52                   	push   rdx
    3f6f:	50                   	push   rax
    3f70:	48 83 ec 18          	sub    rsp,0x18
    3f74:	48 8d 45 08          	lea    rax,[rbp+0x8]
    3f78:	48 89 45 a8          	mov    QWORD PTR [rbp-0x58],rax
    3f7c:	fc                   	cld    
    3f7d:	e8 a2 db ff ff       	call   0x1b24
    3f82:	bf 3c 64 11 00       	mov    edi,0x11643c
    3f87:	e8 7c 05 00 00       	call   0x4508
    3f8c:	bf 8f 62 11 00       	mov    edi,0x11628f
    3f91:	e8 72 05 00 00       	call   0x4508
    3f96:	48 8b 45 a8          	mov    rax,QWORD PTR [rbp-0x58]
    3f9a:	48 8b 00             	mov    rax,QWORD PTR [rax]
    3f9d:	48 89 c7             	mov    rdi,rax
    3fa0:	e8 b6 05 00 00       	call   0x455b
    3fa5:	bf 95 62 11 00       	mov    edi,0x116295
    3faa:	e8 59 05 00 00       	call   0x4508
    3faf:	bf 97 62 11 00       	mov    edi,0x116297
    3fb4:	e8 4f 05 00 00       	call   0x4508
    3fb9:	48 8b 45 a8          	mov    rax,QWORD PTR [rbp-0x58]
    3fbd:	48 8b 40 08          	mov    rax,QWORD PTR [rax+0x8]
    3fc1:	48 89 c7             	mov    rdi,rax
    3fc4:	e8 92 05 00 00       	call   0x455b
    3fc9:	bf 95 62 11 00       	mov    edi,0x116295
    3fce:	e8 35 05 00 00       	call   0x4508
    3fd3:	bf 9c 62 11 00       	mov    edi,0x11629c
    3fd8:	e8 2b 05 00 00       	call   0x4508
    3fdd:	48 8b 45 a8          	mov    rax,QWORD PTR [rbp-0x58]
    3fe1:	48 8b 40 10          	mov    rax,QWORD PTR [rax+0x10]
    3fe5:	48 89 c7             	mov    rdi,rax
    3fe8:	e8 6e 05 00 00       	call   0x455b
    3fed:	bf 95 62 11 00       	mov    edi,0x116295
    3ff2:	e8 11 05 00 00       	call   0x4508
    3ff7:	bf a5 62 11 00       	mov    edi,0x1162a5
    3ffc:	e8 07 05 00 00       	call   0x4508
    4001:	48 8b 45 a8          	mov    rax,QWORD PTR [rbp-0x58]
    4005:	48 8b 40 18          	mov    rax,QWORD PTR [rax+0x18]
    4009:	48 89 c7             	mov    rdi,rax
    400c:	e8 4a 05 00 00       	call   0x455b
    4011:	bf 95 62 11 00       	mov    edi,0x116295
    4016:	e8 ed 04 00 00       	call   0x4508
    401b:	bf ab 62 11 00       	mov    edi,0x1162ab
    4020:	e8 e3 04 00 00       	call   0x4508
    4025:	48 8b 45 a8          	mov    rax,QWORD PTR [rbp-0x58]
    4029:	48 8b 40 20          	mov    rax,QWORD PTR [rax+0x20]
    402d:	48 89 c7             	mov    rdi,rax
    4030:	e8 26 05 00 00       	call   0x455b
    4035:	bf b0 62 11 00       	mov    edi,0x1162b0
    403a:	e8 c9 04 00 00       	call   0x4508
    403f:	48 8b 05 02 3e 00 00 	mov    rax,QWORD PTR [rip+0x3e02]        # 0x7e48
    4046:	41 b9 47 64 11 00    	mov    r9d,0x116447
    404c:	49 89 c0             	mov    r8,rax
    404f:	8b 0d bf 3d 00 00    	mov    ecx,DWORD PTR [rip+0x3dbf]        # 0x7e14
    4055:	8b 15 b5 3d 00 00    	mov    edx,DWORD PTR [rip+0x3db5]        # 0x7e10
    405b:	be f4 01 00 00       	mov    esi,0x1f4
    4060:	bf 58 02 00 00       	mov    edi,0x258
    4065:	e8 66 c9 ff ff       	call   0x9d0
    406a:	f4                   	hlt    
    406b:	eb fd                	jmp    0x406a
0x000000000011406d: xm_handler
    406d:	55                   	push   rbp
    406e:	48 89 e5             	mov    rbp,rsp
    4071:	41 53                	push   r11
    4073:	41 52                	push   r10
    4075:	41 51                	push   r9
    4077:	41 50                	push   r8
    4079:	57                   	push   rdi
    407a:	56                   	push   rsi
    407b:	51                   	push   rcx
    407c:	52                   	push   rdx
    407d:	50                   	push   rax
    407e:	48 83 ec 18          	sub    rsp,0x18
    4082:	48 8d 45 08          	lea    rax,[rbp+0x8]
    4086:	48 89 45 a8          	mov    QWORD PTR [rbp-0x58],rax
    408a:	fc                   	cld    
    408b:	e8 94 da ff ff       	call   0x1b24
    4090:	bf 4b 64 11 00       	mov    edi,0x11644b
    4095:	e8 6e 04 00 00       	call   0x4508
    409a:	bf 8f 62 11 00       	mov    edi,0x11628f
    409f:	e8 64 04 00 00       	call   0x4508
    40a4:	48 8b 45 a8          	mov    rax,QWORD PTR [rbp-0x58]
    40a8:	48 8b 00             	mov    rax,QWORD PTR [rax]
    40ab:	48 89 c7             	mov    rdi,rax
    40ae:	e8 a8 04 00 00       	call   0x455b
    40b3:	bf 95 62 11 00       	mov    edi,0x116295
    40b8:	e8 4b 04 00 00       	call   0x4508
    40bd:	bf 97 62 11 00       	mov    edi,0x116297
    40c2:	e8 41 04 00 00       	call   0x4508
    40c7:	48 8b 45 a8          	mov    rax,QWORD PTR [rbp-0x58]
    40cb:	48 8b 40 08          	mov    rax,QWORD PTR [rax+0x8]
    40cf:	48 89 c7             	mov    rdi,rax
    40d2:	e8 84 04 00 00       	call   0x455b
    40d7:	bf 95 62 11 00       	mov    edi,0x116295
    40dc:	e8 27 04 00 00       	call   0x4508
    40e1:	bf 9c 62 11 00       	mov    edi,0x11629c
    40e6:	e8 1d 04 00 00       	call   0x4508
    40eb:	48 8b 45 a8          	mov    rax,QWORD PTR [rbp-0x58]
    40ef:	48 8b 40 10          	mov    rax,QWORD PTR [rax+0x10]
    40f3:	48 89 c7             	mov    rdi,rax
    40f6:	e8 60 04 00 00       	call   0x455b
    40fb:	bf 95 62 11 00       	mov    edi,0x116295
    4100:	e8 03 04 00 00       	call   0x4508
    4105:	bf a5 62 11 00       	mov    edi,0x1162a5
    410a:	e8 f9 03 00 00       	call   0x4508
    410f:	48 8b 45 a8          	mov    rax,QWORD PTR [rbp-0x58]
    4113:	48 8b 40 18          	mov    rax,QWORD PTR [rax+0x18]
    4117:	48 89 c7             	mov    rdi,rax
    411a:	e8 3c 04 00 00       	call   0x455b
    411f:	bf 95 62 11 00       	mov    edi,0x116295
    4124:	e8 df 03 00 00       	call   0x4508
    4129:	bf ab 62 11 00       	mov    edi,0x1162ab
    412e:	e8 d5 03 00 00       	call   0x4508
    4133:	48 8b 45 a8          	mov    rax,QWORD PTR [rbp-0x58]
    4137:	48 8b 40 20          	mov    rax,QWORD PTR [rax+0x20]
    413b:	48 89 c7             	mov    rdi,rax
    413e:	e8 18 04 00 00       	call   0x455b
    4143:	bf b0 62 11 00       	mov    edi,0x1162b0
    4148:	e8 bb 03 00 00       	call   0x4508
    414d:	48 8b 05 f4 3c 00 00 	mov    rax,QWORD PTR [rip+0x3cf4]        # 0x7e48
    4154:	41 b9 56 64 11 00    	mov    r9d,0x116456
    415a:	49 89 c0             	mov    r8,rax
    415d:	8b 0d b1 3c 00 00    	mov    ecx,DWORD PTR [rip+0x3cb1]        # 0x7e14
    4163:	8b 15 a7 3c 00 00    	mov    edx,DWORD PTR [rip+0x3ca7]        # 0x7e10
    4169:	be f4 01 00 00       	mov    esi,0x1f4
    416e:	bf 58 02 00 00       	mov    edi,0x258
    4173:	e8 58 c8 ff ff       	call   0x9d0
    4178:	f4                   	hlt    
    4179:	eb fd                	jmp    0x4178
0x000000000011417b: timer_handler
    417b:	55                   	push   rbp
    417c:	48 89 e5             	mov    rbp,rsp
    417f:	41 53                	push   r11
    4181:	41 52                	push   r10
    4183:	41 51                	push   r9
    4185:	41 50                	push   r8
    4187:	57                   	push   rdi
    4188:	56                   	push   rsi
    4189:	51                   	push   rcx
    418a:	52                   	push   rdx
    418b:	50                   	push   rax
    418c:	48 83 ec 18          	sub    rsp,0x18
    4190:	48 8d 45 08          	lea    rax,[rbp+0x8]
    4194:	48 89 45 a8          	mov    QWORD PTR [rbp-0x58],rax
    4198:	48 8b 05 e1 3c 00 00 	mov    rax,QWORD PTR [rip+0x3ce1]        # 0x7e80
    419f:	48 83 c0 01          	add    rax,0x1
    41a3:	48 89 05 d6 3c 00 00 	mov    QWORD PTR [rip+0x3cd6],rax        # 0x7e80
    41aa:	be 20 00 00 00       	mov    esi,0x20
    41af:	bf 20 00 00 00       	mov    edi,0x20
    41b4:	fc                   	cld    
    41b5:	e8 78 d9 ff ff       	call   0x1b32
    41ba:	be 20 00 00 00       	mov    esi,0x20
    41bf:	bf a0 00 00 00       	mov    edi,0xa0
    41c4:	e8 69 d9 ff ff       	call   0x1b32
    41c9:	48 8b 15 18 43 03 00 	mov    rdx,QWORD PTR [rip+0x34318]        # 0x384e8
    41d0:	48 8b 05 09 43 03 00 	mov    rax,QWORD PTR [rip+0x34309]        # 0x384e0
    41d7:	48 01 c2             	add    rdx,rax
    41da:	48 8b 05 9f 3c 00 00 	mov    rax,QWORD PTR [rip+0x3c9f]        # 0x7e80
    41e1:	48 39 c2             	cmp    rdx,rax
    41e4:	73 4d                	jae    0x4233
    41e6:	48 8b 05 93 3c 00 00 	mov    rax,QWORD PTR [rip+0x3c93]        # 0x7e80
    41ed:	48 83 f8 64          	cmp    rax,0x64
    41f1:	76 40                	jbe    0x4233
    41f3:	48 8b 05 86 3c 00 00 	mov    rax,QWORD PTR [rip+0x3c86]        # 0x7e80
    41fa:	48 89 05 e7 42 03 00 	mov    QWORD PTR [rip+0x342e7],rax        # 0x384e8
    4201:	bf 5a 64 11 00       	mov    edi,0x11645a
    4206:	e8 fd 02 00 00       	call   0x4508
    420b:	48 8b 45 a8          	mov    rax,QWORD PTR [rbp-0x58]
    420f:	48 8b 00             	mov    rax,QWORD PTR [rax]
    4212:	48 89 c7             	mov    rdi,rax
    4215:	e8 41 03 00 00       	call   0x455b
    421a:	bf 72 64 11 00       	mov    edi,0x116472
    421f:	e8 e4 02 00 00       	call   0x4508
    4224:	48 8b 45 a8          	mov    rax,QWORD PTR [rbp-0x58]
    4228:	48 8b 00             	mov    rax,QWORD PTR [rax]
    422b:	48 89 c7             	mov    rdi,rax
    422e:	e8 4f 1c 00 00       	call   0x5e82
    4233:	90                   	nop
    4234:	48 83 c4 18          	add    rsp,0x18
    4238:	58                   	pop    rax
    4239:	5a                   	pop    rdx
    423a:	59                   	pop    rcx
    423b:	5e                   	pop    rsi
    423c:	5f                   	pop    rdi
    423d:	41 58                	pop    r8
    423f:	41 59                	pop    r9
    4241:	41 5a                	pop    r10
    4243:	41 5b                	pop    r11
    4245:	5d                   	pop    rbp
    4246:	48 cf                	iretq  
0x0000000000114248: keyboard_handler
    4248:	55                   	push   rbp
    4249:	48 89 e5             	mov    rbp,rsp
    424c:	41 53                	push   r11
    424e:	41 52                	push   r10
    4250:	41 51                	push   r9
    4252:	41 50                	push   r8
    4254:	57                   	push   rdi
    4255:	56                   	push   rsi
    4256:	51                   	push   rcx
    4257:	52                   	push   rdx
    4258:	50                   	push   rax
    4259:	48 83 ec 18          	sub    rsp,0x18
    425d:	48 8d 45 08          	lea    rax,[rbp+0x8]
    4261:	48 89 45 a8          	mov    QWORD PTR [rbp-0x58],rax
    4265:	bf 60 00 00 00       	mov    edi,0x60
    426a:	fc                   	cld    
    426b:	e8 b8 d8 ff ff       	call   0x1b28
    4270:	0f b6 c0             	movzx  eax,al
    4273:	48 89 c7             	mov    rdi,rax
    4276:	e8 e0 02 00 00       	call   0x455b
    427b:	bf 75 64 11 00       	mov    edi,0x116475
    4280:	e8 83 02 00 00       	call   0x4508
    4285:	be 20 00 00 00       	mov    esi,0x20
    428a:	bf 20 00 00 00       	mov    edi,0x20
    428f:	e8 9e d8 ff ff       	call   0x1b32
    4294:	be 20 00 00 00       	mov    esi,0x20
    4299:	bf a0 00 00 00       	mov    edi,0xa0
    429e:	e8 8f d8 ff ff       	call   0x1b32
    42a3:	90                   	nop
    42a4:	48 83 c4 18          	add    rsp,0x18
    42a8:	58                   	pop    rax
    42a9:	5a                   	pop    rdx
    42aa:	59                   	pop    rcx
    42ab:	5e                   	pop    rsi
    42ac:	5f                   	pop    rdi
    42ad:	41 58                	pop    r8
    42af:	41 59                	pop    r9
    42b1:	41 5a                	pop    r10
    42b3:	41 5b                	pop    r11
    42b5:	5d                   	pop    rbp
    42b6:	48 cf                	iretq  
0x00000000001142b8: com1_handler
    42b8:	55                   	push   rbp
    42b9:	48 89 e5             	mov    rbp,rsp
    42bc:	41 53                	push   r11
    42be:	41 52                	push   r10
    42c0:	41 51                	push   r9
    42c2:	41 50                	push   r8
    42c4:	57                   	push   rdi
    42c5:	56                   	push   rsi
    42c6:	51                   	push   rcx
    42c7:	52                   	push   rdx
    42c8:	50                   	push   rax
    42c9:	48 83 ec 18          	sub    rsp,0x18
    42cd:	48 8d 45 08          	lea    rax,[rbp+0x8]
    42d1:	48 89 45 a8          	mov    QWORD PTR [rbp-0x58],rax
    42d5:	fc                   	cld    
    42d6:	e8 49 d8 ff ff       	call   0x1b24
    42db:	bf f8 03 00 00       	mov    edi,0x3f8
    42e0:	e8 43 d8 ff ff       	call   0x1b28
    42e5:	88 05 75 40 00 00    	mov    BYTE PTR [rip+0x4075],al        # 0x8360
    42eb:	bf 89 64 11 00       	mov    edi,0x116489
    42f0:	e8 13 02 00 00       	call   0x4508
    42f5:	be 20 00 00 00       	mov    esi,0x20
    42fa:	bf 20 00 00 00       	mov    edi,0x20
    42ff:	e8 2e d8 ff ff       	call   0x1b32
    4304:	be 20 00 00 00       	mov    esi,0x20
    4309:	bf a0 00 00 00       	mov    edi,0xa0
    430e:	e8 1f d8 ff ff       	call   0x1b32
    4313:	e8 0e d8 ff ff       	call   0x1b26
    4318:	90                   	nop
    4319:	48 83 c4 18          	add    rsp,0x18
    431d:	58                   	pop    rax
    431e:	5a                   	pop    rdx
    431f:	59                   	pop    rcx
    4320:	5e                   	pop    rsi
    4321:	5f                   	pop    rdi
    4322:	41 58                	pop    r8
    4324:	41 59                	pop    r9
    4326:	41 5a                	pop    r10
    4328:	41 5b                	pop    r11
    432a:	5d                   	pop    rbp
    432b:	48 cf                	iretq  
0x000000000011432d: mouse_handler
    432d:	55                   	push   rbp
    432e:	48 89 e5             	mov    rbp,rsp
    4331:	41 53                	push   r11
    4333:	41 52                	push   r10
    4335:	41 51                	push   r9
    4337:	41 50                	push   r8
    4339:	57                   	push   rdi
    433a:	56                   	push   rsi
    433b:	51                   	push   rcx
    433c:	52                   	push   rdx
    433d:	50                   	push   rax
    433e:	48 83 ec 18          	sub    rsp,0x18
    4342:	48 8d 45 08          	lea    rax,[rbp+0x8]
    4346:	48 89 45 a8          	mov    QWORD PTR [rbp-0x58],rax
    434a:	bf 99 64 11 00       	mov    edi,0x116499
    434f:	fc                   	cld    
    4350:	e8 b3 01 00 00       	call   0x4508
    4355:	be 20 00 00 00       	mov    esi,0x20
    435a:	bf 20 00 00 00       	mov    edi,0x20
    435f:	e8 ce d7 ff ff       	call   0x1b32
    4364:	be 20 00 00 00       	mov    esi,0x20
    4369:	bf a0 00 00 00       	mov    edi,0xa0
    436e:	e8 bf d7 ff ff       	call   0x1b32
    4373:	90                   	nop
    4374:	48 83 c4 18          	add    rsp,0x18
    4378:	58                   	pop    rax
    4379:	5a                   	pop    rdx
    437a:	59                   	pop    rcx
    437b:	5e                   	pop    rsi
    437c:	5f                   	pop    rdi
    437d:	41 58                	pop    r8
    437f:	41 59                	pop    r9
    4381:	41 5a                	pop    r10
    4383:	41 5b                	pop    r11
    4385:	5d                   	pop    rbp
    4386:	48 cf                	iretq  
0x0000000000114388: empty_handler
    4388:	55                   	push   rbp
    4389:	48 89 e5             	mov    rbp,rsp
    438c:	41 53                	push   r11
    438e:	41 52                	push   r10
    4390:	41 51                	push   r9
    4392:	41 50                	push   r8
    4394:	57                   	push   rdi
    4395:	56                   	push   rsi
    4396:	51                   	push   rcx
    4397:	52                   	push   rdx
    4398:	50                   	push   rax
    4399:	48 83 ec 18          	sub    rsp,0x18
    439d:	48 8d 45 08          	lea    rax,[rbp+0x8]
    43a1:	48 89 45 a8          	mov    QWORD PTR [rbp-0x58],rax
    43a5:	bf aa 64 11 00       	mov    edi,0x1164aa
    43aa:	fc                   	cld    
    43ab:	e8 58 01 00 00       	call   0x4508
    43b0:	f4                   	hlt    
    43b1:	eb fd                	jmp    0x43b0
0x00000000001143b3: read_kbd_signal
    43b3:	e4 60                	in     al,0x60
    43b5:	c3                   	ret    
0x00000000001143b6: read_kbd_status
    43b6:	e4 64                	in     al,0x64
    43b8:	c3                   	ret    
0x00000000001143b9: init_serial
    43b9:	55                   	push   rbp
    43ba:	48 89 e5             	mov    rbp,rsp
    43bd:	e8 62 d7 ff ff       	call   0x1b24
    43c2:	be 00 00 00 00       	mov    esi,0x0
    43c7:	bf f9 03 00 00       	mov    edi,0x3f9
    43cc:	e8 61 d7 ff ff       	call   0x1b32
    43d1:	be 80 00 00 00       	mov    esi,0x80
    43d6:	bf fb 03 00 00       	mov    edi,0x3fb
    43db:	e8 52 d7 ff ff       	call   0x1b32
    43e0:	be 01 00 00 00       	mov    esi,0x1
    43e5:	bf f8 03 00 00       	mov    edi,0x3f8
    43ea:	e8 43 d7 ff ff       	call   0x1b32
    43ef:	be 00 00 00 00       	mov    esi,0x0
    43f4:	bf f9 03 00 00       	mov    edi,0x3f9
    43f9:	e8 34 d7 ff ff       	call   0x1b32
    43fe:	be 03 00 00 00       	mov    esi,0x3
    4403:	bf fb 03 00 00       	mov    edi,0x3fb
    4408:	e8 25 d7 ff ff       	call   0x1b32
    440d:	be c7 00 00 00       	mov    esi,0xc7
    4412:	bf fa 03 00 00       	mov    edi,0x3fa
    4417:	e8 16 d7 ff ff       	call   0x1b32
    441c:	be 0b 00 00 00       	mov    esi,0xb
    4421:	bf fc 03 00 00       	mov    edi,0x3fc
    4426:	e8 07 d7 ff ff       	call   0x1b32
    442b:	be 0d 00 00 00       	mov    esi,0xd
    4430:	bf f9 03 00 00       	mov    edi,0x3f9
    4435:	e8 f8 d6 ff ff       	call   0x1b32
    443a:	e8 e7 d6 ff ff       	call   0x1b26
    443f:	90                   	nop
    4440:	5d                   	pop    rbp
    4441:	c3                   	ret    
0x0000000000114442: serial_received
    4442:	55                   	push   rbp
    4443:	48 89 e5             	mov    rbp,rsp
    4446:	bf fd 03 00 00       	mov    edi,0x3fd
    444b:	e8 d8 d6 ff ff       	call   0x1b28
    4450:	0f b6 c0             	movzx  eax,al
    4453:	83 e0 01             	and    eax,0x1
    4456:	5d                   	pop    rbp
    4457:	c3                   	ret    
0x0000000000114458: wait_serial_input
    4458:	55                   	push   rbp
    4459:	48 89 e5             	mov    rbp,rsp
    445c:	eb 01                	jmp    0x445f
    445e:	f4                   	hlt    
    445f:	0f b6 05 fa 3e 00 00 	movzx  eax,BYTE PTR [rip+0x3efa]        # 0x8360
    4466:	84 c0                	test   al,al
    4468:	74 f4                	je     0x445e
    446a:	bf c0 64 11 00       	mov    edi,0x1164c0
    446f:	e8 94 00 00 00       	call   0x4508
    4474:	90                   	nop
    4475:	5d                   	pop    rbp
    4476:	c3                   	ret    
0x0000000000114477: receive_serial_input
    4477:	55                   	push   rbp
    4478:	48 89 e5             	mov    rbp,rsp
    447b:	48 83 ec 10          	sub    rsp,0x10
    447f:	eb 01                	jmp    0x4482
    4481:	f4                   	hlt    
    4482:	0f b6 05 d7 3e 00 00 	movzx  eax,BYTE PTR [rip+0x3ed7]        # 0x8360
    4489:	84 c0                	test   al,al
    448b:	74 f4                	je     0x4481
    448d:	bf e0 64 11 00       	mov    edi,0x1164e0
    4492:	e8 71 00 00 00       	call   0x4508
    4497:	0f b6 05 c2 3e 00 00 	movzx  eax,BYTE PTR [rip+0x3ec2]        # 0x8360
    449e:	88 45 ff             	mov    BYTE PTR [rbp-0x1],al
    44a1:	bf 08 65 11 00       	mov    edi,0x116508
    44a6:	e8 5d 00 00 00       	call   0x4508
    44ab:	0f b6 45 ff          	movzx  eax,BYTE PTR [rbp-0x1]
    44af:	c9                   	leave  
    44b0:	c3                   	ret    
0x00000000001144b1: read_serial
    44b1:	55                   	push   rbp
    44b2:	48 89 e5             	mov    rbp,rsp
    44b5:	90                   	nop
    44b6:	e8 87 ff ff ff       	call   0x4442
    44bb:	85 c0                	test   eax,eax
    44bd:	74 f7                	je     0x44b6
    44bf:	bf f8 03 00 00       	mov    edi,0x3f8
    44c4:	e8 5f d6 ff ff       	call   0x1b28
    44c9:	5d                   	pop    rbp
    44ca:	c3                   	ret    
0x00000000001144cb: serial_thr_empty
    44cb:	55                   	push   rbp
    44cc:	48 89 e5             	mov    rbp,rsp
    44cf:	bf fd 03 00 00       	mov    edi,0x3fd
    44d4:	e8 4f d6 ff ff       	call   0x1b28
    44d9:	83 e0 20             	and    eax,0x20
    44dc:	5d                   	pop    rbp
    44dd:	c3                   	ret    
0x00000000001144de: write_serial
    44de:	55                   	push   rbp
    44df:	48 89 e5             	mov    rbp,rsp
    44e2:	48 83 ec 10          	sub    rsp,0x10
    44e6:	89 f8                	mov    eax,edi
    44e8:	88 45 fc             	mov    BYTE PTR [rbp-0x4],al
    44eb:	90                   	nop
    44ec:	e8 da ff ff ff       	call   0x44cb
    44f1:	84 c0                	test   al,al
    44f3:	74 f7                	je     0x44ec
    44f5:	0f b6 45 fc          	movzx  eax,BYTE PTR [rbp-0x4]
    44f9:	89 c6                	mov    esi,eax
    44fb:	bf f8 03 00 00       	mov    edi,0x3f8
    4500:	e8 2d d6 ff ff       	call   0x1b32
    4505:	90                   	nop
    4506:	c9                   	leave  
    4507:	c3                   	ret    
0x0000000000114508: puts_serial
    4508:	55                   	push   rbp
    4509:	48 89 e5             	mov    rbp,rsp
    450c:	48 83 ec 20          	sub    rsp,0x20
    4510:	48 89 7d e8          	mov    QWORD PTR [rbp-0x18],rdi
    4514:	c6 45 ff 00          	mov    BYTE PTR [rbp-0x1],0x0
    4518:	e8 07 d6 ff ff       	call   0x1b24
    451d:	eb 22                	jmp    0x4541
    451f:	0f b6 55 ff          	movzx  edx,BYTE PTR [rbp-0x1]
    4523:	48 8b 45 e8          	mov    rax,QWORD PTR [rbp-0x18]
    4527:	48 01 d0             	add    rax,rdx
    452a:	0f b6 00             	movzx  eax,BYTE PTR [rax]
    452d:	0f b6 c0             	movzx  eax,al
    4530:	89 c7                	mov    edi,eax
    4532:	e8 a7 ff ff ff       	call   0x44de
    4537:	0f b6 45 ff          	movzx  eax,BYTE PTR [rbp-0x1]
    453b:	83 c0 01             	add    eax,0x1
    453e:	88 45 ff             	mov    BYTE PTR [rbp-0x1],al
    4541:	0f b6 55 ff          	movzx  edx,BYTE PTR [rbp-0x1]
    4545:	48 8b 45 e8          	mov    rax,QWORD PTR [rbp-0x18]
    4549:	48 01 d0             	add    rax,rdx
    454c:	0f b6 00             	movzx  eax,BYTE PTR [rax]
    454f:	84 c0                	test   al,al
    4551:	75 cc                	jne    0x451f
    4553:	e8 ce d5 ff ff       	call   0x1b26
    4558:	90                   	nop
    4559:	c9                   	leave  
    455a:	c3                   	ret    
0x000000000011455b: putnum_serial
    455b:	55                   	push   rbp
    455c:	48 89 e5             	mov    rbp,rsp
    455f:	53                   	push   rbx
    4560:	48 81 ec b8 00 00 00 	sub    rsp,0xb8
    4567:	48 89 bd 48 ff ff ff 	mov    QWORD PTR [rbp-0xb8],rdi
    456e:	48 c7 45 e8 00 00 00 	mov    QWORD PTR [rbp-0x18],0x0
    4575:	00 
    4576:	e9 93 00 00 00       	jmp    0x460e
    457b:	48 8b 45 e8          	mov    rax,QWORD PTR [rbp-0x18]
    457f:	48 c1 e0 02          	shl    rax,0x2
    4583:	48 89 c6             	mov    rsi,rax
    4586:	bf 02 00 00 00       	mov    edi,0x2
    458b:	e8 e3 c8 ff ff       	call   0xe73
    4590:	48 89 c3             	mov    rbx,rax
    4593:	48 8b 45 e8          	mov    rax,QWORD PTR [rbp-0x18]
    4597:	48 c1 e0 02          	shl    rax,0x2
    459b:	48 83 c0 01          	add    rax,0x1
    459f:	48 89 c6             	mov    rsi,rax
    45a2:	bf 02 00 00 00       	mov    edi,0x2
    45a7:	e8 c7 c8 ff ff       	call   0xe73
    45ac:	48 01 c3             	add    rbx,rax
    45af:	48 8b 45 e8          	mov    rax,QWORD PTR [rbp-0x18]
    45b3:	48 c1 e0 02          	shl    rax,0x2
    45b7:	48 83 c0 02          	add    rax,0x2
    45bb:	48 89 c6             	mov    rsi,rax
    45be:	bf 02 00 00 00       	mov    edi,0x2
    45c3:	e8 ab c8 ff ff       	call   0xe73
    45c8:	48 01 c3             	add    rbx,rax
    45cb:	48 8b 45 e8          	mov    rax,QWORD PTR [rbp-0x18]
    45cf:	48 c1 e0 02          	shl    rax,0x2
    45d3:	48 83 c0 03          	add    rax,0x3
    45d7:	48 89 c6             	mov    rsi,rax
    45da:	bf 02 00 00 00       	mov    edi,0x2
    45df:	e8 8f c8 ff ff       	call   0xe73
    45e4:	48 01 d8             	add    rax,rbx
    45e7:	48 23 85 48 ff ff ff 	and    rax,QWORD PTR [rbp-0xb8]
    45ee:	48 89 c2             	mov    rdx,rax
    45f1:	48 8b 45 e8          	mov    rax,QWORD PTR [rbp-0x18]
    45f5:	c1 e0 02             	shl    eax,0x2
    45f8:	89 c1                	mov    ecx,eax
    45fa:	48 d3 ea             	shr    rdx,cl
    45fd:	48 8b 45 e8          	mov    rax,QWORD PTR [rbp-0x18]
    4601:	48 89 94 c5 68 ff ff 	mov    QWORD PTR [rbp+rax*8-0x98],rdx
    4608:	ff 
    4609:	48 83 45 e8 01       	add    QWORD PTR [rbp-0x18],0x1
    460e:	48 83 7d e8 0f       	cmp    QWORD PTR [rbp-0x18],0xf
    4613:	0f 86 62 ff ff ff    	jbe    0x457b
    4619:	c6 85 55 ff ff ff 30 	mov    BYTE PTR [rbp-0xab],0x30
    4620:	c6 85 56 ff ff ff 78 	mov    BYTE PTR [rbp-0xaa],0x78
    4627:	c6 85 67 ff ff ff 00 	mov    BYTE PTR [rbp-0x99],0x0
    462e:	48 c7 45 e8 00 00 00 	mov    QWORD PTR [rbp-0x18],0x0
    4635:	00 
    4636:	e9 34 02 00 00       	jmp    0x486f
    463b:	48 8b 45 e8          	mov    rax,QWORD PTR [rbp-0x18]
    463f:	48 8b 84 c5 68 ff ff 	mov    rax,QWORD PTR [rbp+rax*8-0x98]
    4646:	ff 
    4647:	48 85 c0             	test   rax,rax
    464a:	75 11                	jne    0x465d
    464c:	b8 11 00 00 00       	mov    eax,0x11
    4651:	48 2b 45 e8          	sub    rax,QWORD PTR [rbp-0x18]
    4655:	c6 84 05 55 ff ff ff 	mov    BYTE PTR [rbp+rax*1-0xab],0x30
    465c:	30 
    465d:	48 8b 45 e8          	mov    rax,QWORD PTR [rbp-0x18]
    4661:	48 8b 84 c5 68 ff ff 	mov    rax,QWORD PTR [rbp+rax*8-0x98]
    4668:	ff 
    4669:	48 83 f8 01          	cmp    rax,0x1
    466d:	75 11                	jne    0x4680
    466f:	b8 11 00 00 00       	mov    eax,0x11
    4674:	48 2b 45 e8          	sub    rax,QWORD PTR [rbp-0x18]
    4678:	c6 84 05 55 ff ff ff 	mov    BYTE PTR [rbp+rax*1-0xab],0x31
    467f:	31 
    4680:	48 8b 45 e8          	mov    rax,QWORD PTR [rbp-0x18]
    4684:	48 8b 84 c5 68 ff ff 	mov    rax,QWORD PTR [rbp+rax*8-0x98]
    468b:	ff 
    468c:	48 83 f8 02          	cmp    rax,0x2
    4690:	75 11                	jne    0x46a3
    4692:	b8 11 00 00 00       	mov    eax,0x11
    4697:	48 2b 45 e8          	sub    rax,QWORD PTR [rbp-0x18]
    469b:	c6 84 05 55 ff ff ff 	mov    BYTE PTR [rbp+rax*1-0xab],0x32
    46a2:	32 
    46a3:	48 8b 45 e8          	mov    rax,QWORD PTR [rbp-0x18]
    46a7:	48 8b 84 c5 68 ff ff 	mov    rax,QWORD PTR [rbp+rax*8-0x98]
    46ae:	ff 
    46af:	48 83 f8 03          	cmp    rax,0x3
    46b3:	75 11                	jne    0x46c6
    46b5:	b8 11 00 00 00       	mov    eax,0x11
    46ba:	48 2b 45 e8          	sub    rax,QWORD PTR [rbp-0x18]
    46be:	c6 84 05 55 ff ff ff 	mov    BYTE PTR [rbp+rax*1-0xab],0x33
    46c5:	33 
    46c6:	48 8b 45 e8          	mov    rax,QWORD PTR [rbp-0x18]
    46ca:	48 8b 84 c5 68 ff ff 	mov    rax,QWORD PTR [rbp+rax*8-0x98]
    46d1:	ff 
    46d2:	48 83 f8 04          	cmp    rax,0x4
    46d6:	75 11                	jne    0x46e9
    46d8:	b8 11 00 00 00       	mov    eax,0x11
    46dd:	48 2b 45 e8          	sub    rax,QWORD PTR [rbp-0x18]
    46e1:	c6 84 05 55 ff ff ff 	mov    BYTE PTR [rbp+rax*1-0xab],0x34
    46e8:	34 
    46e9:	48 8b 45 e8          	mov    rax,QWORD PTR [rbp-0x18]
    46ed:	48 8b 84 c5 68 ff ff 	mov    rax,QWORD PTR [rbp+rax*8-0x98]
    46f4:	ff 
    46f5:	48 83 f8 05          	cmp    rax,0x5
    46f9:	75 11                	jne    0x470c
    46fb:	b8 11 00 00 00       	mov    eax,0x11
    4700:	48 2b 45 e8          	sub    rax,QWORD PTR [rbp-0x18]
    4704:	c6 84 05 55 ff ff ff 	mov    BYTE PTR [rbp+rax*1-0xab],0x35
    470b:	35 
    470c:	48 8b 45 e8          	mov    rax,QWORD PTR [rbp-0x18]
    4710:	48 8b 84 c5 68 ff ff 	mov    rax,QWORD PTR [rbp+rax*8-0x98]
    4717:	ff 
    4718:	48 83 f8 06          	cmp    rax,0x6
    471c:	75 11                	jne    0x472f
    471e:	b8 11 00 00 00       	mov    eax,0x11
    4723:	48 2b 45 e8          	sub    rax,QWORD PTR [rbp-0x18]
    4727:	c6 84 05 55 ff ff ff 	mov    BYTE PTR [rbp+rax*1-0xab],0x36
    472e:	36 
    472f:	48 8b 45 e8          	mov    rax,QWORD PTR [rbp-0x18]
    4733:	48 8b 84 c5 68 ff ff 	mov    rax,QWORD PTR [rbp+rax*8-0x98]
    473a:	ff 
    473b:	48 83 f8 07          	cmp    rax,0x7
    473f:	75 11                	jne    0x4752
    4741:	b8 11 00 00 00       	mov    eax,0x11
    4746:	48 2b 45 e8          	sub    rax,QWORD PTR [rbp-0x18]
    474a:	c6 84 05 55 ff ff ff 	mov    BYTE PTR [rbp+rax*1-0xab],0x37
    4751:	37 
    4752:	48 8b 45 e8          	mov    rax,QWORD PTR [rbp-0x18]
    4756:	48 8b 84 c5 68 ff ff 	mov    rax,QWORD PTR [rbp+rax*8-0x98]
    475d:	ff 
    475e:	48 83 f8 08          	cmp    rax,0x8
    4762:	75 11                	jne    0x4775
    4764:	b8 11 00 00 00       	mov    eax,0x11
    4769:	48 2b 45 e8          	sub    rax,QWORD PTR [rbp-0x18]
    476d:	c6 84 05 55 ff ff ff 	mov    BYTE PTR [rbp+rax*1-0xab],0x38
    4774:	38 
    4775:	48 8b 45 e8          	mov    rax,QWORD PTR [rbp-0x18]
    4779:	48 8b 84 c5 68 ff ff 	mov    rax,QWORD PTR [rbp+rax*8-0x98]
    4780:	ff 
    4781:	48 83 f8 09          	cmp    rax,0x9
    4785:	75 11                	jne    0x4798
    4787:	b8 11 00 00 00       	mov    eax,0x11
    478c:	48 2b 45 e8          	sub    rax,QWORD PTR [rbp-0x18]
    4790:	c6 84 05 55 ff ff ff 	mov    BYTE PTR [rbp+rax*1-0xab],0x39
    4797:	39 
    4798:	48 8b 45 e8          	mov    rax,QWORD PTR [rbp-0x18]
    479c:	48 8b 84 c5 68 ff ff 	mov    rax,QWORD PTR [rbp+rax*8-0x98]
    47a3:	ff 
    47a4:	48 83 f8 0a          	cmp    rax,0xa
    47a8:	75 11                	jne    0x47bb
    47aa:	b8 11 00 00 00       	mov    eax,0x11
    47af:	48 2b 45 e8          	sub    rax,QWORD PTR [rbp-0x18]
    47b3:	c6 84 05 55 ff ff ff 	mov    BYTE PTR [rbp+rax*1-0xab],0x61
    47ba:	61 
    47bb:	48 8b 45 e8          	mov    rax,QWORD PTR [rbp-0x18]
    47bf:	48 8b 84 c5 68 ff ff 	mov    rax,QWORD PTR [rbp+rax*8-0x98]
    47c6:	ff 
    47c7:	48 83 f8 0b          	cmp    rax,0xb
    47cb:	75 11                	jne    0x47de
    47cd:	b8 11 00 00 00       	mov    eax,0x11
    47d2:	48 2b 45 e8          	sub    rax,QWORD PTR [rbp-0x18]
    47d6:	c6 84 05 55 ff ff ff 	mov    BYTE PTR [rbp+rax*1-0xab],0x62
    47dd:	62 
    47de:	48 8b 45 e8          	mov    rax,QWORD PTR [rbp-0x18]
    47e2:	48 8b 84 c5 68 ff ff 	mov    rax,QWORD PTR [rbp+rax*8-0x98]
    47e9:	ff 
    47ea:	48 83 f8 0c          	cmp    rax,0xc
    47ee:	75 11                	jne    0x4801
    47f0:	b8 11 00 00 00       	mov    eax,0x11
    47f5:	48 2b 45 e8          	sub    rax,QWORD PTR [rbp-0x18]
    47f9:	c6 84 05 55 ff ff ff 	mov    BYTE PTR [rbp+rax*1-0xab],0x63
    4800:	63 
    4801:	48 8b 45 e8          	mov    rax,QWORD PTR [rbp-0x18]
    4805:	48 8b 84 c5 68 ff ff 	mov    rax,QWORD PTR [rbp+rax*8-0x98]
    480c:	ff 
    480d:	48 83 f8 0d          	cmp    rax,0xd
    4811:	75 11                	jne    0x4824
    4813:	b8 11 00 00 00       	mov    eax,0x11
    4818:	48 2b 45 e8          	sub    rax,QWORD PTR [rbp-0x18]
    481c:	c6 84 05 55 ff ff ff 	mov    BYTE PTR [rbp+rax*1-0xab],0x64
    4823:	64 
    4824:	48 8b 45 e8          	mov    rax,QWORD PTR [rbp-0x18]
    4828:	48 8b 84 c5 68 ff ff 	mov    rax,QWORD PTR [rbp+rax*8-0x98]
    482f:	ff 
    4830:	48 83 f8 0e          	cmp    rax,0xe
    4834:	75 11                	jne    0x4847
    4836:	b8 11 00 00 00       	mov    eax,0x11
    483b:	48 2b 45 e8          	sub    rax,QWORD PTR [rbp-0x18]
    483f:	c6 84 05 55 ff ff ff 	mov    BYTE PTR [rbp+rax*1-0xab],0x65
    4846:	65 
    4847:	48 8b 45 e8          	mov    rax,QWORD PTR [rbp-0x18]
    484b:	48 8b 84 c5 68 ff ff 	mov    rax,QWORD PTR [rbp+rax*8-0x98]
    4852:	ff 
    4853:	48 83 f8 0f          	cmp    rax,0xf
    4857:	75 11                	jne    0x486a
    4859:	b8 11 00 00 00       	mov    eax,0x11
    485e:	48 2b 45 e8          	sub    rax,QWORD PTR [rbp-0x18]
    4862:	c6 84 05 55 ff ff ff 	mov    BYTE PTR [rbp+rax*1-0xab],0x66
    4869:	66 
    486a:	48 83 45 e8 01       	add    QWORD PTR [rbp-0x18],0x1
    486f:	48 83 7d e8 0f       	cmp    QWORD PTR [rbp-0x18],0xf
    4874:	0f 86 c1 fd ff ff    	jbe    0x463b
    487a:	48 8d 85 55 ff ff ff 	lea    rax,[rbp-0xab]
    4881:	48 89 c7             	mov    rdi,rax
    4884:	e8 7f fc ff ff       	call   0x4508
    4889:	90                   	nop
    488a:	48 81 c4 b8 00 00 00 	add    rsp,0xb8
    4891:	5b                   	pop    rbx
    4892:	5d                   	pop    rbp
    4893:	c3                   	ret    
0x0000000000114894: ps2_received
    4894:	55                   	push   rbp
    4895:	48 89 e5             	mov    rbp,rsp
    4898:	90                   	nop
    4899:	e8 18 fb ff ff       	call   0x43b6
    489e:	0f b6 c0             	movzx  eax,al
    48a1:	83 e0 01             	and    eax,0x1
    48a4:	85 c0                	test   eax,eax
    48a6:	74 f1                	je     0x4899
    48a8:	e8 06 fb ff ff       	call   0x43b3
    48ad:	5d                   	pop    rbp
    48ae:	c3                   	ret    
0x00000000001148af: read_ps2
    48af:	55                   	push   rbp
    48b0:	48 89 e5             	mov    rbp,rsp
    48b3:	48 83 ec 10          	sub    rsp,0x10
    48b7:	90                   	nop
    48b8:	e8 d7 ff ff ff       	call   0x4894
    48bd:	88 45 ff             	mov    BYTE PTR [rbp-0x1],al
    48c0:	0f b6 45 ff          	movzx  eax,BYTE PTR [rbp-0x1]
    48c4:	84 c0                	test   al,al
    48c6:	78 f0                	js     0x48b8
    48c8:	0f b6 45 ff          	movzx  eax,BYTE PTR [rbp-0x1]
    48cc:	c9                   	leave  
    48cd:	c3                   	ret    
0x00000000001148ce: map_scan_to_ascii_set1
    48ce:	55                   	push   rbp
    48cf:	48 89 e5             	mov    rbp,rsp
    48d2:	48 83 ec 10          	sub    rsp,0x10
    48d6:	89 f8                	mov    eax,edi
    48d8:	48 89 75 f0          	mov    QWORD PTR [rbp-0x10],rsi
    48dc:	88 45 fc             	mov    BYTE PTR [rbp-0x4],al
    48df:	80 7d fc 2a          	cmp    BYTE PTR [rbp-0x4],0x2a
    48e3:	74 06                	je     0x48eb
    48e5:	80 7d fc 36          	cmp    BYTE PTR [rbp-0x4],0x36
    48e9:	75 11                	jne    0x48fc
    48eb:	48 8b 45 f0          	mov    rax,QWORD PTR [rbp-0x10]
    48ef:	c6 00 01             	mov    BYTE PTR [rax],0x1
    48f2:	b8 00 00 00 00       	mov    eax,0x0
    48f7:	e9 26 04 00 00       	jmp    0x4d22
    48fc:	80 7d fc aa          	cmp    BYTE PTR [rbp-0x4],0xaa
    4900:	74 06                	je     0x4908
    4902:	80 7d fc b6          	cmp    BYTE PTR [rbp-0x4],0xb6
    4906:	75 11                	jne    0x4919
    4908:	48 8b 45 f0          	mov    rax,QWORD PTR [rbp-0x10]
    490c:	c6 00 00             	mov    BYTE PTR [rax],0x0
    490f:	b8 00 00 00 00       	mov    eax,0x0
    4914:	e9 09 04 00 00       	jmp    0x4d22
    4919:	48 8b 45 f0          	mov    rax,QWORD PTR [rbp-0x10]
    491d:	0f b6 00             	movzx  eax,BYTE PTR [rax]
    4920:	84 c0                	test   al,al
    4922:	0f 85 17 02 00 00    	jne    0x4b3f
    4928:	0f b6 45 fc          	movzx  eax,BYTE PTR [rbp-0x4]
    492c:	83 f8 7d             	cmp    eax,0x7d
    492f:	0f 87 e4 03 00 00    	ja     0x4d19
    4935:	89 c0                	mov    eax,eax
    4937:	48 8b 04 c5 30 65 11 	mov    rax,QWORD PTR [rax*8+0x116530]
    493e:	00 
    493f:	ff e0                	jmp    rax
    4941:	b8 61 00 00 00       	mov    eax,0x61
    4946:	e9 d7 03 00 00       	jmp    0x4d22
    494b:	b8 62 00 00 00       	mov    eax,0x62
    4950:	e9 cd 03 00 00       	jmp    0x4d22
    4955:	b8 63 00 00 00       	mov    eax,0x63
    495a:	e9 c3 03 00 00       	jmp    0x4d22
    495f:	b8 64 00 00 00       	mov    eax,0x64
    4964:	e9 b9 03 00 00       	jmp    0x4d22
    4969:	b8 65 00 00 00       	mov    eax,0x65
    496e:	e9 af 03 00 00       	jmp    0x4d22
    4973:	b8 66 00 00 00       	mov    eax,0x66
    4978:	e9 a5 03 00 00       	jmp    0x4d22
    497d:	b8 67 00 00 00       	mov    eax,0x67
    4982:	e9 9b 03 00 00       	jmp    0x4d22
    4987:	b8 68 00 00 00       	mov    eax,0x68
    498c:	e9 91 03 00 00       	jmp    0x4d22
    4991:	b8 69 00 00 00       	mov    eax,0x69
    4996:	e9 87 03 00 00       	jmp    0x4d22
    499b:	b8 6a 00 00 00       	mov    eax,0x6a
    49a0:	e9 7d 03 00 00       	jmp    0x4d22
    49a5:	b8 6b 00 00 00       	mov    eax,0x6b
    49aa:	e9 73 03 00 00       	jmp    0x4d22
    49af:	b8 6c 00 00 00       	mov    eax,0x6c
    49b4:	e9 69 03 00 00       	jmp    0x4d22
    49b9:	b8 6d 00 00 00       	mov    eax,0x6d
    49be:	e9 5f 03 00 00       	jmp    0x4d22
    49c3:	b8 6e 00 00 00       	mov    eax,0x6e
    49c8:	e9 55 03 00 00       	jmp    0x4d22
    49cd:	b8 6f 00 00 00       	mov    eax,0x6f
    49d2:	e9 4b 03 00 00       	jmp    0x4d22
    49d7:	b8 70 00 00 00       	mov    eax,0x70
    49dc:	e9 41 03 00 00       	jmp    0x4d22
    49e1:	b8 71 00 00 00       	mov    eax,0x71
    49e6:	e9 37 03 00 00       	jmp    0x4d22
    49eb:	b8 72 00 00 00       	mov    eax,0x72
    49f0:	e9 2d 03 00 00       	jmp    0x4d22
    49f5:	b8 73 00 00 00       	mov    eax,0x73
    49fa:	e9 23 03 00 00       	jmp    0x4d22
    49ff:	b8 74 00 00 00       	mov    eax,0x74
    4a04:	e9 19 03 00 00       	jmp    0x4d22
    4a09:	b8 75 00 00 00       	mov    eax,0x75
    4a0e:	e9 0f 03 00 00       	jmp    0x4d22
    4a13:	b8 76 00 00 00       	mov    eax,0x76
    4a18:	e9 05 03 00 00       	jmp    0x4d22
    4a1d:	b8 77 00 00 00       	mov    eax,0x77
    4a22:	e9 fb 02 00 00       	jmp    0x4d22
    4a27:	b8 78 00 00 00       	mov    eax,0x78
    4a2c:	e9 f1 02 00 00       	jmp    0x4d22
    4a31:	b8 79 00 00 00       	mov    eax,0x79
    4a36:	e9 e7 02 00 00       	jmp    0x4d22
    4a3b:	b8 7a 00 00 00       	mov    eax,0x7a
    4a40:	e9 dd 02 00 00       	jmp    0x4d22
    4a45:	b8 30 00 00 00       	mov    eax,0x30
    4a4a:	e9 d3 02 00 00       	jmp    0x4d22
    4a4f:	b8 31 00 00 00       	mov    eax,0x31
    4a54:	e9 c9 02 00 00       	jmp    0x4d22
    4a59:	b8 32 00 00 00       	mov    eax,0x32
    4a5e:	e9 bf 02 00 00       	jmp    0x4d22
    4a63:	b8 33 00 00 00       	mov    eax,0x33
    4a68:	e9 b5 02 00 00       	jmp    0x4d22
    4a6d:	b8 34 00 00 00       	mov    eax,0x34
    4a72:	e9 ab 02 00 00       	jmp    0x4d22
    4a77:	b8 35 00 00 00       	mov    eax,0x35
    4a7c:	e9 a1 02 00 00       	jmp    0x4d22
    4a81:	b8 36 00 00 00       	mov    eax,0x36
    4a86:	e9 97 02 00 00       	jmp    0x4d22
    4a8b:	b8 37 00 00 00       	mov    eax,0x37
    4a90:	e9 8d 02 00 00       	jmp    0x4d22
    4a95:	b8 38 00 00 00       	mov    eax,0x38
    4a9a:	e9 83 02 00 00       	jmp    0x4d22
    4a9f:	b8 39 00 00 00       	mov    eax,0x39
    4aa4:	e9 79 02 00 00       	jmp    0x4d22
    4aa9:	b8 2d 00 00 00       	mov    eax,0x2d
    4aae:	e9 6f 02 00 00       	jmp    0x4d22
    4ab3:	b8 5e 00 00 00       	mov    eax,0x5e
    4ab8:	e9 65 02 00 00       	jmp    0x4d22
    4abd:	b8 5c 00 00 00       	mov    eax,0x5c
    4ac2:	e9 5b 02 00 00       	jmp    0x4d22
    4ac7:	b8 5d 00 00 00       	mov    eax,0x5d
    4acc:	e9 51 02 00 00       	jmp    0x4d22
    4ad1:	b8 08 00 00 00       	mov    eax,0x8
    4ad6:	e9 47 02 00 00       	jmp    0x4d22
    4adb:	b8 20 00 00 00       	mov    eax,0x20
    4ae0:	e9 3d 02 00 00       	jmp    0x4d22
    4ae5:	b8 0a 00 00 00       	mov    eax,0xa
    4aea:	e9 33 02 00 00       	jmp    0x4d22
    4aef:	b8 40 00 00 00       	mov    eax,0x40
    4af4:	e9 29 02 00 00       	jmp    0x4d22
    4af9:	b8 5b 00 00 00       	mov    eax,0x5b
    4afe:	e9 1f 02 00 00       	jmp    0x4d22
    4b03:	b8 3b 00 00 00       	mov    eax,0x3b
    4b08:	e9 15 02 00 00       	jmp    0x4d22
    4b0d:	b8 3a 00 00 00       	mov    eax,0x3a
    4b12:	e9 0b 02 00 00       	jmp    0x4d22
    4b17:	b8 2c 00 00 00       	mov    eax,0x2c
    4b1c:	e9 01 02 00 00       	jmp    0x4d22
    4b21:	b8 2e 00 00 00       	mov    eax,0x2e
    4b26:	e9 f7 01 00 00       	jmp    0x4d22
    4b2b:	b8 2f 00 00 00       	mov    eax,0x2f
    4b30:	e9 ed 01 00 00       	jmp    0x4d22
    4b35:	b8 5c 00 00 00       	mov    eax,0x5c
    4b3a:	e9 e3 01 00 00       	jmp    0x4d22
    4b3f:	0f b6 45 fc          	movzx  eax,BYTE PTR [rbp-0x4]
    4b43:	83 f8 7d             	cmp    eax,0x7d
    4b46:	0f 87 d0 01 00 00    	ja     0x4d1c
    4b4c:	89 c0                	mov    eax,eax
    4b4e:	48 8b 04 c5 20 69 11 	mov    rax,QWORD PTR [rax*8+0x116920]
    4b55:	00 
    4b56:	ff e0                	jmp    rax
    4b58:	b8 41 00 00 00       	mov    eax,0x41
    4b5d:	e9 c0 01 00 00       	jmp    0x4d22
    4b62:	b8 42 00 00 00       	mov    eax,0x42
    4b67:	e9 b6 01 00 00       	jmp    0x4d22
    4b6c:	b8 43 00 00 00       	mov    eax,0x43
    4b71:	e9 ac 01 00 00       	jmp    0x4d22
    4b76:	b8 44 00 00 00       	mov    eax,0x44
    4b7b:	e9 a2 01 00 00       	jmp    0x4d22
    4b80:	b8 45 00 00 00       	mov    eax,0x45
    4b85:	e9 98 01 00 00       	jmp    0x4d22
    4b8a:	b8 46 00 00 00       	mov    eax,0x46
    4b8f:	e9 8e 01 00 00       	jmp    0x4d22
    4b94:	b8 47 00 00 00       	mov    eax,0x47
    4b99:	e9 84 01 00 00       	jmp    0x4d22
    4b9e:	b8 48 00 00 00       	mov    eax,0x48
    4ba3:	e9 7a 01 00 00       	jmp    0x4d22
    4ba8:	b8 49 00 00 00       	mov    eax,0x49
    4bad:	e9 70 01 00 00       	jmp    0x4d22
    4bb2:	b8 4a 00 00 00       	mov    eax,0x4a
    4bb7:	e9 66 01 00 00       	jmp    0x4d22
    4bbc:	b8 4b 00 00 00       	mov    eax,0x4b
    4bc1:	e9 5c 01 00 00       	jmp    0x4d22
    4bc6:	b8 4c 00 00 00       	mov    eax,0x4c
    4bcb:	e9 52 01 00 00       	jmp    0x4d22
    4bd0:	b8 4d 00 00 00       	mov    eax,0x4d
    4bd5:	e9 48 01 00 00       	jmp    0x4d22
    4bda:	b8 4e 00 00 00       	mov    eax,0x4e
    4bdf:	e9 3e 01 00 00       	jmp    0x4d22
    4be4:	b8 4f 00 00 00       	mov    eax,0x4f
    4be9:	e9 34 01 00 00       	jmp    0x4d22
    4bee:	b8 50 00 00 00       	mov    eax,0x50
    4bf3:	e9 2a 01 00 00       	jmp    0x4d22
    4bf8:	b8 51 00 00 00       	mov    eax,0x51
    4bfd:	e9 20 01 00 00       	jmp    0x4d22
    4c02:	b8 52 00 00 00       	mov    eax,0x52
    4c07:	e9 16 01 00 00       	jmp    0x4d22
    4c0c:	b8 53 00 00 00       	mov    eax,0x53
    4c11:	e9 0c 01 00 00       	jmp    0x4d22
    4c16:	b8 54 00 00 00       	mov    eax,0x54
    4c1b:	e9 02 01 00 00       	jmp    0x4d22
    4c20:	b8 55 00 00 00       	mov    eax,0x55
    4c25:	e9 f8 00 00 00       	jmp    0x4d22
    4c2a:	b8 56 00 00 00       	mov    eax,0x56
    4c2f:	e9 ee 00 00 00       	jmp    0x4d22
    4c34:	b8 57 00 00 00       	mov    eax,0x57
    4c39:	e9 e4 00 00 00       	jmp    0x4d22
    4c3e:	b8 58 00 00 00       	mov    eax,0x58
    4c43:	e9 da 00 00 00       	jmp    0x4d22
    4c48:	b8 59 00 00 00       	mov    eax,0x59
    4c4d:	e9 d0 00 00 00       	jmp    0x4d22
    4c52:	b8 5a 00 00 00       	mov    eax,0x5a
    4c57:	e9 c6 00 00 00       	jmp    0x4d22
    4c5c:	b8 21 00 00 00       	mov    eax,0x21
    4c61:	e9 bc 00 00 00       	jmp    0x4d22
    4c66:	b8 22 00 00 00       	mov    eax,0x22
    4c6b:	e9 b2 00 00 00       	jmp    0x4d22
    4c70:	b8 23 00 00 00       	mov    eax,0x23
    4c75:	e9 a8 00 00 00       	jmp    0x4d22
    4c7a:	b8 24 00 00 00       	mov    eax,0x24
    4c7f:	e9 9e 00 00 00       	jmp    0x4d22
    4c84:	b8 25 00 00 00       	mov    eax,0x25
    4c89:	e9 94 00 00 00       	jmp    0x4d22
    4c8e:	b8 26 00 00 00       	mov    eax,0x26
    4c93:	e9 8a 00 00 00       	jmp    0x4d22
    4c98:	b8 27 00 00 00       	mov    eax,0x27
    4c9d:	e9 80 00 00 00       	jmp    0x4d22
    4ca2:	b8 28 00 00 00       	mov    eax,0x28
    4ca7:	eb 79                	jmp    0x4d22
    4ca9:	b8 29 00 00 00       	mov    eax,0x29
    4cae:	eb 72                	jmp    0x4d22
    4cb0:	b8 3d 00 00 00       	mov    eax,0x3d
    4cb5:	eb 6b                	jmp    0x4d22
    4cb7:	b8 7e 00 00 00       	mov    eax,0x7e
    4cbc:	eb 64                	jmp    0x4d22
    4cbe:	b8 7c 00 00 00       	mov    eax,0x7c
    4cc3:	eb 5d                	jmp    0x4d22
    4cc5:	b8 7d 00 00 00       	mov    eax,0x7d
    4cca:	eb 56                	jmp    0x4d22
    4ccc:	b8 08 00 00 00       	mov    eax,0x8
    4cd1:	eb 4f                	jmp    0x4d22
    4cd3:	b8 20 00 00 00       	mov    eax,0x20
    4cd8:	eb 48                	jmp    0x4d22
    4cda:	b8 0a 00 00 00       	mov    eax,0xa
    4cdf:	eb 41                	jmp    0x4d22
    4ce1:	b8 60 00 00 00       	mov    eax,0x60
    4ce6:	eb 3a                	jmp    0x4d22
    4ce8:	b8 7b 00 00 00       	mov    eax,0x7b
    4ced:	eb 33                	jmp    0x4d22
    4cef:	b8 2b 00 00 00       	mov    eax,0x2b
    4cf4:	eb 2c                	jmp    0x4d22
    4cf6:	b8 2a 00 00 00       	mov    eax,0x2a
    4cfb:	eb 25                	jmp    0x4d22
    4cfd:	b8 3c 00 00 00       	mov    eax,0x3c
    4d02:	eb 1e                	jmp    0x4d22
    4d04:	b8 3e 00 00 00       	mov    eax,0x3e
    4d09:	eb 17                	jmp    0x4d22
    4d0b:	b8 3f 00 00 00       	mov    eax,0x3f
    4d10:	eb 10                	jmp    0x4d22
    4d12:	b8 5f 00 00 00       	mov    eax,0x5f
    4d17:	eb 09                	jmp    0x4d22
    4d19:	90                   	nop
    4d1a:	eb 01                	jmp    0x4d1d
    4d1c:	90                   	nop
    4d1d:	b8 00 00 00 00       	mov    eax,0x0
    4d22:	c9                   	leave  
    4d23:	c3                   	ret    
0x0000000000114d24: map_scan_to_ascii_set2
    4d24:	55                   	push   rbp
    4d25:	48 89 e5             	mov    rbp,rsp
    4d28:	48 83 ec 10          	sub    rsp,0x10
    4d2c:	89 f8                	mov    eax,edi
    4d2e:	48 89 75 f0          	mov    QWORD PTR [rbp-0x10],rsi
    4d32:	88 45 fc             	mov    BYTE PTR [rbp-0x4],al
    4d35:	80 7d fc 2a          	cmp    BYTE PTR [rbp-0x4],0x2a
    4d39:	74 06                	je     0x4d41
    4d3b:	80 7d fc 36          	cmp    BYTE PTR [rbp-0x4],0x36
    4d3f:	75 11                	jne    0x4d52
    4d41:	48 8b 45 f0          	mov    rax,QWORD PTR [rbp-0x10]
    4d45:	c6 00 01             	mov    BYTE PTR [rax],0x1
    4d48:	b8 00 00 00 00       	mov    eax,0x0
    4d4d:	e9 26 04 00 00       	jmp    0x5178
    4d52:	80 7d fc aa          	cmp    BYTE PTR [rbp-0x4],0xaa
    4d56:	74 06                	je     0x4d5e
    4d58:	80 7d fc b6          	cmp    BYTE PTR [rbp-0x4],0xb6
    4d5c:	75 11                	jne    0x4d6f
    4d5e:	48 8b 45 f0          	mov    rax,QWORD PTR [rbp-0x10]
    4d62:	c6 00 00             	mov    BYTE PTR [rax],0x0
    4d65:	b8 00 00 00 00       	mov    eax,0x0
    4d6a:	e9 09 04 00 00       	jmp    0x5178
    4d6f:	48 8b 45 f0          	mov    rax,QWORD PTR [rbp-0x10]
    4d73:	0f b6 00             	movzx  eax,BYTE PTR [rax]
    4d76:	84 c0                	test   al,al
    4d78:	0f 85 17 02 00 00    	jne    0x4f95
    4d7e:	0f b6 45 fc          	movzx  eax,BYTE PTR [rbp-0x4]
    4d82:	83 f8 7d             	cmp    eax,0x7d
    4d85:	0f 87 e4 03 00 00    	ja     0x516f
    4d8b:	89 c0                	mov    eax,eax
    4d8d:	48 8b 04 c5 10 6d 11 	mov    rax,QWORD PTR [rax*8+0x116d10]
    4d94:	00 
    4d95:	ff e0                	jmp    rax
    4d97:	b8 61 00 00 00       	mov    eax,0x61
    4d9c:	e9 d7 03 00 00       	jmp    0x5178
    4da1:	b8 62 00 00 00       	mov    eax,0x62
    4da6:	e9 cd 03 00 00       	jmp    0x5178
    4dab:	b8 63 00 00 00       	mov    eax,0x63
    4db0:	e9 c3 03 00 00       	jmp    0x5178
    4db5:	b8 64 00 00 00       	mov    eax,0x64
    4dba:	e9 b9 03 00 00       	jmp    0x5178
    4dbf:	b8 65 00 00 00       	mov    eax,0x65
    4dc4:	e9 af 03 00 00       	jmp    0x5178
    4dc9:	b8 66 00 00 00       	mov    eax,0x66
    4dce:	e9 a5 03 00 00       	jmp    0x5178
    4dd3:	b8 67 00 00 00       	mov    eax,0x67
    4dd8:	e9 9b 03 00 00       	jmp    0x5178
    4ddd:	b8 68 00 00 00       	mov    eax,0x68
    4de2:	e9 91 03 00 00       	jmp    0x5178
    4de7:	b8 69 00 00 00       	mov    eax,0x69
    4dec:	e9 87 03 00 00       	jmp    0x5178
    4df1:	b8 6a 00 00 00       	mov    eax,0x6a
    4df6:	e9 7d 03 00 00       	jmp    0x5178
    4dfb:	b8 6b 00 00 00       	mov    eax,0x6b
    4e00:	e9 73 03 00 00       	jmp    0x5178
    4e05:	b8 6c 00 00 00       	mov    eax,0x6c
    4e0a:	e9 69 03 00 00       	jmp    0x5178
    4e0f:	b8 6d 00 00 00       	mov    eax,0x6d
    4e14:	e9 5f 03 00 00       	jmp    0x5178
    4e19:	b8 6e 00 00 00       	mov    eax,0x6e
    4e1e:	e9 55 03 00 00       	jmp    0x5178
    4e23:	b8 6f 00 00 00       	mov    eax,0x6f
    4e28:	e9 4b 03 00 00       	jmp    0x5178
    4e2d:	b8 70 00 00 00       	mov    eax,0x70
    4e32:	e9 41 03 00 00       	jmp    0x5178
    4e37:	b8 71 00 00 00       	mov    eax,0x71
    4e3c:	e9 37 03 00 00       	jmp    0x5178
    4e41:	b8 72 00 00 00       	mov    eax,0x72
    4e46:	e9 2d 03 00 00       	jmp    0x5178
    4e4b:	b8 73 00 00 00       	mov    eax,0x73
    4e50:	e9 23 03 00 00       	jmp    0x5178
    4e55:	b8 74 00 00 00       	mov    eax,0x74
    4e5a:	e9 19 03 00 00       	jmp    0x5178
    4e5f:	b8 75 00 00 00       	mov    eax,0x75
    4e64:	e9 0f 03 00 00       	jmp    0x5178
    4e69:	b8 76 00 00 00       	mov    eax,0x76
    4e6e:	e9 05 03 00 00       	jmp    0x5178
    4e73:	b8 77 00 00 00       	mov    eax,0x77
    4e78:	e9 fb 02 00 00       	jmp    0x5178
    4e7d:	b8 78 00 00 00       	mov    eax,0x78
    4e82:	e9 f1 02 00 00       	jmp    0x5178
    4e87:	b8 79 00 00 00       	mov    eax,0x79
    4e8c:	e9 e7 02 00 00       	jmp    0x5178
    4e91:	b8 7a 00 00 00       	mov    eax,0x7a
    4e96:	e9 dd 02 00 00       	jmp    0x5178
    4e9b:	b8 30 00 00 00       	mov    eax,0x30
    4ea0:	e9 d3 02 00 00       	jmp    0x5178
    4ea5:	b8 31 00 00 00       	mov    eax,0x31
    4eaa:	e9 c9 02 00 00       	jmp    0x5178
    4eaf:	b8 32 00 00 00       	mov    eax,0x32
    4eb4:	e9 bf 02 00 00       	jmp    0x5178
    4eb9:	b8 33 00 00 00       	mov    eax,0x33
    4ebe:	e9 b5 02 00 00       	jmp    0x5178
    4ec3:	b8 34 00 00 00       	mov    eax,0x34
    4ec8:	e9 ab 02 00 00       	jmp    0x5178
    4ecd:	b8 35 00 00 00       	mov    eax,0x35
    4ed2:	e9 a1 02 00 00       	jmp    0x5178
    4ed7:	b8 36 00 00 00       	mov    eax,0x36
    4edc:	e9 97 02 00 00       	jmp    0x5178
    4ee1:	b8 37 00 00 00       	mov    eax,0x37
    4ee6:	e9 8d 02 00 00       	jmp    0x5178
    4eeb:	b8 38 00 00 00       	mov    eax,0x38
    4ef0:	e9 83 02 00 00       	jmp    0x5178
    4ef5:	b8 39 00 00 00       	mov    eax,0x39
    4efa:	e9 79 02 00 00       	jmp    0x5178
    4eff:	b8 2d 00 00 00       	mov    eax,0x2d
    4f04:	e9 6f 02 00 00       	jmp    0x5178
    4f09:	b8 5e 00 00 00       	mov    eax,0x5e
    4f0e:	e9 65 02 00 00       	jmp    0x5178
    4f13:	b8 5c 00 00 00       	mov    eax,0x5c
    4f18:	e9 5b 02 00 00       	jmp    0x5178
    4f1d:	b8 5d 00 00 00       	mov    eax,0x5d
    4f22:	e9 51 02 00 00       	jmp    0x5178
    4f27:	b8 08 00 00 00       	mov    eax,0x8
    4f2c:	e9 47 02 00 00       	jmp    0x5178
    4f31:	b8 20 00 00 00       	mov    eax,0x20
    4f36:	e9 3d 02 00 00       	jmp    0x5178
    4f3b:	b8 0a 00 00 00       	mov    eax,0xa
    4f40:	e9 33 02 00 00       	jmp    0x5178
    4f45:	b8 40 00 00 00       	mov    eax,0x40
    4f4a:	e9 29 02 00 00       	jmp    0x5178
    4f4f:	b8 5b 00 00 00       	mov    eax,0x5b
    4f54:	e9 1f 02 00 00       	jmp    0x5178
    4f59:	b8 3b 00 00 00       	mov    eax,0x3b
    4f5e:	e9 15 02 00 00       	jmp    0x5178
    4f63:	b8 3a 00 00 00       	mov    eax,0x3a
    4f68:	e9 0b 02 00 00       	jmp    0x5178
    4f6d:	b8 2c 00 00 00       	mov    eax,0x2c
    4f72:	e9 01 02 00 00       	jmp    0x5178
    4f77:	b8 2e 00 00 00       	mov    eax,0x2e
    4f7c:	e9 f7 01 00 00       	jmp    0x5178
    4f81:	b8 2f 00 00 00       	mov    eax,0x2f
    4f86:	e9 ed 01 00 00       	jmp    0x5178
    4f8b:	b8 5c 00 00 00       	mov    eax,0x5c
    4f90:	e9 e3 01 00 00       	jmp    0x5178
    4f95:	0f b6 45 fc          	movzx  eax,BYTE PTR [rbp-0x4]
    4f99:	83 f8 7d             	cmp    eax,0x7d
    4f9c:	0f 87 d0 01 00 00    	ja     0x5172
    4fa2:	89 c0                	mov    eax,eax
    4fa4:	48 8b 04 c5 00 71 11 	mov    rax,QWORD PTR [rax*8+0x117100]
    4fab:	00 
    4fac:	ff e0                	jmp    rax
    4fae:	b8 41 00 00 00       	mov    eax,0x41
    4fb3:	e9 c0 01 00 00       	jmp    0x5178
    4fb8:	b8 42 00 00 00       	mov    eax,0x42
    4fbd:	e9 b6 01 00 00       	jmp    0x5178
    4fc2:	b8 43 00 00 00       	mov    eax,0x43
    4fc7:	e9 ac 01 00 00       	jmp    0x5178
    4fcc:	b8 44 00 00 00       	mov    eax,0x44
    4fd1:	e9 a2 01 00 00       	jmp    0x5178
    4fd6:	b8 45 00 00 00       	mov    eax,0x45
    4fdb:	e9 98 01 00 00       	jmp    0x5178
    4fe0:	b8 46 00 00 00       	mov    eax,0x46
    4fe5:	e9 8e 01 00 00       	jmp    0x5178
    4fea:	b8 47 00 00 00       	mov    eax,0x47
    4fef:	e9 84 01 00 00       	jmp    0x5178
    4ff4:	b8 48 00 00 00       	mov    eax,0x48
    4ff9:	e9 7a 01 00 00       	jmp    0x5178
    4ffe:	b8 49 00 00 00       	mov    eax,0x49
    5003:	e9 70 01 00 00       	jmp    0x5178
    5008:	b8 4a 00 00 00       	mov    eax,0x4a
    500d:	e9 66 01 00 00       	jmp    0x5178
    5012:	b8 4b 00 00 00       	mov    eax,0x4b
    5017:	e9 5c 01 00 00       	jmp    0x5178
    501c:	b8 4c 00 00 00       	mov    eax,0x4c
    5021:	e9 52 01 00 00       	jmp    0x5178
    5026:	b8 4d 00 00 00       	mov    eax,0x4d
    502b:	e9 48 01 00 00       	jmp    0x5178
    5030:	b8 4e 00 00 00       	mov    eax,0x4e
    5035:	e9 3e 01 00 00       	jmp    0x5178
    503a:	b8 4f 00 00 00       	mov    eax,0x4f
    503f:	e9 34 01 00 00       	jmp    0x5178
    5044:	b8 50 00 00 00       	mov    eax,0x50
    5049:	e9 2a 01 00 00       	jmp    0x5178
    504e:	b8 51 00 00 00       	mov    eax,0x51
    5053:	e9 20 01 00 00       	jmp    0x5178
    5058:	b8 52 00 00 00       	mov    eax,0x52
    505d:	e9 16 01 00 00       	jmp    0x5178
    5062:	b8 53 00 00 00       	mov    eax,0x53
    5067:	e9 0c 01 00 00       	jmp    0x5178
    506c:	b8 54 00 00 00       	mov    eax,0x54
    5071:	e9 02 01 00 00       	jmp    0x5178
    5076:	b8 55 00 00 00       	mov    eax,0x55
    507b:	e9 f8 00 00 00       	jmp    0x5178
    5080:	b8 56 00 00 00       	mov    eax,0x56
    5085:	e9 ee 00 00 00       	jmp    0x5178
    508a:	b8 57 00 00 00       	mov    eax,0x57
    508f:	e9 e4 00 00 00       	jmp    0x5178
    5094:	b8 58 00 00 00       	mov    eax,0x58
    5099:	e9 da 00 00 00       	jmp    0x5178
    509e:	b8 59 00 00 00       	mov    eax,0x59
    50a3:	e9 d0 00 00 00       	jmp    0x5178
    50a8:	b8 5a 00 00 00       	mov    eax,0x5a
    50ad:	e9 c6 00 00 00       	jmp    0x5178
    50b2:	b8 21 00 00 00       	mov    eax,0x21
    50b7:	e9 bc 00 00 00       	jmp    0x5178
    50bc:	b8 22 00 00 00       	mov    eax,0x22
    50c1:	e9 b2 00 00 00       	jmp    0x5178
    50c6:	b8 23 00 00 00       	mov    eax,0x23
    50cb:	e9 a8 00 00 00       	jmp    0x5178
    50d0:	b8 24 00 00 00       	mov    eax,0x24
    50d5:	e9 9e 00 00 00       	jmp    0x5178
    50da:	b8 25 00 00 00       	mov    eax,0x25
    50df:	e9 94 00 00 00       	jmp    0x5178
    50e4:	b8 26 00 00 00       	mov    eax,0x26
    50e9:	e9 8a 00 00 00       	jmp    0x5178
    50ee:	b8 27 00 00 00       	mov    eax,0x27
    50f3:	e9 80 00 00 00       	jmp    0x5178
    50f8:	b8 28 00 00 00       	mov    eax,0x28
    50fd:	eb 79                	jmp    0x5178
    50ff:	b8 29 00 00 00       	mov    eax,0x29
    5104:	eb 72                	jmp    0x5178
    5106:	b8 3d 00 00 00       	mov    eax,0x3d
    510b:	eb 6b                	jmp    0x5178
    510d:	b8 7e 00 00 00       	mov    eax,0x7e
    5112:	eb 64                	jmp    0x5178
    5114:	b8 7c 00 00 00       	mov    eax,0x7c
    5119:	eb 5d                	jmp    0x5178
    511b:	b8 7d 00 00 00       	mov    eax,0x7d
    5120:	eb 56                	jmp    0x5178
    5122:	b8 08 00 00 00       	mov    eax,0x8
    5127:	eb 4f                	jmp    0x5178
    5129:	b8 20 00 00 00       	mov    eax,0x20
    512e:	eb 48                	jmp    0x5178
    5130:	b8 0a 00 00 00       	mov    eax,0xa
    5135:	eb 41                	jmp    0x5178
    5137:	b8 60 00 00 00       	mov    eax,0x60
    513c:	eb 3a                	jmp    0x5178
    513e:	b8 7b 00 00 00       	mov    eax,0x7b
    5143:	eb 33                	jmp    0x5178
    5145:	b8 2b 00 00 00       	mov    eax,0x2b
    514a:	eb 2c                	jmp    0x5178
    514c:	b8 2a 00 00 00       	mov    eax,0x2a
    5151:	eb 25                	jmp    0x5178
    5153:	b8 3c 00 00 00       	mov    eax,0x3c
    5158:	eb 1e                	jmp    0x5178
    515a:	b8 3e 00 00 00       	mov    eax,0x3e
    515f:	eb 17                	jmp    0x5178
    5161:	b8 3f 00 00 00       	mov    eax,0x3f
    5166:	eb 10                	jmp    0x5178
    5168:	b8 5f 00 00 00       	mov    eax,0x5f
    516d:	eb 09                	jmp    0x5178
    516f:	90                   	nop
    5170:	eb 01                	jmp    0x5173
    5172:	90                   	nop
    5173:	b8 00 00 00 00       	mov    eax,0x0
    5178:	c9                   	leave  
    5179:	c3                   	ret    
0x000000000011517a: readline_serial
    517a:	55                   	push   rbp
    517b:	48 89 e5             	mov    rbp,rsp
    517e:	c6 05 db 31 00 00 00 	mov    BYTE PTR [rip+0x31db],0x0        # 0x8360
    5185:	48 8b 15 bc 2c 00 00 	mov    rdx,QWORD PTR [rip+0x2cbc]        # 0x7e48
    518c:	8b 35 d6 31 00 00    	mov    esi,DWORD PTR [rip+0x31d6]        # 0x8368
    5192:	8b 05 cc 31 00 00    	mov    eax,DWORD PTR [rip+0x31cc]        # 0x8364
    5198:	41 b9 f0 74 11 00    	mov    r9d,0x1174f0
    519e:	49 89 d0             	mov    r8,rdx
    51a1:	8b 0d d5 2c 00 00    	mov    ecx,DWORD PTR [rip+0x2cd5]        # 0x7e7c
    51a7:	8b 15 6b 2c 00 00    	mov    edx,DWORD PTR [rip+0x2c6b]        # 0x7e18
    51ad:	89 c7                	mov    edi,eax
    51af:	e8 1c b8 ff ff       	call   0x9d0
    51b4:	8b 05 aa 31 00 00    	mov    eax,DWORD PTR [rip+0x31aa]        # 0x8364
    51ba:	83 c0 10             	add    eax,0x10
    51bd:	89 05 a1 31 00 00    	mov    DWORD PTR [rip+0x31a1],eax        # 0x8364
    51c3:	e9 8d 00 00 00       	jmp    0x5255
    51c8:	c6 05 91 31 00 00 00 	mov    BYTE PTR [rip+0x3191],0x0        # 0x8360
    51cf:	e8 84 f2 ff ff       	call   0x4458
    51d4:	0f b6 05 85 31 00 00 	movzx  eax,BYTE PTR [rip+0x3185]        # 0x8360
    51db:	3c 0d                	cmp    al,0xd
    51dd:	74 76                	je     0x5255
    51df:	0f b6 05 7a 31 00 00 	movzx  eax,BYTE PTR [rip+0x317a]        # 0x8360
    51e6:	3c 0a                	cmp    al,0xa
    51e8:	75 02                	jne    0x51ec
    51ea:	eb 69                	jmp    0x5255
    51ec:	bf 80 83 11 00       	mov    edi,0x118380
    51f1:	e8 79 bf ff ff       	call   0x116f
    51f6:	84 c0                	test   al,al
    51f8:	75 5b                	jne    0x5255
    51fa:	0f b6 05 5f 31 00 00 	movzx  eax,BYTE PTR [rip+0x315f]        # 0x8360
    5201:	0f be c0             	movsx  eax,al
    5204:	89 c6                	mov    esi,eax
    5206:	bf 80 83 11 00       	mov    edi,0x118380
    520b:	e8 9e bf ff ff       	call   0x11ae
    5210:	0f b6 05 49 31 00 00 	movzx  eax,BYTE PTR [rip+0x3149]        # 0x8360
    5217:	0f be c8             	movsx  ecx,al
    521a:	48 8b 15 27 2c 00 00 	mov    rdx,QWORD PTR [rip+0x2c27]        # 0x7e48
    5221:	8b 35 41 31 00 00    	mov    esi,DWORD PTR [rip+0x3141]        # 0x8368
    5227:	8b 05 37 31 00 00    	mov    eax,DWORD PTR [rip+0x3137]        # 0x8364
    522d:	41 89 c9             	mov    r9d,ecx
    5230:	49 89 d0             	mov    r8,rdx
    5233:	8b 0d 43 2c 00 00    	mov    ecx,DWORD PTR [rip+0x2c43]        # 0x7e7c
    5239:	8b 15 d1 2b 00 00    	mov    edx,DWORD PTR [rip+0x2bd1]        # 0x7e10
    523f:	89 c7                	mov    edi,eax
    5241:	e8 8b b5 ff ff       	call   0x7d1
    5246:	8b 05 18 31 00 00    	mov    eax,DWORD PTR [rip+0x3118]        # 0x8364
    524c:	83 c0 08             	add    eax,0x8
    524f:	89 05 0f 31 00 00    	mov    DWORD PTR [rip+0x310f],eax        # 0x8364
    5255:	0f b6 05 04 31 00 00 	movzx  eax,BYTE PTR [rip+0x3104]        # 0x8360
    525c:	3c 0d                	cmp    al,0xd
    525e:	74 0f                	je     0x526f
    5260:	0f b6 05 f9 30 00 00 	movzx  eax,BYTE PTR [rip+0x30f9]        # 0x8360
    5267:	3c 0a                	cmp    al,0xa
    5269:	0f 85 59 ff ff ff    	jne    0x51c8
    526f:	c7 05 eb 30 00 00 00 	mov    DWORD PTR [rip+0x30eb],0x0        # 0x8364
    5276:	00 00 00 
    5279:	8b 05 e9 30 00 00    	mov    eax,DWORD PTR [rip+0x30e9]        # 0x8368
    527f:	83 c0 10             	add    eax,0x10
    5282:	89 05 e0 30 00 00    	mov    DWORD PTR [rip+0x30e0],eax        # 0x8368
    5288:	90                   	nop
    5289:	5d                   	pop    rbp
    528a:	c3                   	ret    
0x000000000011528b: readline_ps2
    528b:	55                   	push   rbp
    528c:	48 89 e5             	mov    rbp,rsp
    528f:	48 83 ec 10          	sub    rsp,0x10
    5293:	48 89 7d f8          	mov    QWORD PTR [rbp-0x8],rdi
    5297:	c6 05 c2 30 00 00 00 	mov    BYTE PTR [rip+0x30c2],0x0        # 0x8360
    529e:	48 8b 15 a3 2b 00 00 	mov    rdx,QWORD PTR [rip+0x2ba3]        # 0x7e48
    52a5:	8b 35 bd 30 00 00    	mov    esi,DWORD PTR [rip+0x30bd]        # 0x8368
    52ab:	8b 05 b3 30 00 00    	mov    eax,DWORD PTR [rip+0x30b3]        # 0x8364
    52b1:	41 b9 f3 74 11 00    	mov    r9d,0x1174f3
    52b7:	49 89 d0             	mov    r8,rdx
    52ba:	8b 0d bc 2b 00 00    	mov    ecx,DWORD PTR [rip+0x2bbc]        # 0x7e7c
    52c0:	8b 15 52 2b 00 00    	mov    edx,DWORD PTR [rip+0x2b52]        # 0x7e18
    52c6:	89 c7                	mov    edi,eax
    52c8:	e8 03 b7 ff ff       	call   0x9d0
    52cd:	8b 05 91 30 00 00    	mov    eax,DWORD PTR [rip+0x3091]        # 0x8364
    52d3:	05 90 00 00 00       	add    eax,0x90
    52d8:	89 05 86 30 00 00    	mov    DWORD PTR [rip+0x3086],eax        # 0x8364
    52de:	e9 a3 00 00 00       	jmp    0x5386
    52e3:	e8 ac f5 ff ff       	call   0x4894
    52e8:	0f b6 c0             	movzx  eax,al
    52eb:	be 62 83 11 00       	mov    esi,0x118362
    52f0:	89 c7                	mov    edi,eax
    52f2:	e8 d7 f5 ff ff       	call   0x48ce
    52f7:	88 05 63 30 00 00    	mov    BYTE PTR [rip+0x3063],al        # 0x8360
    52fd:	0f b6 05 5c 30 00 00 	movzx  eax,BYTE PTR [rip+0x305c]        # 0x8360
    5304:	3c 0a                	cmp    al,0xa
    5306:	0f 84 8b 00 00 00    	je     0x5397
    530c:	0f b6 05 4d 30 00 00 	movzx  eax,BYTE PTR [rip+0x304d]        # 0x8360
    5313:	84 c0                	test   al,al
    5315:	75 02                	jne    0x5319
    5317:	eb 6d                	jmp    0x5386
    5319:	48 8b 45 f8          	mov    rax,QWORD PTR [rbp-0x8]
    531d:	48 89 c7             	mov    rdi,rax
    5320:	e8 4a be ff ff       	call   0x116f
    5325:	84 c0                	test   al,al
    5327:	75 5d                	jne    0x5386
    5329:	0f b6 05 30 30 00 00 	movzx  eax,BYTE PTR [rip+0x3030]        # 0x8360
    5330:	0f be d0             	movsx  edx,al
    5333:	48 8b 45 f8          	mov    rax,QWORD PTR [rbp-0x8]
    5337:	89 d6                	mov    esi,edx
    5339:	48 89 c7             	mov    rdi,rax
    533c:	e8 6d be ff ff       	call   0x11ae
    5341:	0f b6 05 18 30 00 00 	movzx  eax,BYTE PTR [rip+0x3018]        # 0x8360
    5348:	0f be c8             	movsx  ecx,al
    534b:	48 8b 15 f6 2a 00 00 	mov    rdx,QWORD PTR [rip+0x2af6]        # 0x7e48
    5352:	8b 35 10 30 00 00    	mov    esi,DWORD PTR [rip+0x3010]        # 0x8368
    5358:	8b 05 06 30 00 00    	mov    eax,DWORD PTR [rip+0x3006]        # 0x8364
    535e:	41 89 c9             	mov    r9d,ecx
    5361:	49 89 d0             	mov    r8,rdx
    5364:	8b 0d 12 2b 00 00    	mov    ecx,DWORD PTR [rip+0x2b12]        # 0x7e7c
    536a:	8b 15 a0 2a 00 00    	mov    edx,DWORD PTR [rip+0x2aa0]        # 0x7e10
    5370:	89 c7                	mov    edi,eax
    5372:	e8 5a b4 ff ff       	call   0x7d1
    5377:	8b 05 e7 2f 00 00    	mov    eax,DWORD PTR [rip+0x2fe7]        # 0x8364
    537d:	83 c0 08             	add    eax,0x8
    5380:	89 05 de 2f 00 00    	mov    DWORD PTR [rip+0x2fde],eax        # 0x8364
    5386:	0f b6 05 d3 2f 00 00 	movzx  eax,BYTE PTR [rip+0x2fd3]        # 0x8360
    538d:	3c 0a                	cmp    al,0xa
    538f:	0f 85 4e ff ff ff    	jne    0x52e3
    5395:	eb 01                	jmp    0x5398
    5397:	90                   	nop
    5398:	c7 05 c2 2f 00 00 00 	mov    DWORD PTR [rip+0x2fc2],0x0        # 0x8364
    539f:	00 00 00 
    53a2:	8b 05 c0 2f 00 00    	mov    eax,DWORD PTR [rip+0x2fc0]        # 0x8368
    53a8:	83 c0 10             	add    eax,0x10
    53ab:	89 05 b7 2f 00 00    	mov    DWORD PTR [rip+0x2fb7],eax        # 0x8368
    53b1:	90                   	nop
    53b2:	c9                   	leave  
    53b3:	c3                   	ret    
0x00000000001153b4: parse_line
    53b4:	55                   	push   rbp
    53b5:	48 89 e5             	mov    rbp,rsp
    53b8:	48 83 ec 10          	sub    rsp,0x10
    53bc:	c7 45 fc 00 00 00 00 	mov    DWORD PTR [rbp-0x4],0x0
    53c3:	eb 1c                	jmp    0x53e1
    53c5:	8b 45 fc             	mov    eax,DWORD PTR [rbp-0x4]
    53c8:	48 98                	cdqe   
    53ca:	48 05 a0 7e 11 00    	add    rax,0x117ea0
    53d0:	48 89 c6             	mov    rsi,rax
    53d3:	bf 80 83 11 00       	mov    edi,0x118380
    53d8:	e8 40 be ff ff       	call   0x121d
    53dd:	83 45 fc 01          	add    DWORD PTR [rbp-0x4],0x1
    53e1:	bf 80 83 11 00       	mov    edi,0x118380
    53e6:	e8 61 bd ff ff       	call   0x114c
    53eb:	84 c0                	test   al,al
    53ed:	74 d6                	je     0x53c5
    53ef:	bf 06 75 11 00       	mov    edi,0x117506
    53f4:	e8 0f f1 ff ff       	call   0x4508
    53f9:	bf a0 7e 11 00       	mov    edi,0x117ea0
    53fe:	e8 05 f1 ff ff       	call   0x4508
    5403:	bf 13 75 11 00       	mov    edi,0x117513
    5408:	e8 fb f0 ff ff       	call   0x4508
    540d:	c7 45 f4 00 00 00 00 	mov    DWORD PTR [rbp-0xc],0x0
    5414:	8b 45 f4             	mov    eax,DWORD PTR [rbp-0xc]
    5417:	48 98                	cdqe   
    5419:	48 c7 04 c5 a0 82 11 	mov    QWORD PTR [rax*8+0x1182a0],0x117ea0
    5420:	00 a0 7e 11 00 
    5425:	83 45 f4 01          	add    DWORD PTR [rbp-0xc],0x1
    5429:	c7 45 f8 00 00 00 00 	mov    DWORD PTR [rbp-0x8],0x0
    5430:	eb 50                	jmp    0x5482
    5432:	8b 45 f8             	mov    eax,DWORD PTR [rbp-0x8]
    5435:	48 98                	cdqe   
    5437:	0f b6 80 a0 7e 11 00 	movzx  eax,BYTE PTR [rax+0x117ea0]
    543e:	84 c0                	test   al,al
    5440:	74 4a                	je     0x548c
    5442:	8b 45 f8             	mov    eax,DWORD PTR [rbp-0x8]
    5445:	48 98                	cdqe   
    5447:	0f b6 80 a0 7e 11 00 	movzx  eax,BYTE PTR [rax+0x117ea0]
    544e:	3c 20                	cmp    al,0x20
    5450:	75 2c                	jne    0x547e
    5452:	8b 45 f8             	mov    eax,DWORD PTR [rbp-0x8]
    5455:	83 c0 01             	add    eax,0x1
    5458:	48 98                	cdqe   
    545a:	48 8d 90 a0 7e 11 00 	lea    rdx,[rax+0x117ea0]
    5461:	8b 45 f4             	mov    eax,DWORD PTR [rbp-0xc]
    5464:	48 98                	cdqe   
    5466:	48 89 14 c5 a0 82 11 	mov    QWORD PTR [rax*8+0x1182a0],rdx
    546d:	00 
    546e:	8b 45 f8             	mov    eax,DWORD PTR [rbp-0x8]
    5471:	48 98                	cdqe   
    5473:	c6 80 a0 7e 11 00 00 	mov    BYTE PTR [rax+0x117ea0],0x0
    547a:	83 45 f4 01          	add    DWORD PTR [rbp-0xc],0x1
    547e:	83 45 f8 01          	add    DWORD PTR [rbp-0x8],0x1
    5482:	8b 45 f8             	mov    eax,DWORD PTR [rbp-0x8]
    5485:	3b 45 fc             	cmp    eax,DWORD PTR [rbp-0x4]
    5488:	7c a8                	jl     0x5432
    548a:	eb 01                	jmp    0x548d
    548c:	90                   	nop
    548d:	90                   	nop
    548e:	c9                   	leave  
    548f:	c3                   	ret    
0x0000000000115490: do_command
    5490:	55                   	push   rbp
    5491:	48 89 e5             	mov    rbp,rsp
    5494:	48 83 ec 10          	sub    rsp,0x10
    5498:	48 8b 05 01 2e 00 00 	mov    rax,QWORD PTR [rip+0x2e01]        # 0x82a0
    549f:	48 89 45 f0          	mov    QWORD PTR [rbp-0x10],rax
    54a3:	c7 45 fc 00 00 00 00 	mov    DWORD PTR [rbp-0x4],0x0
    54aa:	c7 45 f8 00 00 00 00 	mov    DWORD PTR [rbp-0x8],0x0
    54b1:	eb 1a                	jmp    0x54cd
    54b3:	8b 45 f8             	mov    eax,DWORD PTR [rbp-0x8]
    54b6:	48 98                	cdqe   
    54b8:	48 8b 04 c5 a0 82 11 	mov    rax,QWORD PTR [rax*8+0x1182a0]
    54bf:	00 
    54c0:	48 85 c0             	test   rax,rax
    54c3:	74 04                	je     0x54c9
    54c5:	83 45 fc 01          	add    DWORD PTR [rbp-0x4],0x1
    54c9:	83 45 f8 01          	add    DWORD PTR [rbp-0x8],0x1
    54cd:	83 7d f8 0f          	cmp    DWORD PTR [rbp-0x8],0xf
    54d1:	7e e0                	jle    0x54b3
    54d3:	48 8b 45 f0          	mov    rax,QWORD PTR [rbp-0x10]
    54d7:	ba 05 00 00 00       	mov    edx,0x5
    54dc:	be 15 75 11 00       	mov    esi,0x117515
    54e1:	48 89 c7             	mov    rdi,rax
    54e4:	e8 70 bf ff ff       	call   0x1459
    54e9:	84 c0                	test   al,al
    54eb:	75 14                	jne    0x5501
    54ed:	8b 45 fc             	mov    eax,DWORD PTR [rbp-0x4]
    54f0:	be a0 82 11 00       	mov    esi,0x1182a0
    54f5:	89 c7                	mov    edi,eax
    54f7:	e8 ad 05 00 00       	call   0x5aa9
    54fc:	e9 90 00 00 00       	jmp    0x5591
    5501:	48 8b 45 f0          	mov    rax,QWORD PTR [rbp-0x10]
    5505:	ba 07 00 00 00       	mov    edx,0x7
    550a:	be 1a 75 11 00       	mov    esi,0x11751a
    550f:	48 89 c7             	mov    rdi,rax
    5512:	e8 42 bf ff ff       	call   0x1459
    5517:	84 c0                	test   al,al
    5519:	75 11                	jne    0x552c
    551b:	8b 45 fc             	mov    eax,DWORD PTR [rbp-0x4]
    551e:	be a0 82 11 00       	mov    esi,0x1182a0
    5523:	89 c7                	mov    edi,eax
    5525:	e8 08 06 00 00       	call   0x5b32
    552a:	eb 65                	jmp    0x5591
    552c:	48 8b 45 f0          	mov    rax,QWORD PTR [rbp-0x10]
    5530:	ba 06 00 00 00       	mov    edx,0x6
    5535:	be 21 75 11 00       	mov    esi,0x117521
    553a:	48 89 c7             	mov    rdi,rax
    553d:	e8 17 bf ff ff       	call   0x1459
    5542:	84 c0                	test   al,al
    5544:	75 11                	jne    0x5557
    5546:	8b 45 fc             	mov    eax,DWORD PTR [rbp-0x4]
    5549:	be a0 82 11 00       	mov    esi,0x1182a0
    554e:	89 c7                	mov    edi,eax
    5550:	e8 2d 06 00 00       	call   0x5b82
    5555:	eb 3a                	jmp    0x5591
    5557:	48 8b 45 f0          	mov    rax,QWORD PTR [rbp-0x10]
    555b:	ba 01 00 00 00       	mov    edx,0x1
    5560:	be 27 75 11 00       	mov    esi,0x117527
    5565:	48 89 c7             	mov    rdi,rax
    5568:	e8 ec be ff ff       	call   0x1459
    556d:	84 c0                	test   al,al
    556f:	75 11                	jne    0x5582
    5571:	be 20 83 11 00       	mov    esi,0x118320
    5576:	bf 28 75 11 00       	mov    edi,0x117528
    557b:	e8 5e bf ff ff       	call   0x14de
    5580:	eb 0f                	jmp    0x5591
    5582:	be 20 83 11 00       	mov    esi,0x118320
    5587:	bf 31 75 11 00       	mov    edi,0x117531
    558c:	e8 4d bf ff ff       	call   0x14de
    5591:	90                   	nop
    5592:	c9                   	leave  
    5593:	c3                   	ret    
0x0000000000115594: writelines
    5594:	55                   	push   rbp
    5595:	48 89 e5             	mov    rbp,rsp
    5598:	0f b6 05 81 2d 00 00 	movzx  eax,BYTE PTR [rip+0x2d81]        # 0x8320
    559f:	84 c0                	test   al,al
    55a1:	75 31                	jne    0x55d4
    55a3:	48 8b 15 9e 28 00 00 	mov    rdx,QWORD PTR [rip+0x289e]        # 0x7e48
    55aa:	8b 35 b8 2d 00 00    	mov    esi,DWORD PTR [rip+0x2db8]        # 0x8368
    55b0:	8b 05 ae 2d 00 00    	mov    eax,DWORD PTR [rip+0x2dae]        # 0x8364
    55b6:	41 b9 3d 75 11 00    	mov    r9d,0x11753d
    55bc:	49 89 d0             	mov    r8,rdx
    55bf:	8b 0d b7 28 00 00    	mov    ecx,DWORD PTR [rip+0x28b7]        # 0x7e7c
    55c5:	8b 15 45 28 00 00    	mov    edx,DWORD PTR [rip+0x2845]        # 0x7e10
    55cb:	89 c7                	mov    edi,eax
    55cd:	e8 fe b3 ff ff       	call   0x9d0
    55d2:	eb 2f                	jmp    0x5603
    55d4:	48 8b 15 6d 28 00 00 	mov    rdx,QWORD PTR [rip+0x286d]        # 0x7e48
    55db:	8b 35 87 2d 00 00    	mov    esi,DWORD PTR [rip+0x2d87]        # 0x8368
    55e1:	8b 05 7d 2d 00 00    	mov    eax,DWORD PTR [rip+0x2d7d]        # 0x8364
    55e7:	41 b9 20 83 11 00    	mov    r9d,0x118320
    55ed:	49 89 d0             	mov    r8,rdx
    55f0:	8b 0d 86 28 00 00    	mov    ecx,DWORD PTR [rip+0x2886]        # 0x7e7c
    55f6:	8b 15 14 28 00 00    	mov    edx,DWORD PTR [rip+0x2814]        # 0x7e10
    55fc:	89 c7                	mov    edi,eax
    55fe:	e8 cd b3 ff ff       	call   0x9d0
    5603:	c7 05 57 2d 00 00 00 	mov    DWORD PTR [rip+0x2d57],0x0        # 0x8364
    560a:	00 00 00 
    560d:	8b 05 55 2d 00 00    	mov    eax,DWORD PTR [rip+0x2d55]        # 0x8368
    5613:	83 c0 10             	add    eax,0x10
    5616:	89 05 4c 2d 00 00    	mov    DWORD PTR [rip+0x2d4c],eax        # 0x8368
    561c:	90                   	nop
    561d:	5d                   	pop    rbp
    561e:	c3                   	ret    
0x000000000011561f: console
    561f:	55                   	push   rbp
    5620:	48 89 e5             	mov    rbp,rsp
    5623:	48 83 ec 60          	sub    rsp,0x60
    5627:	89 7d fc             	mov    DWORD PTR [rbp-0x4],edi
    562a:	48 89 75 f0          	mov    QWORD PTR [rbp-0x10],rsi
    562e:	bf 3f 75 11 00       	mov    edi,0x11753f
    5633:	e8 d0 ee ff ff       	call   0x4508
    5638:	48 8d 45 a0          	lea    rax,[rbp-0x60]
    563c:	48 89 c7             	mov    rdi,rax
    563f:	e8 86 ba ff ff       	call   0x10ca
    5644:	48 8b 45 a0          	mov    rax,QWORD PTR [rbp-0x60]
    5648:	48 89 05 31 2d 00 00 	mov    QWORD PTR [rip+0x2d31],rax        # 0x8380
    564f:	48 8b 45 a8          	mov    rax,QWORD PTR [rbp-0x58]
    5653:	48 89 05 2e 2d 00 00 	mov    QWORD PTR [rip+0x2d2e],rax        # 0x8388
    565a:	48 8b 45 b0          	mov    rax,QWORD PTR [rbp-0x50]
    565e:	48 89 05 2b 2d 00 00 	mov    QWORD PTR [rip+0x2d2b],rax        # 0x8390
    5665:	48 8b 45 b8          	mov    rax,QWORD PTR [rbp-0x48]
    5669:	48 89 05 28 2d 00 00 	mov    QWORD PTR [rip+0x2d28],rax        # 0x8398
    5670:	48 8b 45 c0          	mov    rax,QWORD PTR [rbp-0x40]
    5674:	48 89 05 25 2d 00 00 	mov    QWORD PTR [rip+0x2d25],rax        # 0x83a0
    567b:	48 8b 45 c8          	mov    rax,QWORD PTR [rbp-0x38]
    567f:	48 89 05 22 2d 00 00 	mov    QWORD PTR [rip+0x2d22],rax        # 0x83a8
    5686:	48 8b 45 d0          	mov    rax,QWORD PTR [rbp-0x30]
    568a:	48 89 05 1f 2d 00 00 	mov    QWORD PTR [rip+0x2d1f],rax        # 0x83b0
    5691:	48 8b 45 d8          	mov    rax,QWORD PTR [rbp-0x28]
    5695:	48 89 05 1c 2d 00 00 	mov    QWORD PTR [rip+0x2d1c],rax        # 0x83b8
    569c:	0f b7 45 e0          	movzx  eax,WORD PTR [rbp-0x20]
    56a0:	66 89 05 19 2d 00 00 	mov    WORD PTR [rip+0x2d19],ax        # 0x83c0
    56a7:	bf 4f 75 11 00       	mov    edi,0x11754f
    56ac:	e8 57 ee ff ff       	call   0x4508
    56b1:	e8 c4 fa ff ff       	call   0x517a
    56b6:	bf 6a 75 11 00       	mov    edi,0x11756a
    56bb:	e8 48 ee ff ff       	call   0x4508
    56c0:	e8 ef fc ff ff       	call   0x53b4
    56c5:	bf 80 75 11 00       	mov    edi,0x117580
    56ca:	e8 39 ee ff ff       	call   0x4508
    56cf:	e8 bc fd ff ff       	call   0x5490
    56d4:	bf 96 75 11 00       	mov    edi,0x117596
    56d9:	e8 2a ee ff ff       	call   0x4508
    56de:	b8 00 00 00 00       	mov    eax,0x0
    56e3:	e8 ac fe ff ff       	call   0x5594
    56e8:	bf ac 75 11 00       	mov    edi,0x1175ac
    56ed:	e8 16 ee ff ff       	call   0x4508
    56f2:	bf 80 83 11 00       	mov    edi,0x118380
    56f7:	e8 92 bb ff ff       	call   0x128e
    56fc:	bf 20 83 11 00       	mov    edi,0x118320
    5701:	e8 c7 bb ff ff       	call   0x12cd
    5706:	bf a0 7e 11 00       	mov    edi,0x117ea0
    570b:	e8 bd bb ff ff       	call   0x12cd
    5710:	bf a0 82 11 00       	mov    edi,0x1182a0
    5715:	e8 0b bc ff ff       	call   0x1325
    571a:	bf bd 75 11 00       	mov    edi,0x1175bd
    571f:	e8 e4 ed ff ff       	call   0x4508
    5724:	eb 81                	jmp    0x56a7
0x0000000000115726: get_xsdt_other_table
    5726:	55                   	push   rbp
    5727:	48 89 e5             	mov    rbp,rsp
    572a:	48 83 ec 30          	sub    rsp,0x30
    572e:	48 89 7d d8          	mov    QWORD PTR [rbp-0x28],rdi
    5732:	48 8b 05 17 27 00 00 	mov    rax,QWORD PTR [rip+0x2717]        # 0x7e50
    5739:	48 8b 40 18          	mov    rax,QWORD PTR [rax+0x18]
    573d:	48 89 45 f0          	mov    QWORD PTR [rbp-0x10],rax
    5741:	48 83 7d f0 00       	cmp    QWORD PTR [rbp-0x10],0x0
    5746:	75 0a                	jne    0x5752
    5748:	bf dc 75 11 00       	mov    edi,0x1175dc
    574d:	e8 b6 ed ff ff       	call   0x4508
    5752:	48 8b 45 f0          	mov    rax,QWORD PTR [rbp-0x10]
    5756:	8b 40 04             	mov    eax,DWORD PTR [rax+0x4]
    5759:	83 e8 04             	sub    eax,0x4
    575c:	89 45 ec             	mov    DWORD PTR [rbp-0x14],eax
    575f:	48 c7 45 f8 00 00 00 	mov    QWORD PTR [rbp-0x8],0x0
    5766:	00 
    5767:	eb 44                	jmp    0x57ad
    5769:	48 8b 45 f0          	mov    rax,QWORD PTR [rbp-0x10]
    576d:	48 8b 55 f8          	mov    rdx,QWORD PTR [rbp-0x8]
    5771:	48 83 c2 04          	add    rdx,0x4
    5775:	48 8b 44 d0 04       	mov    rax,QWORD PTR [rax+rdx*8+0x4]
    577a:	48 89 c1             	mov    rcx,rax
    577d:	48 8b 45 d8          	mov    rax,QWORD PTR [rbp-0x28]
    5781:	ba 04 00 00 00       	mov    edx,0x4
    5786:	48 89 ce             	mov    rsi,rcx
    5789:	48 89 c7             	mov    rdi,rax
    578c:	e8 c8 bc ff ff       	call   0x1459
    5791:	84 c0                	test   al,al
    5793:	75 13                	jne    0x57a8
    5795:	48 8b 45 f0          	mov    rax,QWORD PTR [rbp-0x10]
    5799:	48 8b 55 f8          	mov    rdx,QWORD PTR [rbp-0x8]
    579d:	48 83 c2 04          	add    rdx,0x4
    57a1:	48 8b 44 d0 04       	mov    rax,QWORD PTR [rax+rdx*8+0x4]
    57a6:	eb 13                	jmp    0x57bb
    57a8:	48 83 45 f8 01       	add    QWORD PTR [rbp-0x8],0x1
    57ad:	8b 45 ec             	mov    eax,DWORD PTR [rbp-0x14]
    57b0:	48 39 45 f8          	cmp    QWORD PTR [rbp-0x8],rax
    57b4:	72 b3                	jb     0x5769
    57b6:	b8 00 00 00 00       	mov    eax,0x0
    57bb:	c9                   	leave  
    57bc:	c3                   	ret    
0x00000000001157bd: wait_milliseconds
    57bd:	55                   	push   rbp
    57be:	48 89 e5             	mov    rbp,rsp
    57c1:	48 83 ec 20          	sub    rsp,0x20
    57c5:	48 89 7d e8          	mov    QWORD PTR [rbp-0x18],rdi
    57c9:	89 75 e4             	mov    DWORD PTR [rbp-0x1c],esi
    57cc:	bf f0 75 11 00       	mov    edi,0x1175f0
    57d1:	e8 32 ed ff ff       	call   0x4508
    57d6:	48 8b 45 e8          	mov    rax,QWORD PTR [rbp-0x18]
    57da:	48 89 c7             	mov    rdi,rax
    57dd:	e8 79 ed ff ff       	call   0x455b
    57e2:	bf 00 76 11 00       	mov    edi,0x117600
    57e7:	e8 1c ed ff ff       	call   0x4508
    57ec:	48 8b 45 e8          	mov    rax,QWORD PTR [rbp-0x18]
    57f0:	48 89 c7             	mov    rdi,rax
    57f3:	e8 35 c3 ff ff       	call   0x1b2d
    57f8:	89 45 fc             	mov    DWORD PTR [rbp-0x4],eax
    57fb:	bf 02 76 11 00       	mov    edi,0x117602
    5800:	e8 03 ed ff ff       	call   0x4508
    5805:	8b 45 fc             	mov    eax,DWORD PTR [rbp-0x4]
    5808:	48 89 c7             	mov    rdi,rax
    580b:	e8 4b ed ff ff       	call   0x455b
    5810:	bf 00 76 11 00       	mov    edi,0x117600
    5815:	e8 ee ec ff ff       	call   0x4508
    581a:	b8 99 9e 36 00       	mov    eax,0x369e99
    581f:	0f af 45 e4          	imul   eax,DWORD PTR [rbp-0x1c]
    5823:	89 c0                	mov    eax,eax
    5825:	48 69 c0 d3 4d 62 10 	imul   rax,rax,0x10624dd3
    582c:	48 c1 e8 20          	shr    rax,0x20
    5830:	89 c2                	mov    edx,eax
    5832:	c1 ea 06             	shr    edx,0x6
    5835:	8b 45 fc             	mov    eax,DWORD PTR [rbp-0x4]
    5838:	01 d0                	add    eax,edx
    583a:	89 45 f8             	mov    DWORD PTR [rbp-0x8],eax
    583d:	bf 0a 76 11 00       	mov    edi,0x11760a
    5842:	e8 c1 ec ff ff       	call   0x4508
    5847:	8b 45 f8             	mov    eax,DWORD PTR [rbp-0x8]
    584a:	48 89 c7             	mov    rdi,rax
    584d:	e8 09 ed ff ff       	call   0x455b
    5852:	bf 00 76 11 00       	mov    edi,0x117600
    5857:	e8 ac ec ff ff       	call   0x4508
    585c:	c7 45 f4 00 00 00 00 	mov    DWORD PTR [rbp-0xc],0x0
    5863:	bf 10 76 11 00       	mov    edi,0x117610
    5868:	e8 9b ec ff ff       	call   0x4508
    586d:	90                   	nop
    586e:	48 8b 45 e8          	mov    rax,QWORD PTR [rbp-0x18]
    5872:	48 89 c7             	mov    rdi,rax
    5875:	e8 b3 c2 ff ff       	call   0x1b2d
    587a:	89 45 f4             	mov    DWORD PTR [rbp-0xc],eax
    587d:	8b 45 f4             	mov    eax,DWORD PTR [rbp-0xc]
    5880:	3b 45 f8             	cmp    eax,DWORD PTR [rbp-0x8]
    5883:	77 e9                	ja     0x586e
    5885:	bf 1a 76 11 00       	mov    edi,0x11761a
    588a:	e8 79 ec ff ff       	call   0x4508
    588f:	90                   	nop
    5890:	c9                   	leave  
    5891:	c3                   	ret    
0x0000000000115892: measure_freq
    5892:	55                   	push   rbp
    5893:	48 89 e5             	mov    rbp,rsp
    5896:	48 83 ec 20          	sub    rsp,0x20
    589a:	48 89 7d e8          	mov    QWORD PTR [rbp-0x18],rdi
    589e:	48 8b 05 9b 25 00 00 	mov    rax,QWORD PTR [rip+0x259b]        # 0x7e40
    58a5:	c7 00 0b 00 00 00    	mov    DWORD PTR [rax],0xb
    58ab:	48 8b 05 76 25 00 00 	mov    rax,QWORD PTR [rip+0x2576]        # 0x7e28
    58b2:	c7 00 20 00 01 00    	mov    DWORD PTR [rax],0x10020
    58b8:	bf 27 76 11 00       	mov    edi,0x117627
    58bd:	e8 46 ec ff ff       	call   0x4508
    58c2:	48 8b 45 e8          	mov    rax,QWORD PTR [rbp-0x18]
    58c6:	be 64 00 00 00       	mov    esi,0x64
    58cb:	48 89 c7             	mov    rdi,rax
    58ce:	e8 ea fe ff ff       	call   0x57bd
    58d3:	bf 41 76 11 00       	mov    edi,0x117641
    58d8:	e8 2b ec ff ff       	call   0x4508
    58dd:	48 8b 05 54 25 00 00 	mov    rax,QWORD PTR [rip+0x2554]        # 0x7e38
    58e4:	8b 00                	mov    eax,DWORD PTR [rax]
    58e6:	89 45 fc             	mov    DWORD PTR [rbp-0x4],eax
    58e9:	b8 ff ff ff ff       	mov    eax,0xffffffff
    58ee:	2b 45 fc             	sub    eax,DWORD PTR [rbp-0x4]
    58f1:	89 c2                	mov    edx,eax
    58f3:	89 d0                	mov    eax,edx
    58f5:	c1 e0 02             	shl    eax,0x2
    58f8:	01 d0                	add    eax,edx
    58fa:	01 c0                	add    eax,eax
    58fc:	89 c0                	mov    eax,eax
    58fe:	c9                   	leave  
    58ff:	c3                   	ret    
0x0000000000115900: init_local_APIC
    5900:	55                   	push   rbp
    5901:	48 89 e5             	mov    rbp,rsp
    5904:	48 83 ec 20          	sub    rsp,0x20
    5908:	bf 5a 76 11 00       	mov    edi,0x11765a
    590d:	e8 f6 eb ff ff       	call   0x4508
    5912:	bf 71 76 11 00       	mov    edi,0x117671
    5917:	e8 0a fe ff ff       	call   0x5726
    591c:	48 89 45 f0          	mov    QWORD PTR [rbp-0x10],rax
    5920:	48 83 7d f0 00       	cmp    QWORD PTR [rbp-0x10],0x0
    5925:	75 0f                	jne    0x5936
    5927:	bf 76 76 11 00       	mov    edi,0x117676
    592c:	e8 d7 eb ff ff       	call   0x4508
    5931:	e9 71 01 00 00       	jmp    0x5aa7
    5936:	c7 45 fc 00 00 00 00 	mov    DWORD PTR [rbp-0x4],0x0
    593d:	eb 44                	jmp    0x5983
    593f:	48 8b 55 f0          	mov    rdx,QWORD PTR [rbp-0x10]
    5943:	8b 45 fc             	mov    eax,DWORD PTR [rbp-0x4]
    5946:	48 98                	cdqe   
    5948:	0f b6 04 02          	movzx  eax,BYTE PTR [rdx+rax*1]
    594c:	0f be c8             	movsx  ecx,al
    594f:	48 8b 15 f2 24 00 00 	mov    rdx,QWORD PTR [rip+0x24f2]        # 0x7e48
    5956:	8b 45 fc             	mov    eax,DWORD PTR [rbp-0x4]
    5959:	c1 e0 03             	shl    eax,0x3
    595c:	05 2c 01 00 00       	add    eax,0x12c
    5961:	41 89 c9             	mov    r9d,ecx
    5964:	49 89 d0             	mov    r8,rdx
    5967:	8b 0d a3 24 00 00    	mov    ecx,DWORD PTR [rip+0x24a3]        # 0x7e10
    596d:	8b 15 09 25 00 00    	mov    edx,DWORD PTR [rip+0x2509]        # 0x7e7c
    5973:	be 2c 01 00 00       	mov    esi,0x12c
    5978:	89 c7                	mov    edi,eax
    597a:	e8 52 ae ff ff       	call   0x7d1
    597f:	83 45 fc 01          	add    DWORD PTR [rbp-0x4],0x1
    5983:	83 7d fc 03          	cmp    DWORD PTR [rbp-0x4],0x3
    5987:	7e b6                	jle    0x593f
    5989:	bf 8a 76 11 00       	mov    edi,0x11768a
    598e:	e8 75 eb ff ff       	call   0x4508
    5993:	48 8b 45 f0          	mov    rax,QWORD PTR [rbp-0x10]
    5997:	48 89 c7             	mov    rdi,rax
    599a:	e8 bc eb ff ff       	call   0x455b
    599f:	bf 00 76 11 00       	mov    edi,0x117600
    59a4:	e8 5f eb ff ff       	call   0x4508
    59a9:	48 8b 45 f0          	mov    rax,QWORD PTR [rbp-0x10]
    59ad:	8b 40 50             	mov    eax,DWORD PTR [rax+0x50]
    59b0:	89 c0                	mov    eax,eax
    59b2:	48 89 45 e8          	mov    QWORD PTR [rbp-0x18],rax
    59b6:	bf 91 76 11 00       	mov    edi,0x117691
    59bb:	e8 48 eb ff ff       	call   0x4508
    59c0:	bf a1 76 11 00       	mov    edi,0x1176a1
    59c5:	e8 3e eb ff ff       	call   0x4508
    59ca:	48 8b 45 e8          	mov    rax,QWORD PTR [rbp-0x18]
    59ce:	48 89 c7             	mov    rdi,rax
    59d1:	e8 85 eb ff ff       	call   0x455b
    59d6:	bf 00 76 11 00       	mov    edi,0x117600
    59db:	e8 28 eb ff ff       	call   0x4508
    59e0:	48 8b 45 f0          	mov    rax,QWORD PTR [rbp-0x10]
    59e4:	8b 40 78             	mov    eax,DWORD PTR [rax+0x78]
    59e7:	80 cc 01             	or     ah,0x1
    59ea:	89 c2                	mov    edx,eax
    59ec:	48 8b 45 f0          	mov    rax,QWORD PTR [rbp-0x10]
    59f0:	89 50 78             	mov    DWORD PTR [rax+0x78],edx
    59f3:	bf ae 76 11 00       	mov    edi,0x1176ae
    59f8:	e8 0b eb ff ff       	call   0x4508
    59fd:	48 8b 45 f0          	mov    rax,QWORD PTR [rbp-0x10]
    5a01:	8b 40 78             	mov    eax,DWORD PTR [rax+0x78]
    5a04:	89 c0                	mov    eax,eax
    5a06:	48 89 c7             	mov    rdi,rax
    5a09:	e8 4d eb ff ff       	call   0x455b
    5a0e:	bf 00 76 11 00       	mov    edi,0x117600
    5a13:	e8 f0 ea ff ff       	call   0x4508
    5a18:	48 8b 45 e8          	mov    rax,QWORD PTR [rbp-0x18]
    5a1c:	48 89 c7             	mov    rdi,rax
    5a1f:	e8 6e fe ff ff       	call   0x5892
    5a24:	48 89 05 9d 29 00 00 	mov    QWORD PTR [rip+0x299d],rax        # 0x83c8
    5a2b:	bf bc 76 11 00       	mov    edi,0x1176bc
    5a30:	e8 d3 ea ff ff       	call   0x4508
    5a35:	48 8b 05 8c 29 00 00 	mov    rax,QWORD PTR [rip+0x298c]        # 0x83c8
    5a3c:	48 89 c7             	mov    rdi,rax
    5a3f:	e8 17 eb ff ff       	call   0x455b
    5a44:	bf 00 76 11 00       	mov    edi,0x117600
    5a49:	e8 ba ea ff ff       	call   0x4508
    5a4e:	48 8b 05 d3 23 00 00 	mov    rax,QWORD PTR [rip+0x23d3]        # 0x7e28
    5a55:	c7 00 20 00 02 00    	mov    DWORD PTR [rax],0x20020
    5a5b:	bf c9 76 11 00       	mov    edi,0x1176c9
    5a60:	e8 a3 ea ff ff       	call   0x4508
    5a65:	48 8b 05 bc 23 00 00 	mov    rax,QWORD PTR [rip+0x23bc]        # 0x7e28
    5a6c:	8b 00                	mov    eax,DWORD PTR [rax]
    5a6e:	89 c0                	mov    eax,eax
    5a70:	48 89 c7             	mov    rdi,rax
    5a73:	e8 e3 ea ff ff       	call   0x455b
    5a78:	bf 00 76 11 00       	mov    edi,0x117600
    5a7d:	e8 86 ea ff ff       	call   0x4508
    5a82:	48 8b 05 3f 29 00 00 	mov    rax,QWORD PTR [rip+0x293f]        # 0x83c8
    5a89:	48 c1 e8 03          	shr    rax,0x3
    5a8d:	48 ba cf f7 53 e3 a5 	movabs rdx,0x20c49ba5e353f7cf
    5a94:	9b c4 20 
    5a97:	48 f7 e2             	mul    rdx
    5a9a:	48 c1 ea 04          	shr    rdx,0x4
    5a9e:	48 8b 05 8b 23 00 00 	mov    rax,QWORD PTR [rip+0x238b]        # 0x7e30
    5aa5:	89 10                	mov    DWORD PTR [rax],edx
    5aa7:	c9                   	leave  
    5aa8:	c3                   	ret    
0x0000000000115aa9: echo
    5aa9:	55                   	push   rbp
    5aaa:	48 89 e5             	mov    rbp,rsp
    5aad:	48 83 ec 10          	sub    rsp,0x10
    5ab1:	89 7d fc             	mov    DWORD PTR [rbp-0x4],edi
    5ab4:	48 89 75 f0          	mov    QWORD PTR [rbp-0x10],rsi
    5ab8:	bf d6 76 11 00       	mov    edi,0x1176d6
    5abd:	e8 46 ea ff ff       	call   0x4508
    5ac2:	8b 45 fc             	mov    eax,DWORD PTR [rbp-0x4]
    5ac5:	48 98                	cdqe   
    5ac7:	48 89 c7             	mov    rdi,rax
    5aca:	e8 8c ea ff ff       	call   0x455b
    5acf:	bf dd 76 11 00       	mov    edi,0x1176dd
    5ad4:	e8 2f ea ff ff       	call   0x4508
    5ad9:	bf df 76 11 00       	mov    edi,0x1176df
    5ade:	e8 25 ea ff ff       	call   0x4508
    5ae3:	48 8b 45 f0          	mov    rax,QWORD PTR [rbp-0x10]
    5ae7:	48 83 c0 08          	add    rax,0x8
    5aeb:	48 8b 00             	mov    rax,QWORD PTR [rax]
    5aee:	48 89 c7             	mov    rdi,rax
    5af1:	e8 12 ea ff ff       	call   0x4508
    5af6:	bf dd 76 11 00       	mov    edi,0x1176dd
    5afb:	e8 08 ea ff ff       	call   0x4508
    5b00:	83 7d fc 02          	cmp    DWORD PTR [rbp-0x4],0x2
    5b04:	74 11                	je     0x5b17
    5b06:	be 20 83 11 00       	mov    esi,0x118320
    5b0b:	bf e9 76 11 00       	mov    edi,0x1176e9
    5b10:	e8 c9 b9 ff ff       	call   0x14de
    5b15:	eb 18                	jmp    0x5b2f
    5b17:	48 8b 45 f0          	mov    rax,QWORD PTR [rbp-0x10]
    5b1b:	48 83 c0 08          	add    rax,0x8
    5b1f:	48 8b 00             	mov    rax,QWORD PTR [rax]
    5b22:	be 20 83 11 00       	mov    esi,0x118320
    5b27:	48 89 c7             	mov    rdi,rax
    5b2a:	e8 af b9 ff ff       	call   0x14de
    5b2f:	90                   	nop
    5b30:	c9                   	leave  
    5b31:	c3                   	ret    
0x0000000000115b32: uptime
    5b32:	55                   	push   rbp
    5b33:	48 89 e5             	mov    rbp,rsp
    5b36:	48 83 ec 30          	sub    rsp,0x30
    5b3a:	89 7d dc             	mov    DWORD PTR [rbp-0x24],edi
    5b3d:	48 89 75 d0          	mov    QWORD PTR [rbp-0x30],rsi
    5b41:	83 7d dc 01          	cmp    DWORD PTR [rbp-0x24],0x1
    5b45:	75 29                	jne    0x5b70
    5b47:	48 8b 15 32 23 00 00 	mov    rdx,QWORD PTR [rip+0x2332]        # 0x7e80
    5b4e:	48 8d 45 ed          	lea    rax,[rbp-0x13]
    5b52:	48 89 d6             	mov    rsi,rdx
    5b55:	48 89 c7             	mov    rdi,rax
    5b58:	e8 ec b9 ff ff       	call   0x1549
    5b5d:	48 8d 45 ed          	lea    rax,[rbp-0x13]
    5b61:	be 20 83 11 00       	mov    esi,0x118320
    5b66:	48 89 c7             	mov    rdi,rax
    5b69:	e8 70 b9 ff ff       	call   0x14de
    5b6e:	eb 0f                	jmp    0x5b7f
    5b70:	be 20 83 11 00       	mov    esi,0x118320
    5b75:	bf f8 76 11 00       	mov    edi,0x1176f8
    5b7a:	e8 5f b9 ff ff       	call   0x14de
    5b7f:	90                   	nop
    5b80:	c9                   	leave  
    5b81:	c3                   	ret    
0x0000000000115b82: sleep
    5b82:	55                   	push   rbp
    5b83:	48 89 e5             	mov    rbp,rsp
    5b86:	48 83 ec 20          	sub    rsp,0x20
    5b8a:	89 7d ec             	mov    DWORD PTR [rbp-0x14],edi
    5b8d:	48 89 75 e0          	mov    QWORD PTR [rbp-0x20],rsi
    5b91:	bf 09 77 11 00       	mov    edi,0x117709
    5b96:	e8 6d e9 ff ff       	call   0x4508
    5b9b:	8b 45 ec             	mov    eax,DWORD PTR [rbp-0x14]
    5b9e:	48 98                	cdqe   
    5ba0:	48 89 c7             	mov    rdi,rax
    5ba3:	e8 b3 e9 ff ff       	call   0x455b
    5ba8:	bf 10 77 11 00       	mov    edi,0x117710
    5bad:	e8 56 e9 ff ff       	call   0x4508
    5bb2:	83 7d ec 02          	cmp    DWORD PTR [rbp-0x14],0x2
    5bb6:	75 4a                	jne    0x5c02
    5bb8:	48 8b 05 c1 22 00 00 	mov    rax,QWORD PTR [rip+0x22c1]        # 0x7e80
    5bbf:	48 89 45 f8          	mov    QWORD PTR [rbp-0x8],rax
    5bc3:	48 8b 45 e0          	mov    rax,QWORD PTR [rbp-0x20]
    5bc7:	48 83 c0 08          	add    rax,0x8
    5bcb:	48 8b 00             	mov    rax,QWORD PTR [rax]
    5bce:	48 89 c7             	mov    rdi,rax
    5bd1:	e8 cc bd ff ff       	call   0x19a2
    5bd6:	48 8b 55 f8          	mov    rdx,QWORD PTR [rbp-0x8]
    5bda:	48 01 d0             	add    rax,rdx
    5bdd:	48 89 45 f0          	mov    QWORD PTR [rbp-0x10],rax
    5be1:	eb 01                	jmp    0x5be4
    5be3:	f4                   	hlt    
    5be4:	48 8b 05 95 22 00 00 	mov    rax,QWORD PTR [rip+0x2295]        # 0x7e80
    5beb:	48 39 45 f0          	cmp    QWORD PTR [rbp-0x10],rax
    5bef:	77 f2                	ja     0x5be3
    5bf1:	be 20 83 11 00       	mov    esi,0x118320
    5bf6:	bf 12 77 11 00       	mov    edi,0x117712
    5bfb:	e8 de b8 ff ff       	call   0x14de
    5c00:	eb 0f                	jmp    0x5c11
    5c02:	be 20 83 11 00       	mov    esi,0x118320
    5c07:	bf 14 77 11 00       	mov    edi,0x117714
    5c0c:	e8 cd b8 ff ff       	call   0x14de
    5c11:	90                   	nop
    5c12:	c9                   	leave  
    5c13:	c3                   	ret    
0x0000000000115c14: thread_gen
    5c14:	55                   	push   rbp
    5c15:	48 89 e5             	mov    rbp,rsp
    5c18:	48 83 ec 70          	sub    rsp,0x70
    5c1c:	48 89 7d b8          	mov    QWORD PTR [rbp-0x48],rdi
    5c20:	48 89 75 b0          	mov    QWORD PTR [rbp-0x50],rsi
    5c24:	48 89 55 a8          	mov    QWORD PTR [rbp-0x58],rdx
    5c28:	89 4d a4             	mov    DWORD PTR [rbp-0x5c],ecx
    5c2b:	4c 89 45 98          	mov    QWORD PTR [rbp-0x68],r8
    5c2f:	48 8b 45 b0          	mov    rax,QWORD PTR [rbp-0x50]
    5c33:	48 89 45 c8          	mov    QWORD PTR [rbp-0x38],rax
    5c37:	48 8b 45 b0          	mov    rax,QWORD PTR [rbp-0x50]
    5c3b:	48 05 00 80 00 00    	add    rax,0x8000
    5c41:	48 89 45 d0          	mov    QWORD PTR [rbp-0x30],rax
    5c45:	48 8b 45 a8          	mov    rax,QWORD PTR [rbp-0x58]
    5c49:	48 89 45 d8          	mov    QWORD PTR [rbp-0x28],rax
    5c4d:	48 8b 45 a8          	mov    rax,QWORD PTR [rbp-0x58]
    5c51:	48 89 45 e0          	mov    QWORD PTR [rbp-0x20],rax
    5c55:	8b 45 a4             	mov    eax,DWORD PTR [rbp-0x5c]
    5c58:	89 45 e8             	mov    DWORD PTR [rbp-0x18],eax
    5c5b:	48 8b 45 98          	mov    rax,QWORD PTR [rbp-0x68]
    5c5f:	48 89 45 f0          	mov    QWORD PTR [rbp-0x10],rax
    5c63:	48 8b 55 a8          	mov    rdx,QWORD PTR [rbp-0x58]
    5c67:	48 8b 45 d0          	mov    rax,QWORD PTR [rbp-0x30]
    5c6b:	48 89 d6             	mov    rsi,rdx
    5c6e:	48 89 c7             	mov    rdi,rax
    5c71:	e8 7a 04 00 00       	call   0x60f0
    5c76:	48 89 45 d0          	mov    QWORD PTR [rbp-0x30],rax
    5c7a:	bf 28 77 11 00       	mov    edi,0x117728
    5c7f:	e8 84 e8 ff ff       	call   0x4508
    5c84:	48 8b 45 c8          	mov    rax,QWORD PTR [rbp-0x38]
    5c88:	48 05 00 10 00 00    	add    rax,0x1000
    5c8e:	48 89 c7             	mov    rdi,rax
    5c91:	e8 c5 e8 ff ff       	call   0x455b
    5c96:	bf 3e 77 11 00       	mov    edi,0x11773e
    5c9b:	e8 68 e8 ff ff       	call   0x4508
    5ca0:	bf 40 77 11 00       	mov    edi,0x117740
    5ca5:	e8 5e e8 ff ff       	call   0x4508
    5caa:	48 8b 45 d0          	mov    rax,QWORD PTR [rbp-0x30]
    5cae:	48 89 c7             	mov    rdi,rax
    5cb1:	e8 a5 e8 ff ff       	call   0x455b
    5cb6:	bf 3e 77 11 00       	mov    edi,0x11773e
    5cbb:	e8 48 e8 ff ff       	call   0x4508
    5cc0:	48 8b 45 b8          	mov    rax,QWORD PTR [rbp-0x48]
    5cc4:	48 8b 55 c8          	mov    rdx,QWORD PTR [rbp-0x38]
    5cc8:	48 89 10             	mov    QWORD PTR [rax],rdx
    5ccb:	48 8b 55 d0          	mov    rdx,QWORD PTR [rbp-0x30]
    5ccf:	48 89 50 08          	mov    QWORD PTR [rax+0x8],rdx
    5cd3:	48 8b 55 d8          	mov    rdx,QWORD PTR [rbp-0x28]
    5cd7:	48 89 50 10          	mov    QWORD PTR [rax+0x10],rdx
    5cdb:	48 8b 55 e0          	mov    rdx,QWORD PTR [rbp-0x20]
    5cdf:	48 89 50 18          	mov    QWORD PTR [rax+0x18],rdx
    5ce3:	48 8b 55 e8          	mov    rdx,QWORD PTR [rbp-0x18]
    5ce7:	48 89 50 20          	mov    QWORD PTR [rax+0x20],rdx
    5ceb:	48 8b 55 f0          	mov    rdx,QWORD PTR [rbp-0x10]
    5cef:	48 89 50 28          	mov    QWORD PTR [rax+0x28],rdx
    5cf3:	48 8b 55 f8          	mov    rdx,QWORD PTR [rbp-0x8]
    5cf7:	48 89 50 30          	mov    QWORD PTR [rax+0x30],rdx
    5cfb:	48 8b 45 b8          	mov    rax,QWORD PTR [rbp-0x48]
    5cff:	c9                   	leave  
    5d00:	c3                   	ret    
0x0000000000115d01: thread_run
    5d01:	55                   	push   rbp
    5d02:	48 89 e5             	mov    rbp,rsp
    5d05:	48 83 ec 10          	sub    rsp,0x10
    5d09:	c7 45 fc 00 00 00 00 	mov    DWORD PTR [rbp-0x4],0x0
    5d10:	e9 98 00 00 00       	jmp    0x5dad
    5d15:	8b 45 fc             	mov    eax,DWORD PTR [rbp-0x4]
    5d18:	48 63 d0             	movsxd rdx,eax
    5d1b:	48 89 d0             	mov    rax,rdx
    5d1e:	48 c1 e0 03          	shl    rax,0x3
    5d22:	48 29 d0             	sub    rax,rdx
    5d25:	48 c1 e0 03          	shl    rax,0x3
    5d29:	48 05 10 84 11 00    	add    rax,0x118410
    5d2f:	8b 00                	mov    eax,DWORD PTR [rax]
    5d31:	83 f8 02             	cmp    eax,0x2
    5d34:	75 73                	jne    0x5da9
    5d36:	8b 45 fc             	mov    eax,DWORD PTR [rbp-0x4]
    5d39:	48 63 d0             	movsxd rdx,eax
    5d3c:	48 89 d0             	mov    rax,rdx
    5d3f:	48 c1 e0 03          	shl    rax,0x3
    5d43:	48 29 d0             	sub    rax,rdx
    5d46:	48 c1 e0 03          	shl    rax,0x3
    5d4a:	48 05 e0 83 11 00    	add    rax,0x1183e0
    5d50:	48 8b 55 10          	mov    rdx,QWORD PTR [rbp+0x10]
    5d54:	48 89 10             	mov    QWORD PTR [rax],rdx
    5d57:	48 8b 55 18          	mov    rdx,QWORD PTR [rbp+0x18]
    5d5b:	48 89 50 08          	mov    QWORD PTR [rax+0x8],rdx
    5d5f:	48 8b 55 20          	mov    rdx,QWORD PTR [rbp+0x20]
    5d63:	48 89 50 10          	mov    QWORD PTR [rax+0x10],rdx
    5d67:	48 8b 55 28          	mov    rdx,QWORD PTR [rbp+0x28]
    5d6b:	48 89 50 18          	mov    QWORD PTR [rax+0x18],rdx
    5d6f:	48 8b 55 30          	mov    rdx,QWORD PTR [rbp+0x30]
    5d73:	48 89 50 20          	mov    QWORD PTR [rax+0x20],rdx
    5d77:	48 8b 55 38          	mov    rdx,QWORD PTR [rbp+0x38]
    5d7b:	48 89 50 28          	mov    QWORD PTR [rax+0x28],rdx
    5d7f:	48 8b 55 40          	mov    rdx,QWORD PTR [rbp+0x40]
    5d83:	48 89 50 30          	mov    QWORD PTR [rax+0x30],rdx
    5d87:	8b 45 fc             	mov    eax,DWORD PTR [rbp-0x4]
    5d8a:	48 63 d0             	movsxd rdx,eax
    5d8d:	48 89 d0             	mov    rax,rdx
    5d90:	48 c1 e0 03          	shl    rax,0x3
    5d94:	48 29 d0             	sub    rax,rdx
    5d97:	48 c1 e0 03          	shl    rax,0x3
    5d9b:	48 05 10 84 11 00    	add    rax,0x118410
    5da1:	c7 00 00 00 00 00    	mov    DWORD PTR [rax],0x0
    5da7:	eb 0f                	jmp    0x5db8
    5da9:	83 45 fc 01          	add    DWORD PTR [rbp-0x4],0x1
    5dad:	83 7d fc 03          	cmp    DWORD PTR [rbp-0x4],0x3
    5db1:	0f 8e 5e ff ff ff    	jle    0x5d15
    5db7:	90                   	nop
    5db8:	90                   	nop
    5db9:	c9                   	leave  
    5dba:	c3                   	ret    
0x0000000000115dbb: thread_end
    5dbb:	55                   	push   rbp
    5dbc:	48 89 e5             	mov    rbp,rsp
    5dbf:	48 83 ec 08          	sub    rsp,0x8
    5dc3:	89 7d fc             	mov    DWORD PTR [rbp-0x4],edi
    5dc6:	8b 45 fc             	mov    eax,DWORD PTR [rbp-0x4]
    5dc9:	48 63 d0             	movsxd rdx,eax
    5dcc:	48 89 d0             	mov    rax,rdx
    5dcf:	48 c1 e0 03          	shl    rax,0x3
    5dd3:	48 29 d0             	sub    rax,rdx
    5dd6:	48 c1 e0 03          	shl    rax,0x3
    5dda:	48 05 10 84 11 00    	add    rax,0x118410
    5de0:	c7 00 02 00 00 00    	mov    DWORD PTR [rax],0x2
    5de6:	90                   	nop
    5de7:	c9                   	leave  
    5de8:	c3                   	ret    
0x0000000000115de9: threads_init
    5de9:	55                   	push   rbp
    5dea:	48 89 e5             	mov    rbp,rsp
    5ded:	48 83 ec 40          	sub    rsp,0x40
    5df1:	48 c7 45 c0 00 00 00 	mov    QWORD PTR [rbp-0x40],0x0
    5df8:	00 
    5df9:	c7 45 f0 02 00 00 00 	mov    DWORD PTR [rbp-0x10],0x2
    5e00:	c7 45 fc 00 00 00 00 	mov    DWORD PTR [rbp-0x4],0x0
    5e07:	eb 55                	jmp    0x5e5e
    5e09:	8b 45 fc             	mov    eax,DWORD PTR [rbp-0x4]
    5e0c:	48 63 d0             	movsxd rdx,eax
    5e0f:	48 89 d0             	mov    rax,rdx
    5e12:	48 c1 e0 03          	shl    rax,0x3
    5e16:	48 29 d0             	sub    rax,rdx
    5e19:	48 c1 e0 03          	shl    rax,0x3
    5e1d:	48 05 e0 83 11 00    	add    rax,0x1183e0
    5e23:	48 8b 55 c0          	mov    rdx,QWORD PTR [rbp-0x40]
    5e27:	48 89 10             	mov    QWORD PTR [rax],rdx
    5e2a:	48 8b 55 c8          	mov    rdx,QWORD PTR [rbp-0x38]
    5e2e:	48 89 50 08          	mov    QWORD PTR [rax+0x8],rdx
    5e32:	48 8b 55 d0          	mov    rdx,QWORD PTR [rbp-0x30]
    5e36:	48 89 50 10          	mov    QWORD PTR [rax+0x10],rdx
    5e3a:	48 8b 55 d8          	mov    rdx,QWORD PTR [rbp-0x28]
    5e3e:	48 89 50 18          	mov    QWORD PTR [rax+0x18],rdx
    5e42:	48 8b 55 e0          	mov    rdx,QWORD PTR [rbp-0x20]
    5e46:	48 89 50 20          	mov    QWORD PTR [rax+0x20],rdx
    5e4a:	48 8b 55 e8          	mov    rdx,QWORD PTR [rbp-0x18]
    5e4e:	48 89 50 28          	mov    QWORD PTR [rax+0x28],rdx
    5e52:	48 8b 55 f0          	mov    rdx,QWORD PTR [rbp-0x10]
    5e56:	48 89 50 30          	mov    QWORD PTR [rax+0x30],rdx
    5e5a:	83 45 fc 01          	add    DWORD PTR [rbp-0x4],0x1
    5e5e:	83 7d fc 03          	cmp    DWORD PTR [rbp-0x4],0x3
    5e62:	7e a5                	jle    0x5e09
    5e64:	90                   	nop
    5e65:	90                   	nop
    5e66:	c9                   	leave  
    5e67:	c3                   	ret    
0x0000000000115e68: schedule_period_init
    5e68:	55                   	push   rbp
    5e69:	48 89 e5             	mov    rbp,rsp
    5e6c:	48 83 ec 08          	sub    rsp,0x8
    5e70:	48 89 7d f8          	mov    QWORD PTR [rbp-0x8],rdi
    5e74:	48 8b 45 f8          	mov    rax,QWORD PTR [rbp-0x8]
    5e78:	48 89 05 61 26 03 00 	mov    QWORD PTR [rip+0x32661],rax        # 0x384e0
    5e7f:	90                   	nop
    5e80:	c9                   	leave  
    5e81:	c3                   	ret    
0x0000000000115e82: thread_scheduler
    5e82:	55                   	push   rbp
    5e83:	48 89 e5             	mov    rbp,rsp
    5e86:	48 83 ec 20          	sub    rsp,0x20
    5e8a:	48 89 7d e8          	mov    QWORD PTR [rbp-0x18],rdi
    5e8e:	8b 05 2c 26 00 00    	mov    eax,DWORD PTR [rip+0x262c]        # 0x84c0
    5e94:	89 45 fc             	mov    DWORD PTR [rbp-0x4],eax
    5e97:	8b 05 23 26 00 00    	mov    eax,DWORD PTR [rip+0x2623]        # 0x84c0
    5e9d:	8d 50 01             	lea    edx,[rax+0x1]
    5ea0:	89 d0                	mov    eax,edx
    5ea2:	c1 f8 1f             	sar    eax,0x1f
    5ea5:	c1 e8 1e             	shr    eax,0x1e
    5ea8:	01 c2                	add    edx,eax
    5eaa:	83 e2 03             	and    edx,0x3
    5ead:	29 c2                	sub    edx,eax
    5eaf:	89 d0                	mov    eax,edx
    5eb1:	89 05 09 26 00 00    	mov    DWORD PTR [rip+0x2609],eax        # 0x84c0
    5eb7:	bf 4d 77 11 00       	mov    edi,0x11774d
    5ebc:	e8 47 e6 ff ff       	call   0x4508
    5ec1:	48 8b 45 e8          	mov    rax,QWORD PTR [rbp-0x18]
    5ec5:	48 89 c7             	mov    rdi,rax
    5ec8:	e8 8e e6 ff ff       	call   0x455b
    5ecd:	bf 3e 77 11 00       	mov    edi,0x11773e
    5ed2:	e8 31 e6 ff ff       	call   0x4508
    5ed7:	8b 45 fc             	mov    eax,DWORD PTR [rbp-0x4]
    5eda:	48 63 d0             	movsxd rdx,eax
    5edd:	48 89 d0             	mov    rax,rdx
    5ee0:	48 c1 e0 03          	shl    rax,0x3
    5ee4:	48 29 d0             	sub    rax,rdx
    5ee7:	48 c1 e0 03          	shl    rax,0x3
    5eeb:	48 8d 90 f0 83 11 00 	lea    rdx,[rax+0x1183f0]
    5ef2:	48 8b 45 e8          	mov    rax,QWORD PTR [rbp-0x18]
    5ef6:	48 89 02             	mov    QWORD PTR [rdx],rax
    5ef9:	bf 68 77 11 00       	mov    edi,0x117768
    5efe:	e8 05 e6 ff ff       	call   0x4508
    5f03:	8b 45 fc             	mov    eax,DWORD PTR [rbp-0x4]
    5f06:	48 63 d0             	movsxd rdx,eax
    5f09:	48 89 d0             	mov    rax,rdx
    5f0c:	48 c1 e0 03          	shl    rax,0x3
    5f10:	48 29 d0             	sub    rax,rdx
    5f13:	48 c1 e0 03          	shl    rax,0x3
    5f17:	48 05 f0 83 11 00    	add    rax,0x1183f0
    5f1d:	48 8b 00             	mov    rax,QWORD PTR [rax]
    5f20:	48 89 c7             	mov    rdi,rax
    5f23:	e8 33 e6 ff ff       	call   0x455b
    5f28:	bf 3e 77 11 00       	mov    edi,0x11773e
    5f2d:	e8 d6 e5 ff ff       	call   0x4508
    5f32:	bf 88 77 11 00       	mov    edi,0x117788
    5f37:	e8 cc e5 ff ff       	call   0x4508
    5f3c:	8b 05 7e 25 00 00    	mov    eax,DWORD PTR [rip+0x257e]        # 0x84c0
    5f42:	48 98                	cdqe   
    5f44:	48 89 c7             	mov    rdi,rax
    5f47:	e8 0f e6 ff ff       	call   0x455b
    5f4c:	bf 3e 77 11 00       	mov    edi,0x11773e
    5f51:	e8 b2 e5 ff ff       	call   0x4508
    5f56:	bf 9c 77 11 00       	mov    edi,0x11779c
    5f5b:	e8 a8 e5 ff ff       	call   0x4508
    5f60:	8b 05 5a 25 00 00    	mov    eax,DWORD PTR [rip+0x255a]        # 0x84c0
    5f66:	48 63 d0             	movsxd rdx,eax
    5f69:	48 89 d0             	mov    rax,rdx
    5f6c:	48 c1 e0 03          	shl    rax,0x3
    5f70:	48 29 d0             	sub    rax,rdx
    5f73:	48 c1 e0 03          	shl    rax,0x3
    5f77:	48 05 e8 83 11 00    	add    rax,0x1183e8
    5f7d:	48 8b 00             	mov    rax,QWORD PTR [rax]
    5f80:	48 89 c7             	mov    rdi,rax
    5f83:	e8 d3 e5 ff ff       	call   0x455b
    5f88:	bf 3e 77 11 00       	mov    edi,0x11773e
    5f8d:	e8 76 e5 ff ff       	call   0x4508
    5f92:	bf ad 77 11 00       	mov    edi,0x1177ad
    5f97:	e8 6c e5 ff ff       	call   0x4508
    5f9c:	8b 05 1e 25 00 00    	mov    eax,DWORD PTR [rip+0x251e]        # 0x84c0
    5fa2:	48 63 d0             	movsxd rdx,eax
    5fa5:	48 89 d0             	mov    rax,rdx
    5fa8:	48 c1 e0 03          	shl    rax,0x3
    5fac:	48 29 d0             	sub    rax,rdx
    5faf:	48 c1 e0 03          	shl    rax,0x3
    5fb3:	48 05 f8 83 11 00    	add    rax,0x1183f8
    5fb9:	48 8b 00             	mov    rax,QWORD PTR [rax]
    5fbc:	48 89 c7             	mov    rdi,rax
    5fbf:	e8 97 e5 ff ff       	call   0x455b
    5fc4:	bf 3e 77 11 00       	mov    edi,0x11773e
    5fc9:	e8 3a e5 ff ff       	call   0x4508
    5fce:	bf c7 77 11 00       	mov    edi,0x1177c7
    5fd3:	e8 30 e5 ff ff       	call   0x4508
    5fd8:	8b 05 e2 24 00 00    	mov    eax,DWORD PTR [rip+0x24e2]        # 0x84c0
    5fde:	48 63 d0             	movsxd rdx,eax
    5fe1:	48 89 d0             	mov    rax,rdx
    5fe4:	48 c1 e0 03          	shl    rax,0x3
    5fe8:	48 29 d0             	sub    rax,rdx
    5feb:	48 c1 e0 03          	shl    rax,0x3
    5fef:	48 05 f0 83 11 00    	add    rax,0x1183f0
    5ff5:	48 8b 00             	mov    rax,QWORD PTR [rax]
    5ff8:	48 89 c7             	mov    rdi,rax
    5ffb:	e8 5b e5 ff ff       	call   0x455b
    6000:	bf d9 77 11 00       	mov    edi,0x1177d9
    6005:	e8 fe e4 ff ff       	call   0x4508
    600a:	bf dc 77 11 00       	mov    edi,0x1177dc
    600f:	e8 f4 e4 ff ff       	call   0x4508
    6014:	8b 05 a6 24 00 00    	mov    eax,DWORD PTR [rip+0x24a6]        # 0x84c0
    601a:	48 63 d0             	movsxd rdx,eax
    601d:	48 89 d0             	mov    rax,rdx
    6020:	48 c1 e0 03          	shl    rax,0x3
    6024:	48 29 d0             	sub    rax,rdx
    6027:	48 c1 e0 03          	shl    rax,0x3
    602b:	48 05 e8 83 11 00    	add    rax,0x1183e8
    6031:	48 8b 08             	mov    rcx,QWORD PTR [rax]
    6034:	8b 45 fc             	mov    eax,DWORD PTR [rbp-0x4]
    6037:	48 63 d0             	movsxd rdx,eax
    603a:	48 89 d0             	mov    rax,rdx
    603d:	48 c1 e0 03          	shl    rax,0x3
    6041:	48 29 d0             	sub    rax,rdx
    6044:	48 c1 e0 03          	shl    rax,0x3
    6048:	48 05 e0 83 11 00    	add    rax,0x1183e0
    604e:	48 83 c0 08          	add    rax,0x8
    6052:	48 89 ce             	mov    rsi,rcx
    6055:	48 89 c7             	mov    rdi,rax
    6058:	e8 c3 00 00 00       	call   0x6120
    605d:	90                   	nop
    605e:	c9                   	leave  
    605f:	c3                   	ret    
0x0000000000116060: init_stack
    6060:	fa                   	cli    
    6061:	48 89 e1             	mov    rcx,rsp
    6064:	48 89 fc             	mov    rsp,rdi
    6067:	6a 10                	push   0x10
    6069:	57                   	push   rdi
    606a:	68 02 02 00 00       	push   0x202
    606f:	6a 08                	push   0x8
    6071:	56                   	push   rsi
    6072:	6a 00                	push   0x0
    6074:	6a 00                	push   0x0
    6076:	6a 00                	push   0x0
    6078:	6a 00                	push   0x0
    607a:	6a 00                	push   0x0
    607c:	6a 00                	push   0x0
    607e:	6a 00                	push   0x0
    6080:	6a 00                	push   0x0
    6082:	6a 00                	push   0x0
    6084:	6a 00                	push   0x0
    6086:	48 83 ec 18          	sub    rsp,0x18
    608a:	48 89 e0             	mov    rax,rsp
    608d:	48 89 cc             	mov    rsp,rcx
    6090:	fb                   	sti    
    6091:	c3                   	ret    
    6092:	66 66 2e 0f 1f 84 00 	data16 nop WORD PTR cs:[rax+rax*1+0x0]
    6099:	00 00 00 00 
    609d:	0f 1f 00             	nop    DWORD PTR [rax]
0x00000000001160a0: dispatch
    60a0:	48 89 26             	mov    QWORD PTR [rsi],rsp
    60a3:	48 89 fc             	mov    rsp,rdi
    60a6:	48 83 c4 18          	add    rsp,0x18
    60aa:	48 c7 44 24 70 10 00 	mov    QWORD PTR [rsp+0x70],0x10
    60b1:	00 00 
    60b3:	48 89 e1             	mov    rcx,rsp
    60b6:	48 83 c1 50          	add    rcx,0x50
    60ba:	48 89 4c 24 68       	mov    QWORD PTR [rsp+0x68],rcx
    60bf:	48 c7 44 24 60 02 02 	mov    QWORD PTR [rsp+0x60],0x202
    60c6:	00 00 
    60c8:	48 c7 44 24 58 08 00 	mov    QWORD PTR [rsp+0x58],0x8
    60cf:	00 00 
    60d1:	48 89 54 24 50       	mov    QWORD PTR [rsp+0x50],rdx
    60d6:	58                   	pop    rax
    60d7:	5a                   	pop    rdx
    60d8:	59                   	pop    rcx
    60d9:	5e                   	pop    rsi
    60da:	5f                   	pop    rdi
    60db:	41 58                	pop    r8
    60dd:	41 59                	pop    r9
    60df:	41 5a                	pop    r10
    60e1:	41 5b                	pop    r11
    60e3:	5d                   	pop    rbp
    60e4:	48 cf                	iretq  
    60e6:	66 2e 0f 1f 84 00 00 	nop    WORD PTR cs:[rax+rax*1+0x0]
    60ed:	00 00 00 
0x00000000001160f0: init_stack2
    60f0:	fa                   	cli    
    60f1:	48 89 e1             	mov    rcx,rsp
    60f4:	48 89 fc             	mov    rsp,rdi
    60f7:	56                   	push   rsi
    60f8:	6a 00                	push   0x0
    60fa:	6a 00                	push   0x0
    60fc:	6a 00                	push   0x0
    60fe:	6a 00                	push   0x0
    6100:	6a 00                	push   0x0
    6102:	6a 00                	push   0x0
    6104:	6a 00                	push   0x0
    6106:	6a 00                	push   0x0
    6108:	6a 00                	push   0x0
    610a:	6a 00                	push   0x0
    610c:	48 89 e0             	mov    rax,rsp
    610f:	48 89 cc             	mov    rsp,rcx
    6112:	fb                   	sti    
    6113:	c3                   	ret    
    6114:	66 66 2e 0f 1f 84 00 	data16 nop WORD PTR cs:[rax+rax*1+0x0]
    611b:	00 00 00 00 
    611f:	90                   	nop
0x0000000000116120: switch_context
    6120:	55                   	push   rbp
    6121:	41 53                	push   r11
    6123:	41 52                	push   r10
    6125:	41 51                	push   r9
    6127:	41 50                	push   r8
    6129:	57                   	push   rdi
    612a:	56                   	push   rsi
    612b:	52                   	push   rdx
    612c:	51                   	push   rcx
    612d:	50                   	push   rax
    612e:	48 89 27             	mov    QWORD PTR [rdi],rsp
    6131:	48 89 f4             	mov    rsp,rsi
    6134:	58                   	pop    rax
    6135:	59                   	pop    rcx
    6136:	5a                   	pop    rdx
    6137:	5e                   	pop    rsi
    6138:	5f                   	pop    rdi
    6139:	41 58                	pop    r8
    613b:	41 59                	pop    r9
    613d:	41 5a                	pop    r10
    613f:	41 5b                	pop    r11
    6141:	5d                   	pop    rbp
    6142:	c3                   	ret    
    6143:	0f 1f 44 00 00       	nop    DWORD PTR [rax+rax*1+0x0]
    6148:	43 52                	rex.XB push r10
    614a:	33 3a                	xor    edi,DWORD PTR [rdx]
    614c:	20 00                	and    BYTE PTR [rax],al
    614e:	43 52                	rex.XB push r10
    6150:	34 3a                	xor    al,0x3a
    6152:	20 00                	and    BYTE PTR [rax],al
    6154:	45                   	rex.RB
    6155:	46                   	rex.RX
    6156:	45 52                	rex.RB push r10
    6158:	3a 20                	cmp    ah,BYTE PTR [rax]
    615a:	00 00                	add    BYTE PTR [rax],al
    615c:	00 00                	add    BYTE PTR [rax],al
    615e:	00 00                	add    BYTE PTR [rax],al
    6160:	6d                   	ins    DWORD PTR es:[rdi],dx
    6161:	69 6e 4f 53 20 2d 20 	imul   ebp,DWORD PTR [rsi+0x4f],0x202d2053
    6168:	41 20 4d 69          	and    BYTE PTR [r13+0x69],cl
    616c:	6e                   	outs   dx,BYTE PTR ds:[rsi]
    616d:	69 6d 61 6c 20 4f 70 	imul   ebp,DWORD PTR [rbp+0x61],0x704f206c
    6174:	65 72 61             	gs jb  0x61d8
    6177:	74 69                	je     0x61e2
    6179:	6e                   	outs   dx,BYTE PTR ds:[rsi]
    617a:	67 20 53 79          	and    BYTE PTR [ebx+0x79],dl
    617e:	73 74                	jae    0x61f4
    6180:	65 6d                	gs ins DWORD PTR es:[rdi],dx
    6182:	2e 00 00             	add    BYTE PTR cs:[rax],al
    6185:	00 00                	add    BYTE PTR [rax],al
    6187:	00 44 65 76          	add    BYTE PTR [rbp+riz*2+0x76],al
    618b:	65 6c                	gs ins BYTE PTR es:[rdi],dx
    618d:	6f                   	outs   dx,DWORD PTR ds:[rsi]
    618e:	70 65                	jo     0x61f5
    6190:	72 20                	jb     0x61b2
    6192:	3a 20                	cmp    ah,BYTE PTR [rax]
    6194:	54                   	push   rsp
    6195:	6f                   	outs   dx,DWORD PTR ds:[rsi]
    6196:	74 73                	je     0x620b
    6198:	75 67                	jne    0x6201
    619a:	65 6b 69 74 61       	imul   ebp,DWORD PTR gs:[rcx+0x74],0x61
    619f:	69 28 40 74 6f 74    	imul   ebp,DWORD PTR [rax],0x746f7440
    61a5:	73 75                	jae    0x621c
    61a7:	67 65 6b 69 38 29    	imul   ebp,DWORD PTR gs:[ecx+0x38],0x29
    61ad:	00 70 65             	add    BYTE PTR [rax+0x65],dh
    61b0:	72 69                	jb     0x621b
    61b2:	6f                   	outs   dx,DWORD PTR ds:[rsi]
    61b3:	64 20 69 6e          	and    BYTE PTR fs:[rcx+0x6e],ch
    61b7:	69 74 3a 20 00 0a 00 	imul   esi,DWORD PTR [rdx+rdi*1+0x20],0x74000a00
    61be:	74 
    61bf:	68 72 65 61 64       	push   0x64616572
    61c4:	73 20                	jae    0x61e6
    61c6:	72 75                	jb     0x623d
    61c8:	6e                   	outs   dx,BYTE PTR ds:[rsi]
    61c9:	0a 0a                	or     cl,BYTE PTR [rdx]
    61cb:	00 6e 65             	add    BYTE PTR [rsi+0x65],ch
    61ce:	78 74                	js     0x6244
    61d0:	20 73 74             	and    BYTE PTR [rbx+0x74],dh
    61d3:	61                   	(bad)  
    61d4:	72 74                	jb     0x624a
    61d6:	20 72 73             	and    BYTE PTR [rdx+0x73],dh
    61d9:	70 3a                	jo     0x6215
    61db:	20 00                	and    BYTE PTR [rax],al
    61dd:	6e                   	outs   dx,BYTE PTR ds:[rsi]
    61de:	65 78 74             	gs js  0x6255
    61e1:	20 73 74             	and    BYTE PTR [rbx+0x74],dh
    61e4:	61                   	(bad)  
    61e5:	72 74                	jb     0x625b
    61e7:	20 66 75             	and    BYTE PTR [rsi+0x75],ah
    61ea:	6e                   	outs   dx,BYTE PTR ds:[rsi]
    61eb:	63 20                	movsxd esp,DWORD PTR [rax]
    61ed:	61                   	(bad)  
    61ee:	64 64 72 65          	fs fs jb 0x6257
    61f2:	73 73                	jae    0x6267
    61f4:	3a 20                	cmp    ah,BYTE PTR [rax]
    61f6:	00 6e 65             	add    BYTE PTR [rsi+0x65],ch
    61f9:	78 74                	js     0x626f
    61fb:	20 74 68 72          	and    BYTE PTR [rax+rbp*2+0x72],dh
    61ff:	65 61                	gs (bad) 
    6201:	64 20 72 69          	and    BYTE PTR fs:[rdx+0x69],dh
    6205:	70 3a                	jo     0x6241
    6207:	20 00                	and    BYTE PTR [rax],al
    6209:	0a 0a                	or     cl,BYTE PTR [rdx]
    620b:	00 66 69             	add    BYTE PTR [rsi+0x69],ah
    620e:	72 73                	jb     0x6283
    6210:	74 20                	je     0x6232
    6212:	64 69 73 70 61 74 63 	imul   esi,DWORD PTR fs:[rbx+0x70],0x68637461
    6219:	68 
    621a:	20 73 74             	and    BYTE PTR [rbx+0x74],dh
    621d:	61                   	(bad)  
    621e:	72 74                	jb     0x6294
    6220:	0a 0a                	or     cl,BYTE PTR [rdx]
    6222:	00 6b 65             	add    BYTE PTR [rbx+0x65],ch
    6225:	72 6e                	jb     0x6295
    6227:	65 6c                	gs ins BYTE PTR es:[rdi],dx
    6229:	20 65 6e             	and    BYTE PTR [rbp+0x6e],ah
    622c:	64 2e 0a 00          	fs or  al,BYTE PTR cs:[rax]
    6230:	49 20 61 6d          	rex.WB and BYTE PTR [r9+0x6d],spl
    6234:	20 69 6e             	and    BYTE PTR [rcx+0x6e],ch
    6237:	20 74 61 73          	and    BYTE PTR [rcx+riz*2+0x73],dh
    623b:	6b 5f 69 6e          	imul   ebx,DWORD PTR [rdi+0x69],0x6e
    623f:	70 75                	jo     0x62b6
    6241:	74 28                	je     0x626b
    6243:	29 2e                	sub    DWORD PTR [rsi],ebp
    6245:	20 49 20             	and    BYTE PTR [rcx+0x20],cl
    6248:	62 61                	(bad)  
    624a:	63 6b 65             	movsxd ebp,DWORD PTR [rbx+0x65]
    624d:	64 20 66 72          	and    BYTE PTR fs:[rsi+0x72],ah
    6251:	6f                   	outs   dx,DWORD PTR ds:[rsi]
    6252:	6d                   	ins    DWORD PTR es:[rdi],dx
    6253:	20 72 65             	and    BYTE PTR [rdx+0x65],dh
    6256:	63 65 69             	movsxd esp,DWORD PTR [rbp+0x69]
    6259:	76 65                	jbe    0x62c0
    625b:	5f                   	pop    rdi
    625c:	73 65                	jae    0x62c3
    625e:	72 69                	jb     0x62c9
    6260:	61                   	(bad)  
    6261:	6c                   	ins    BYTE PTR es:[rdi],dx
    6262:	5f                   	pop    rdi
    6263:	69 6e 70 75 74 28 29 	imul   ebp,DWORD PTR [rsi+0x70],0x29287475
    626a:	0a 00                	or     al,BYTE PTR [rax]
    626c:	6e                   	outs   dx,BYTE PTR ds:[rsi]
    626d:	65 77 20             	gs ja  0x6290
    6270:	6c                   	ins    BYTE PTR es:[rdi],dx
    6271:	69 6e 65 0a 00 70 75 	imul   ebp,DWORD PTR [rsi+0x65],0x7570000a
    6278:	74 20                	je     0x629a
    627a:	6b 65 79 63          	imul   esp,DWORD PTR [rbp+0x79],0x63
    627e:	6f                   	outs   dx,DWORD PTR ds:[rsi]
    627f:	64 65 3a 20          	fs cmp ah,BYTE PTR gs:[rax]
    6283:	00 23                	add    BYTE PTR [rbx],ah
    6285:	44                   	rex.R
    6286:	45 20 45 52          	and    BYTE PTR [r13+0x52],r8b
    628a:	52                   	push   rdx
    628b:	4f 52                	rex.WRXB push r10
    628d:	0a 00                	or     al,BYTE PTR [rax]
    628f:	52                   	push   rdx
    6290:	49 50                	rex.WB push r8
    6292:	3a 20                	cmp    ah,BYTE PTR [rax]
    6294:	00 0a                	add    BYTE PTR [rdx],cl
    6296:	00 43 53             	add    BYTE PTR [rbx+0x53],al
    6299:	3a 20                	cmp    ah,BYTE PTR [rax]
    629b:	00 52 46             	add    BYTE PTR [rdx+0x46],dl
    629e:	4c                   	rex.WR
    629f:	41                   	rex.B
    62a0:	47 53                	rex.RXB push r11
    62a2:	3a 20                	cmp    ah,BYTE PTR [rax]
    62a4:	00 52 53             	add    BYTE PTR [rdx+0x53],dl
    62a7:	50                   	push   rax
    62a8:	3a 20                	cmp    ah,BYTE PTR [rax]
    62aa:	00 53 53             	add    BYTE PTR [rbx+0x53],dl
    62ad:	3a 20                	cmp    ah,BYTE PTR [rax]
    62af:	00 0a                	add    BYTE PTR [rdx],cl
    62b1:	0a 00                	or     al,BYTE PTR [rax]
    62b3:	23 44 45 00          	and    eax,DWORD PTR [rbp+rax*2+0x0]
    62b7:	23 44 42 20          	and    eax,DWORD PTR [rdx+rax*2+0x20]
    62bb:	45 52                	rex.RB push r10
    62bd:	52                   	push   rdx
    62be:	4f 52                	rex.WRXB push r10
    62c0:	0a 00                	or     al,BYTE PTR [rax]
    62c2:	23 44 42 00          	and    eax,DWORD PTR [rdx+rax*2+0x0]
    62c6:	4e                   	rex.WRX
    62c7:	4d                   	rex.WRB
    62c8:	49 20 49 4e          	rex.WB and BYTE PTR [r9+0x4e],cl
    62cc:	54                   	push   rsp
    62cd:	45 52                	rex.RB push r10
    62cf:	52                   	push   rdx
    62d0:	55                   	push   rbp
    62d1:	50                   	push   rax
    62d2:	54                   	push   rsp
    62d3:	0a 00                	or     al,BYTE PTR [rax]
    62d5:	4e                   	rex.WRX
    62d6:	4d                   	rex.WRB
    62d7:	49 00 23             	rex.WB add BYTE PTR [r11],spl
    62da:	42 50                	rex.X push rax
    62dc:	20 44 45 42          	and    BYTE PTR [rbp+rax*2+0x42],al
    62e0:	55                   	push   rbp
    62e1:	47                   	rex.RXB
    62e2:	47                   	rex.RXB
    62e3:	49                   	rex.WB
    62e4:	4e                   	rex.WRX
    62e5:	47 0a 00             	rex.RXB or r8b,BYTE PTR [r8]
    62e8:	72 61                	jb     0x634b
    62ea:	78 3a                	js     0x6326
    62ec:	20 00                	and    BYTE PTR [rax],al
    62ee:	72 62                	jb     0x6352
    62f0:	78 3a                	js     0x632c
    62f2:	20 00                	and    BYTE PTR [rax],al
    62f4:	72 63                	jb     0x6359
    62f6:	78 3a                	js     0x6332
    62f8:	20 00                	and    BYTE PTR [rax],al
    62fa:	72 64                	jb     0x6360
    62fc:	78 3a                	js     0x6338
    62fe:	20 00                	and    BYTE PTR [rax],al
    6300:	72 73                	jb     0x6375
    6302:	69 3a 20 00 72 64    	imul   edi,DWORD PTR [rdx],0x64720020
    6308:	69 3a 20 00 72 73    	imul   edi,DWORD PTR [rdx],0x73720020
    630e:	70 3a                	jo     0x634a
    6310:	20 00                	and    BYTE PTR [rax],al
    6312:	72 62                	jb     0x6376
    6314:	70 3a                	jo     0x6350
    6316:	20 00                	and    BYTE PTR [rax],al
    6318:	72 38                	jb     0x6352
    631a:	3a 20                	cmp    ah,BYTE PTR [rax]
    631c:	00 72 39             	add    BYTE PTR [rdx+0x39],dh
    631f:	3a 20                	cmp    ah,BYTE PTR [rax]
    6321:	00 72 31             	add    BYTE PTR [rdx+0x31],dh
    6324:	30 3a                	xor    BYTE PTR [rdx],bh
    6326:	20 00                	and    BYTE PTR [rax],al
    6328:	72 31                	jb     0x635b
    632a:	31 3a                	xor    DWORD PTR [rdx],edi
    632c:	20 00                	and    BYTE PTR [rax],al
    632e:	72 31                	jb     0x6361
    6330:	32 3a                	xor    bh,BYTE PTR [rdx]
    6332:	20 00                	and    BYTE PTR [rax],al
    6334:	72 31                	jb     0x6367
    6336:	33 3a                	xor    edi,DWORD PTR [rdx]
    6338:	20 00                	and    BYTE PTR [rax],al
    633a:	72 31                	jb     0x636d
    633c:	34 3a                	xor    al,0x3a
    633e:	20 00                	and    BYTE PTR [rax],al
    6340:	72 31                	jb     0x6373
    6342:	35 3a 20 00 23       	xor    eax,0x2300203a
    6347:	42 50                	rex.X push rax
    6349:	00 23                	add    BYTE PTR [rbx],ah
    634b:	4f                   	rex.WRXB
    634c:	46 20 45 52          	rex.RX and BYTE PTR [rbp+0x52],r8b
    6350:	52                   	push   rdx
    6351:	4f 52                	rex.WRXB push r10
    6353:	0a 00                	or     al,BYTE PTR [rax]
    6355:	23 4f 46             	and    ecx,DWORD PTR [rdi+0x46]
    6358:	00 23                	add    BYTE PTR [rbx],ah
    635a:	42 52                	rex.X push rdx
    635c:	20 45 52             	and    BYTE PTR [rbp+0x52],al
    635f:	52                   	push   rdx
    6360:	4f 52                	rex.WRXB push r10
    6362:	0a 00                	or     al,BYTE PTR [rax]
    6364:	23 42 52             	and    eax,DWORD PTR [rdx+0x52]
    6367:	00 23                	add    BYTE PTR [rbx],ah
    6369:	55                   	push   rbp
    636a:	44 20 45 52          	and    BYTE PTR [rbp+0x52],r8b
    636e:	52                   	push   rdx
    636f:	4f 52                	rex.WRXB push r10
    6371:	0a 00                	or     al,BYTE PTR [rax]
    6373:	23 55 44             	and    edx,DWORD PTR [rbp+0x44]
    6376:	00 23                	add    BYTE PTR [rbx],ah
    6378:	4e                   	rex.WRX
    6379:	4d 20 45 52          	rex.WRB and BYTE PTR [r13+0x52],r8b
    637d:	52                   	push   rdx
    637e:	4f 52                	rex.WRXB push r10
    6380:	0a 00                	or     al,BYTE PTR [rax]
    6382:	23 4e 4d             	and    ecx,DWORD PTR [rsi+0x4d]
    6385:	00 23                	add    BYTE PTR [rbx],ah
    6387:	44                   	rex.R
    6388:	46 20 45 52          	rex.RX and BYTE PTR [rbp+0x52],r8b
    638c:	52                   	push   rdx
    638d:	4f 52                	rex.WRXB push r10
    638f:	20 43 4f             	and    BYTE PTR [rbx+0x4f],al
    6392:	44                   	rex.R
    6393:	45 20 3d 20 00 23 44 	and    BYTE PTR [rip+0x44230020],r15b        # 0x442363ba
    639a:	46 00 23             	rex.RX add BYTE PTR [rbx],r12b
    639d:	54                   	push   rsp
    639e:	53                   	push   rbx
    639f:	20 45 52             	and    BYTE PTR [rbp+0x52],al
    63a2:	52                   	push   rdx
    63a3:	4f 52                	rex.WRXB push r10
    63a5:	20 43 4f             	and    BYTE PTR [rbx+0x4f],al
    63a8:	44                   	rex.R
    63a9:	45 20 3d 20 00 23 54 	and    BYTE PTR [rip+0x54230020],r15b        # 0x542363d0
    63b0:	53                   	push   rbx
    63b1:	00 23                	add    BYTE PTR [rbx],ah
    63b3:	4e 50                	rex.WRX push rax
    63b5:	20 45 52             	and    BYTE PTR [rbp+0x52],al
    63b8:	52                   	push   rdx
    63b9:	4f 52                	rex.WRXB push r10
    63bb:	20 43 4f             	and    BYTE PTR [rbx+0x4f],al
    63be:	44                   	rex.R
    63bf:	45 20 3d 20 00 23 4e 	and    BYTE PTR [rip+0x4e230020],r15b        # 0x4e2363e6
    63c6:	50                   	push   rax
    63c7:	00 23                	add    BYTE PTR [rbx],ah
    63c9:	53                   	push   rbx
    63ca:	53                   	push   rbx
    63cb:	20 45 52             	and    BYTE PTR [rbp+0x52],al
    63ce:	52                   	push   rdx
    63cf:	4f 52                	rex.WRXB push r10
    63d1:	20 43 4f             	and    BYTE PTR [rbx+0x4f],al
    63d4:	44                   	rex.R
    63d5:	45 20 3d 20 00 23 53 	and    BYTE PTR [rip+0x53230020],r15b        # 0x532363fc
    63dc:	53                   	push   rbx
    63dd:	00 23                	add    BYTE PTR [rbx],ah
    63df:	47 50                	rex.RXB push r8
    63e1:	20 45 52             	and    BYTE PTR [rbp+0x52],al
    63e4:	52                   	push   rdx
    63e5:	4f 52                	rex.WRXB push r10
    63e7:	20 43 4f             	and    BYTE PTR [rbx+0x4f],al
    63ea:	44                   	rex.R
    63eb:	45 20 3d 20 00 23 47 	and    BYTE PTR [rip+0x47230020],r15b        # 0x47236412
    63f2:	50                   	push   rax
    63f3:	00 23                	add    BYTE PTR [rbx],ah
    63f5:	50                   	push   rax
    63f6:	61                   	(bad)  
    63f7:	67 65 20 66 61       	and    BYTE PTR gs:[esi+0x61],ah
    63fc:	75 6c                	jne    0x646a
    63fe:	74 0a                	je     0x640a
    6400:	00 23                	add    BYTE PTR [rbx],ah
    6402:	50                   	push   rax
    6403:	46 20 45 52          	rex.RX and BYTE PTR [rbp+0x52],r8b
    6407:	52                   	push   rdx
    6408:	4f 52                	rex.WRXB push r10
    640a:	20 43 4f             	and    BYTE PTR [rbx+0x4f],al
    640d:	44                   	rex.R
    640e:	45 20 3d 20 00 23 50 	and    BYTE PTR [rip+0x50230020],r15b        # 0x50236435
    6415:	46 00 23             	rex.RX add BYTE PTR [rbx],r12b
    6418:	4d                   	rex.WRB
    6419:	46 20 45 52          	rex.RX and BYTE PTR [rbp+0x52],r8b
    641d:	52                   	push   rdx
    641e:	4f 52                	rex.WRXB push r10
    6420:	0a 00                	or     al,BYTE PTR [rax]
    6422:	23 4d 46             	and    ecx,DWORD PTR [rbp+0x46]
    6425:	00 23                	add    BYTE PTR [rbx],ah
    6427:	41                   	rex.B
    6428:	43 20 45 52          	rex.XB and BYTE PTR [r13+0x52],al
    642c:	52                   	push   rdx
    642d:	4f 52                	rex.WRXB push r10
    642f:	20 43 4f             	and    BYTE PTR [rbx+0x4f],al
    6432:	44                   	rex.R
    6433:	45 20 3d 20 00 23 41 	and    BYTE PTR [rip+0x41230020],r15b        # 0x4123645a
    643a:	43 00 23             	rex.XB add BYTE PTR [r11],spl
    643d:	4d                   	rex.WRB
    643e:	43 20 45 52          	rex.XB and BYTE PTR [r13+0x52],al
    6442:	52                   	push   rdx
    6443:	4f 52                	rex.WRXB push r10
    6445:	0a 00                	or     al,BYTE PTR [rax]
    6447:	23 4d 43             	and    ecx,DWORD PTR [rbp+0x43]
    644a:	00 23                	add    BYTE PTR [rbx],ah
    644c:	58                   	pop    rax
    644d:	4d 20 45 52          	rex.WRB and BYTE PTR [r13+0x52],r8b
    6451:	52                   	push   rdx
    6452:	4f 52                	rex.WRXB push r10
    6454:	0a 00                	or     al,BYTE PTR [rax]
    6456:	23 58 4d             	and    ebx,DWORD PTR [rax+0x4d]
    6459:	00 74 69 6d          	add    BYTE PTR [rcx+rbp*2+0x6d],dh
    645d:	65 72 5f             	gs jb  0x64bf
    6460:	68 61 6e 64 6c       	push   0x6c646e61
    6465:	65 72 20             	gs jb  0x6488
    6468:	6f                   	outs   dx,DWORD PTR ds:[rsi]
    6469:	6c                   	ins    BYTE PTR es:[rdi],dx
    646a:	64 20 72 69          	and    BYTE PTR fs:[rdx+0x69],dh
    646e:	70 3a                	jo     0x64aa
    6470:	20 00                	and    BYTE PTR [rax],al
    6472:	0a 0a                	or     cl,BYTE PTR [rdx]
    6474:	00 6b 65             	add    BYTE PTR [rbx+0x65],ch
    6477:	79 62                	jns    0x64db
    6479:	6f                   	outs   dx,DWORD PTR ds:[rsi]
    647a:	61                   	(bad)  
    647b:	72 64                	jb     0x64e1
    647d:	20 69 6e             	and    BYTE PTR [rcx+0x6e],ch
    6480:	74 65                	je     0x64e7
    6482:	72 72                	jb     0x64f6
    6484:	75 70                	jne    0x64f6
    6486:	74 0a                	je     0x6492
    6488:	00 49 6e             	add    BYTE PTR [rcx+0x6e],cl
    648b:	74 65                	je     0x64f2
    648d:	72 72                	jb     0x6501
    648f:	75 70                	jne    0x6501
    6491:	74 20                	je     0x64b3
    6493:	43                   	rex.XB
    6494:	4f                   	rex.WRXB
    6495:	4d 31 0a             	xor    QWORD PTR [r10],r9
    6498:	00 6d 6f             	add    BYTE PTR [rbp+0x6f],ch
    649b:	75 73                	jne    0x6510
    649d:	65 20 69 6e          	and    BYTE PTR gs:[rcx+0x6e],ch
    64a1:	74 65                	je     0x6508
    64a3:	72 72                	jb     0x6517
    64a5:	75 70                	jne    0x6517
    64a7:	74 0a                	je     0x64b3
    64a9:	00 65 6d             	add    BYTE PTR [rbp+0x6d],ah
    64ac:	70 74                	jo     0x6522
    64ae:	79 20                	jns    0x64d0
    64b0:	68 61 6e 64 6c       	push   0x6c646e61
    64b5:	65 72 0a             	gs jb  0x64c2
    64b8:	00 0f                	add    BYTE PTR [rdi],cl
    64ba:	1f                   	(bad)  
    64bb:	80 00 00             	add    BYTE PTR [rax],0x0
    64be:	00 00                	add    BYTE PTR [rax],al
    64c0:	77 61                	ja     0x6523
    64c2:	69 74 5f 73 65 72 69 	imul   esi,DWORD PTR [rdi+rbx*2+0x73],0x61697265
    64c9:	61 
    64ca:	6c                   	ins    BYTE PTR es:[rdi],dx
    64cb:	5f                   	pop    rdi
    64cc:	69 6e 70 75 74 20 61 	imul   ebp,DWORD PTR [rsi+0x70],0x61207475
    64d3:	66 74 65             	data16 je 0x653b
    64d6:	72 20                	jb     0x64f8
    64d8:	77 68                	ja     0x6542
    64da:	69 6c 65 0a 00 00 72 	imul   ebp,DWORD PTR [rbp+riz*2+0xa],0x65720000
    64e1:	65 
    64e2:	63 65 69             	movsxd esp,DWORD PTR [rbp+0x69]
    64e5:	76 65                	jbe    0x654c
    64e7:	5f                   	pop    rdi
    64e8:	73 65                	jae    0x654f
    64ea:	72 69                	jb     0x6555
    64ec:	61                   	(bad)  
    64ed:	6c                   	ins    BYTE PTR es:[rdi],dx
    64ee:	5f                   	pop    rdi
    64ef:	69 6e 70 75 74 20 61 	imul   ebp,DWORD PTR [rsi+0x70],0x61207475
    64f6:	66 74 65             	data16 je 0x655e
    64f9:	72 20                	jb     0x651b
    64fb:	77 68                	ja     0x6565
    64fd:	69 6c 65 0a 00 00 00 	imul   ebp,DWORD PTR [rbp+riz*2+0xa],0x0
    6504:	00 
    6505:	00 00                	add    BYTE PTR [rax],al
    6507:	00 72 65             	add    BYTE PTR [rdx+0x65],dh
    650a:	63 65 69             	movsxd esp,DWORD PTR [rbp+0x69]
    650d:	76 65                	jbe    0x6574
    650f:	5f                   	pop    rdi
    6510:	73 65                	jae    0x6577
    6512:	72 69                	jb     0x657d
    6514:	61                   	(bad)  
    6515:	6c                   	ins    BYTE PTR es:[rdi],dx
    6516:	5f                   	pop    rdi
    6517:	69 6e 70 75 74 20 63 	imul   ebp,DWORD PTR [rsi+0x70],0x63207475
    651e:	20 3d 20 6b 65 79    	and    BYTE PTR [rip+0x79656b20],bh        # 0x7965d044
    6524:	63 6f 64             	movsxd ebp,DWORD PTR [rdi+0x64]
    6527:	65 0a 00             	or     al,BYTE PTR gs:[rax]
    652a:	00 00                	add    BYTE PTR [rax],al
    652c:	00 00                	add    BYTE PTR [rax],al
    652e:	00 00                	add    BYTE PTR [rax],al
    6530:	19 4d 11             	sbb    DWORD PTR [rbp+0x11],ecx
    6533:	00 00                	add    BYTE PTR [rax],al
    6535:	00 00                	add    BYTE PTR [rax],al
    6537:	00 19                	add    BYTE PTR [rcx],bl
    6539:	4d 11 00             	adc    QWORD PTR [r8],r8
    653c:	00 00                	add    BYTE PTR [rax],al
    653e:	00 00                	add    BYTE PTR [rax],al
    6540:	4f                   	rex.WRXB
    6541:	4a 11 00             	rex.WX adc QWORD PTR [rax],rax
    6544:	00 00                	add    BYTE PTR [rax],al
    6546:	00 00                	add    BYTE PTR [rax],al
    6548:	59                   	pop    rcx
    6549:	4a 11 00             	rex.WX adc QWORD PTR [rax],rax
    654c:	00 00                	add    BYTE PTR [rax],al
    654e:	00 00                	add    BYTE PTR [rax],al
    6550:	63 4a 11             	movsxd ecx,DWORD PTR [rdx+0x11]
    6553:	00 00                	add    BYTE PTR [rax],al
    6555:	00 00                	add    BYTE PTR [rax],al
    6557:	00 6d 4a             	add    BYTE PTR [rbp+0x4a],ch
    655a:	11 00                	adc    DWORD PTR [rax],eax
    655c:	00 00                	add    BYTE PTR [rax],al
    655e:	00 00                	add    BYTE PTR [rax],al
    6560:	77 4a                	ja     0x65ac
    6562:	11 00                	adc    DWORD PTR [rax],eax
    6564:	00 00                	add    BYTE PTR [rax],al
    6566:	00 00                	add    BYTE PTR [rax],al
    6568:	81 4a 11 00 00 00 00 	or     DWORD PTR [rdx+0x11],0x0
    656f:	00 8b 4a 11 00 00    	add    BYTE PTR [rbx+0x114a],cl
    6575:	00 00                	add    BYTE PTR [rax],al
    6577:	00 95 4a 11 00 00    	add    BYTE PTR [rbp+0x114a],dl
    657d:	00 00                	add    BYTE PTR [rax],al
    657f:	00 9f 4a 11 00 00    	add    BYTE PTR [rdi+0x114a],bl
    6585:	00 00                	add    BYTE PTR [rax],al
    6587:	00 45 4a             	add    BYTE PTR [rbp+0x4a],al
    658a:	11 00                	adc    DWORD PTR [rax],eax
    658c:	00 00                	add    BYTE PTR [rax],al
    658e:	00 00                	add    BYTE PTR [rax],al
    6590:	a9 4a 11 00 00       	test   eax,0x114a
    6595:	00 00                	add    BYTE PTR [rax],al
    6597:	00 b3 4a 11 00 00    	add    BYTE PTR [rbx+0x114a],dh
    659d:	00 00                	add    BYTE PTR [rax],al
    659f:	00 d1                	add    cl,dl
    65a1:	4a 11 00             	rex.WX adc QWORD PTR [rax],rax
    65a4:	00 00                	add    BYTE PTR [rax],al
    65a6:	00 00                	add    BYTE PTR [rax],al
    65a8:	19 4d 11             	sbb    DWORD PTR [rbp+0x11],ecx
    65ab:	00 00                	add    BYTE PTR [rax],al
    65ad:	00 00                	add    BYTE PTR [rax],al
    65af:	00 e1                	add    cl,ah
    65b1:	49 11 00             	adc    QWORD PTR [r8],rax
    65b4:	00 00                	add    BYTE PTR [rax],al
    65b6:	00 00                	add    BYTE PTR [rax],al
    65b8:	1d 4a 11 00 00       	sbb    eax,0x114a
    65bd:	00 00                	add    BYTE PTR [rax],al
    65bf:	00 69 49             	add    BYTE PTR [rcx+0x49],ch
    65c2:	11 00                	adc    DWORD PTR [rax],eax
    65c4:	00 00                	add    BYTE PTR [rax],al
    65c6:	00 00                	add    BYTE PTR [rax],al
    65c8:	eb 49                	jmp    0x6613
    65ca:	11 00                	adc    DWORD PTR [rax],eax
    65cc:	00 00                	add    BYTE PTR [rax],al
    65ce:	00 00                	add    BYTE PTR [rax],al
    65d0:	ff 49 11             	dec    DWORD PTR [rcx+0x11]
    65d3:	00 00                	add    BYTE PTR [rax],al
    65d5:	00 00                	add    BYTE PTR [rax],al
    65d7:	00 31                	add    BYTE PTR [rcx],dh
    65d9:	4a 11 00             	rex.WX adc QWORD PTR [rax],rax
    65dc:	00 00                	add    BYTE PTR [rax],al
    65de:	00 00                	add    BYTE PTR [rax],al
    65e0:	09 4a 11             	or     DWORD PTR [rdx+0x11],ecx
    65e3:	00 00                	add    BYTE PTR [rax],al
    65e5:	00 00                	add    BYTE PTR [rax],al
    65e7:	00 91 49 11 00 00    	add    BYTE PTR [rcx+0x1149],dl
    65ed:	00 00                	add    BYTE PTR [rax],al
    65ef:	00 cd                	add    ch,cl
    65f1:	49 11 00             	adc    QWORD PTR [r8],rax
    65f4:	00 00                	add    BYTE PTR [rax],al
    65f6:	00 00                	add    BYTE PTR [rax],al
    65f8:	d7                   	xlat   BYTE PTR ds:[rbx]
    65f9:	49 11 00             	adc    QWORD PTR [r8],rax
    65fc:	00 00                	add    BYTE PTR [rax],al
    65fe:	00 00                	add    BYTE PTR [rax],al
    6600:	ef                   	out    dx,eax
    6601:	4a 11 00             	rex.WX adc QWORD PTR [rax],rax
    6604:	00 00                	add    BYTE PTR [rax],al
    6606:	00 00                	add    BYTE PTR [rax],al
    6608:	f9                   	stc    
    6609:	4a 11 00             	rex.WX adc QWORD PTR [rax],rax
    660c:	00 00                	add    BYTE PTR [rax],al
    660e:	00 00                	add    BYTE PTR [rax],al
    6610:	e5 4a                	in     eax,0x4a
    6612:	11 00                	adc    DWORD PTR [rax],eax
    6614:	00 00                	add    BYTE PTR [rax],al
    6616:	00 00                	add    BYTE PTR [rax],al
    6618:	19 4d 11             	sbb    DWORD PTR [rbp+0x11],ecx
    661b:	00 00                	add    BYTE PTR [rax],al
    661d:	00 00                	add    BYTE PTR [rax],al
    661f:	00 41 49             	add    BYTE PTR [rcx+0x49],al
    6622:	11 00                	adc    DWORD PTR [rax],eax
    6624:	00 00                	add    BYTE PTR [rax],al
    6626:	00 00                	add    BYTE PTR [rax],al
    6628:	f5                   	cmc    
    6629:	49 11 00             	adc    QWORD PTR [r8],rax
    662c:	00 00                	add    BYTE PTR [rax],al
    662e:	00 00                	add    BYTE PTR [rax],al
    6630:	5f                   	pop    rdi
    6631:	49 11 00             	adc    QWORD PTR [r8],rax
    6634:	00 00                	add    BYTE PTR [rax],al
    6636:	00 00                	add    BYTE PTR [rax],al
    6638:	73 49                	jae    0x6683
    663a:	11 00                	adc    DWORD PTR [rax],eax
    663c:	00 00                	add    BYTE PTR [rax],al
    663e:	00 00                	add    BYTE PTR [rax],al
    6640:	7d 49                	jge    0x668b
    6642:	11 00                	adc    DWORD PTR [rax],eax
    6644:	00 00                	add    BYTE PTR [rax],al
    6646:	00 00                	add    BYTE PTR [rax],al
    6648:	87 49 11             	xchg   DWORD PTR [rcx+0x11],ecx
    664b:	00 00                	add    BYTE PTR [rax],al
    664d:	00 00                	add    BYTE PTR [rax],al
    664f:	00 9b 49 11 00 00    	add    BYTE PTR [rbx+0x1149],bl
    6655:	00 00                	add    BYTE PTR [rax],al
    6657:	00 a5 49 11 00 00    	add    BYTE PTR [rbp+0x1149],ah
    665d:	00 00                	add    BYTE PTR [rax],al
    665f:	00 af 49 11 00 00    	add    BYTE PTR [rdi+0x1149],ch
    6665:	00 00                	add    BYTE PTR [rax],al
    6667:	00 03                	add    BYTE PTR [rbx],al
    6669:	4b 11 00             	rex.WXB adc QWORD PTR [r8],rax
    666c:	00 00                	add    BYTE PTR [rax],al
    666e:	00 00                	add    BYTE PTR [rax],al
    6670:	0d 4b 11 00 00       	or     eax,0x114b
    6675:	00 00                	add    BYTE PTR [rax],al
    6677:	00 19                	add    BYTE PTR [rcx],bl
    6679:	4d 11 00             	adc    QWORD PTR [r8],r8
    667c:	00 00                	add    BYTE PTR [rax],al
    667e:	00 00                	add    BYTE PTR [rax],al
    6680:	19 4d 11             	sbb    DWORD PTR [rbp+0x11],ecx
    6683:	00 00                	add    BYTE PTR [rax],al
    6685:	00 00                	add    BYTE PTR [rax],al
    6687:	00 c7                	add    bh,al
    6689:	4a 11 00             	rex.WX adc QWORD PTR [rax],rax
    668c:	00 00                	add    BYTE PTR [rax],al
    668e:	00 00                	add    BYTE PTR [rax],al
    6690:	3b 4a 11             	cmp    ecx,DWORD PTR [rdx+0x11]
    6693:	00 00                	add    BYTE PTR [rax],al
    6695:	00 00                	add    BYTE PTR [rax],al
    6697:	00 27                	add    BYTE PTR [rdi],ah
    6699:	4a 11 00             	rex.WX adc QWORD PTR [rax],rax
    669c:	00 00                	add    BYTE PTR [rax],al
    669e:	00 00                	add    BYTE PTR [rax],al
    66a0:	55                   	push   rbp
    66a1:	49 11 00             	adc    QWORD PTR [r8],rax
    66a4:	00 00                	add    BYTE PTR [rax],al
    66a6:	00 00                	add    BYTE PTR [rax],al
    66a8:	13 4a 11             	adc    ecx,DWORD PTR [rdx+0x11]
    66ab:	00 00                	add    BYTE PTR [rax],al
    66ad:	00 00                	add    BYTE PTR [rax],al
    66af:	00 4b 49             	add    BYTE PTR [rbx+0x49],cl
    66b2:	11 00                	adc    DWORD PTR [rax],eax
    66b4:	00 00                	add    BYTE PTR [rax],al
    66b6:	00 00                	add    BYTE PTR [rax],al
    66b8:	c3                   	ret    
    66b9:	49 11 00             	adc    QWORD PTR [r8],rax
    66bc:	00 00                	add    BYTE PTR [rax],al
    66be:	00 00                	add    BYTE PTR [rax],al
    66c0:	b9 49 11 00 00       	mov    ecx,0x1149
    66c5:	00 00                	add    BYTE PTR [rax],al
    66c7:	00 17                	add    BYTE PTR [rdi],dl
    66c9:	4b 11 00             	rex.WXB adc QWORD PTR [r8],rax
    66cc:	00 00                	add    BYTE PTR [rax],al
    66ce:	00 00                	add    BYTE PTR [rax],al
    66d0:	21 4b 11             	and    DWORD PTR [rbx+0x11],ecx
    66d3:	00 00                	add    BYTE PTR [rax],al
    66d5:	00 00                	add    BYTE PTR [rax],al
    66d7:	00 2b                	add    BYTE PTR [rbx],ch
    66d9:	4b 11 00             	rex.WXB adc QWORD PTR [r8],rax
    66dc:	00 00                	add    BYTE PTR [rax],al
    66de:	00 00                	add    BYTE PTR [rax],al
    66e0:	19 4d 11             	sbb    DWORD PTR [rbp+0x11],ecx
    66e3:	00 00                	add    BYTE PTR [rax],al
    66e5:	00 00                	add    BYTE PTR [rax],al
    66e7:	00 19                	add    BYTE PTR [rcx],bl
    66e9:	4d 11 00             	adc    QWORD PTR [r8],r8
    66ec:	00 00                	add    BYTE PTR [rax],al
    66ee:	00 00                	add    BYTE PTR [rax],al
    66f0:	19 4d 11             	sbb    DWORD PTR [rbp+0x11],ecx
    66f3:	00 00                	add    BYTE PTR [rax],al
    66f5:	00 00                	add    BYTE PTR [rax],al
    66f7:	00 db                	add    bl,bl
    66f9:	4a 11 00             	rex.WX adc QWORD PTR [rax],rax
    66fc:	00 00                	add    BYTE PTR [rax],al
    66fe:	00 00                	add    BYTE PTR [rax],al
    6700:	19 4d 11             	sbb    DWORD PTR [rbp+0x11],ecx
    6703:	00 00                	add    BYTE PTR [rax],al
    6705:	00 00                	add    BYTE PTR [rax],al
    6707:	00 19                	add    BYTE PTR [rcx],bl
    6709:	4d 11 00             	adc    QWORD PTR [r8],r8
    670c:	00 00                	add    BYTE PTR [rax],al
    670e:	00 00                	add    BYTE PTR [rax],al
    6710:	19 4d 11             	sbb    DWORD PTR [rbp+0x11],ecx
    6713:	00 00                	add    BYTE PTR [rax],al
    6715:	00 00                	add    BYTE PTR [rax],al
    6717:	00 19                	add    BYTE PTR [rcx],bl
    6719:	4d 11 00             	adc    QWORD PTR [r8],r8
    671c:	00 00                	add    BYTE PTR [rax],al
    671e:	00 00                	add    BYTE PTR [rax],al
    6720:	19 4d 11             	sbb    DWORD PTR [rbp+0x11],ecx
    6723:	00 00                	add    BYTE PTR [rax],al
    6725:	00 00                	add    BYTE PTR [rax],al
    6727:	00 19                	add    BYTE PTR [rcx],bl
    6729:	4d 11 00             	adc    QWORD PTR [r8],r8
    672c:	00 00                	add    BYTE PTR [rax],al
    672e:	00 00                	add    BYTE PTR [rax],al
    6730:	19 4d 11             	sbb    DWORD PTR [rbp+0x11],ecx
    6733:	00 00                	add    BYTE PTR [rax],al
    6735:	00 00                	add    BYTE PTR [rax],al
    6737:	00 19                	add    BYTE PTR [rcx],bl
    6739:	4d 11 00             	adc    QWORD PTR [r8],r8
    673c:	00 00                	add    BYTE PTR [rax],al
    673e:	00 00                	add    BYTE PTR [rax],al
    6740:	19 4d 11             	sbb    DWORD PTR [rbp+0x11],ecx
    6743:	00 00                	add    BYTE PTR [rax],al
    6745:	00 00                	add    BYTE PTR [rax],al
    6747:	00 19                	add    BYTE PTR [rcx],bl
    6749:	4d 11 00             	adc    QWORD PTR [r8],r8
    674c:	00 00                	add    BYTE PTR [rax],al
    674e:	00 00                	add    BYTE PTR [rax],al
    6750:	19 4d 11             	sbb    DWORD PTR [rbp+0x11],ecx
    6753:	00 00                	add    BYTE PTR [rax],al
    6755:	00 00                	add    BYTE PTR [rax],al
    6757:	00 19                	add    BYTE PTR [rcx],bl
    6759:	4d 11 00             	adc    QWORD PTR [r8],r8
    675c:	00 00                	add    BYTE PTR [rax],al
    675e:	00 00                	add    BYTE PTR [rax],al
    6760:	19 4d 11             	sbb    DWORD PTR [rbp+0x11],ecx
    6763:	00 00                	add    BYTE PTR [rax],al
    6765:	00 00                	add    BYTE PTR [rax],al
    6767:	00 19                	add    BYTE PTR [rcx],bl
    6769:	4d 11 00             	adc    QWORD PTR [r8],r8
    676c:	00 00                	add    BYTE PTR [rax],al
    676e:	00 00                	add    BYTE PTR [rax],al
    6770:	19 4d 11             	sbb    DWORD PTR [rbp+0x11],ecx
    6773:	00 00                	add    BYTE PTR [rax],al
    6775:	00 00                	add    BYTE PTR [rax],al
    6777:	00 19                	add    BYTE PTR [rcx],bl
    6779:	4d 11 00             	adc    QWORD PTR [r8],r8
    677c:	00 00                	add    BYTE PTR [rax],al
    677e:	00 00                	add    BYTE PTR [rax],al
    6780:	19 4d 11             	sbb    DWORD PTR [rbp+0x11],ecx
    6783:	00 00                	add    BYTE PTR [rax],al
    6785:	00 00                	add    BYTE PTR [rax],al
    6787:	00 19                	add    BYTE PTR [rcx],bl
    6789:	4d 11 00             	adc    QWORD PTR [r8],r8
    678c:	00 00                	add    BYTE PTR [rax],al
    678e:	00 00                	add    BYTE PTR [rax],al
    6790:	19 4d 11             	sbb    DWORD PTR [rbp+0x11],ecx
    6793:	00 00                	add    BYTE PTR [rax],al
    6795:	00 00                	add    BYTE PTR [rax],al
    6797:	00 19                	add    BYTE PTR [rcx],bl
    6799:	4d 11 00             	adc    QWORD PTR [r8],r8
    679c:	00 00                	add    BYTE PTR [rax],al
    679e:	00 00                	add    BYTE PTR [rax],al
    67a0:	19 4d 11             	sbb    DWORD PTR [rbp+0x11],ecx
    67a3:	00 00                	add    BYTE PTR [rax],al
    67a5:	00 00                	add    BYTE PTR [rax],al
    67a7:	00 19                	add    BYTE PTR [rcx],bl
    67a9:	4d 11 00             	adc    QWORD PTR [r8],r8
    67ac:	00 00                	add    BYTE PTR [rax],al
    67ae:	00 00                	add    BYTE PTR [rax],al
    67b0:	19 4d 11             	sbb    DWORD PTR [rbp+0x11],ecx
    67b3:	00 00                	add    BYTE PTR [rax],al
    67b5:	00 00                	add    BYTE PTR [rax],al
    67b7:	00 19                	add    BYTE PTR [rcx],bl
    67b9:	4d 11 00             	adc    QWORD PTR [r8],r8
    67bc:	00 00                	add    BYTE PTR [rax],al
    67be:	00 00                	add    BYTE PTR [rax],al
    67c0:	19 4d 11             	sbb    DWORD PTR [rbp+0x11],ecx
    67c3:	00 00                	add    BYTE PTR [rax],al
    67c5:	00 00                	add    BYTE PTR [rax],al
    67c7:	00 19                	add    BYTE PTR [rcx],bl
    67c9:	4d 11 00             	adc    QWORD PTR [r8],r8
    67cc:	00 00                	add    BYTE PTR [rax],al
    67ce:	00 00                	add    BYTE PTR [rax],al
    67d0:	19 4d 11             	sbb    DWORD PTR [rbp+0x11],ecx
    67d3:	00 00                	add    BYTE PTR [rax],al
    67d5:	00 00                	add    BYTE PTR [rax],al
    67d7:	00 19                	add    BYTE PTR [rcx],bl
    67d9:	4d 11 00             	adc    QWORD PTR [r8],r8
    67dc:	00 00                	add    BYTE PTR [rax],al
    67de:	00 00                	add    BYTE PTR [rax],al
    67e0:	19 4d 11             	sbb    DWORD PTR [rbp+0x11],ecx
    67e3:	00 00                	add    BYTE PTR [rax],al
    67e5:	00 00                	add    BYTE PTR [rax],al
    67e7:	00 19                	add    BYTE PTR [rcx],bl
    67e9:	4d 11 00             	adc    QWORD PTR [r8],r8
    67ec:	00 00                	add    BYTE PTR [rax],al
    67ee:	00 00                	add    BYTE PTR [rax],al
    67f0:	19 4d 11             	sbb    DWORD PTR [rbp+0x11],ecx
    67f3:	00 00                	add    BYTE PTR [rax],al
    67f5:	00 00                	add    BYTE PTR [rax],al
    67f7:	00 19                	add    BYTE PTR [rcx],bl
    67f9:	4d 11 00             	adc    QWORD PTR [r8],r8
    67fc:	00 00                	add    BYTE PTR [rax],al
    67fe:	00 00                	add    BYTE PTR [rax],al
    6800:	19 4d 11             	sbb    DWORD PTR [rbp+0x11],ecx
    6803:	00 00                	add    BYTE PTR [rax],al
    6805:	00 00                	add    BYTE PTR [rax],al
    6807:	00 19                	add    BYTE PTR [rcx],bl
    6809:	4d 11 00             	adc    QWORD PTR [r8],r8
    680c:	00 00                	add    BYTE PTR [rax],al
    680e:	00 00                	add    BYTE PTR [rax],al
    6810:	19 4d 11             	sbb    DWORD PTR [rbp+0x11],ecx
    6813:	00 00                	add    BYTE PTR [rax],al
    6815:	00 00                	add    BYTE PTR [rax],al
    6817:	00 19                	add    BYTE PTR [rcx],bl
    6819:	4d 11 00             	adc    QWORD PTR [r8],r8
    681c:	00 00                	add    BYTE PTR [rax],al
    681e:	00 00                	add    BYTE PTR [rax],al
    6820:	19 4d 11             	sbb    DWORD PTR [rbp+0x11],ecx
    6823:	00 00                	add    BYTE PTR [rax],al
    6825:	00 00                	add    BYTE PTR [rax],al
    6827:	00 19                	add    BYTE PTR [rcx],bl
    6829:	4d 11 00             	adc    QWORD PTR [r8],r8
    682c:	00 00                	add    BYTE PTR [rax],al
    682e:	00 00                	add    BYTE PTR [rax],al
    6830:	19 4d 11             	sbb    DWORD PTR [rbp+0x11],ecx
    6833:	00 00                	add    BYTE PTR [rax],al
    6835:	00 00                	add    BYTE PTR [rax],al
    6837:	00 19                	add    BYTE PTR [rcx],bl
    6839:	4d 11 00             	adc    QWORD PTR [r8],r8
    683c:	00 00                	add    BYTE PTR [rax],al
    683e:	00 00                	add    BYTE PTR [rax],al
    6840:	19 4d 11             	sbb    DWORD PTR [rbp+0x11],ecx
    6843:	00 00                	add    BYTE PTR [rax],al
    6845:	00 00                	add    BYTE PTR [rax],al
    6847:	00 19                	add    BYTE PTR [rcx],bl
    6849:	4d 11 00             	adc    QWORD PTR [r8],r8
    684c:	00 00                	add    BYTE PTR [rax],al
    684e:	00 00                	add    BYTE PTR [rax],al
    6850:	19 4d 11             	sbb    DWORD PTR [rbp+0x11],ecx
    6853:	00 00                	add    BYTE PTR [rax],al
    6855:	00 00                	add    BYTE PTR [rax],al
    6857:	00 19                	add    BYTE PTR [rcx],bl
    6859:	4d 11 00             	adc    QWORD PTR [r8],r8
    685c:	00 00                	add    BYTE PTR [rax],al
    685e:	00 00                	add    BYTE PTR [rax],al
    6860:	19 4d 11             	sbb    DWORD PTR [rbp+0x11],ecx
    6863:	00 00                	add    BYTE PTR [rax],al
    6865:	00 00                	add    BYTE PTR [rax],al
    6867:	00 19                	add    BYTE PTR [rcx],bl
    6869:	4d 11 00             	adc    QWORD PTR [r8],r8
    686c:	00 00                	add    BYTE PTR [rax],al
    686e:	00 00                	add    BYTE PTR [rax],al
    6870:	19 4d 11             	sbb    DWORD PTR [rbp+0x11],ecx
    6873:	00 00                	add    BYTE PTR [rax],al
    6875:	00 00                	add    BYTE PTR [rax],al
    6877:	00 19                	add    BYTE PTR [rcx],bl
    6879:	4d 11 00             	adc    QWORD PTR [r8],r8
    687c:	00 00                	add    BYTE PTR [rax],al
    687e:	00 00                	add    BYTE PTR [rax],al
    6880:	19 4d 11             	sbb    DWORD PTR [rbp+0x11],ecx
    6883:	00 00                	add    BYTE PTR [rax],al
    6885:	00 00                	add    BYTE PTR [rax],al
    6887:	00 19                	add    BYTE PTR [rcx],bl
    6889:	4d 11 00             	adc    QWORD PTR [r8],r8
    688c:	00 00                	add    BYTE PTR [rax],al
    688e:	00 00                	add    BYTE PTR [rax],al
    6890:	19 4d 11             	sbb    DWORD PTR [rbp+0x11],ecx
    6893:	00 00                	add    BYTE PTR [rax],al
    6895:	00 00                	add    BYTE PTR [rax],al
    6897:	00 19                	add    BYTE PTR [rcx],bl
    6899:	4d 11 00             	adc    QWORD PTR [r8],r8
    689c:	00 00                	add    BYTE PTR [rax],al
    689e:	00 00                	add    BYTE PTR [rax],al
    68a0:	19 4d 11             	sbb    DWORD PTR [rbp+0x11],ecx
    68a3:	00 00                	add    BYTE PTR [rax],al
    68a5:	00 00                	add    BYTE PTR [rax],al
    68a7:	00 19                	add    BYTE PTR [rcx],bl
    68a9:	4d 11 00             	adc    QWORD PTR [r8],r8
    68ac:	00 00                	add    BYTE PTR [rax],al
    68ae:	00 00                	add    BYTE PTR [rax],al
    68b0:	19 4d 11             	sbb    DWORD PTR [rbp+0x11],ecx
    68b3:	00 00                	add    BYTE PTR [rax],al
    68b5:	00 00                	add    BYTE PTR [rax],al
    68b7:	00 19                	add    BYTE PTR [rcx],bl
    68b9:	4d 11 00             	adc    QWORD PTR [r8],r8
    68bc:	00 00                	add    BYTE PTR [rax],al
    68be:	00 00                	add    BYTE PTR [rax],al
    68c0:	19 4d 11             	sbb    DWORD PTR [rbp+0x11],ecx
    68c3:	00 00                	add    BYTE PTR [rax],al
    68c5:	00 00                	add    BYTE PTR [rax],al
    68c7:	00 35 4b 11 00 00    	add    BYTE PTR [rip+0x114b],dh        # 0x7a18
    68cd:	00 00                	add    BYTE PTR [rax],al
    68cf:	00 19                	add    BYTE PTR [rcx],bl
    68d1:	4d 11 00             	adc    QWORD PTR [r8],r8
    68d4:	00 00                	add    BYTE PTR [rax],al
    68d6:	00 00                	add    BYTE PTR [rax],al
    68d8:	19 4d 11             	sbb    DWORD PTR [rbp+0x11],ecx
    68db:	00 00                	add    BYTE PTR [rax],al
    68dd:	00 00                	add    BYTE PTR [rax],al
    68df:	00 19                	add    BYTE PTR [rcx],bl
    68e1:	4d 11 00             	adc    QWORD PTR [r8],r8
    68e4:	00 00                	add    BYTE PTR [rax],al
    68e6:	00 00                	add    BYTE PTR [rax],al
    68e8:	19 4d 11             	sbb    DWORD PTR [rbp+0x11],ecx
    68eb:	00 00                	add    BYTE PTR [rax],al
    68ed:	00 00                	add    BYTE PTR [rax],al
    68ef:	00 19                	add    BYTE PTR [rcx],bl
    68f1:	4d 11 00             	adc    QWORD PTR [r8],r8
    68f4:	00 00                	add    BYTE PTR [rax],al
    68f6:	00 00                	add    BYTE PTR [rax],al
    68f8:	19 4d 11             	sbb    DWORD PTR [rbp+0x11],ecx
    68fb:	00 00                	add    BYTE PTR [rax],al
    68fd:	00 00                	add    BYTE PTR [rax],al
    68ff:	00 19                	add    BYTE PTR [rcx],bl
    6901:	4d 11 00             	adc    QWORD PTR [r8],r8
    6904:	00 00                	add    BYTE PTR [rax],al
    6906:	00 00                	add    BYTE PTR [rax],al
    6908:	19 4d 11             	sbb    DWORD PTR [rbp+0x11],ecx
    690b:	00 00                	add    BYTE PTR [rax],al
    690d:	00 00                	add    BYTE PTR [rax],al
    690f:	00 19                	add    BYTE PTR [rcx],bl
    6911:	4d 11 00             	adc    QWORD PTR [r8],r8
    6914:	00 00                	add    BYTE PTR [rax],al
    6916:	00 00                	add    BYTE PTR [rax],al
    6918:	bd 4a 11 00 00       	mov    ebp,0x114a
    691d:	00 00                	add    BYTE PTR [rax],al
    691f:	00 1c 4d 11 00 00 00 	add    BYTE PTR [rcx*2+0x11],bl
    6926:	00 00                	add    BYTE PTR [rax],al
    6928:	1c 4d                	sbb    al,0x4d
    692a:	11 00                	adc    DWORD PTR [rax],eax
    692c:	00 00                	add    BYTE PTR [rax],al
    692e:	00 00                	add    BYTE PTR [rax],al
    6930:	5c                   	pop    rsp
    6931:	4c 11 00             	adc    QWORD PTR [rax],r8
    6934:	00 00                	add    BYTE PTR [rax],al
    6936:	00 00                	add    BYTE PTR [rax],al
    6938:	66 4c 11 00          	data16 adc QWORD PTR [rax],r8
    693c:	00 00                	add    BYTE PTR [rax],al
    693e:	00 00                	add    BYTE PTR [rax],al
    6940:	70 4c                	jo     0x698e
    6942:	11 00                	adc    DWORD PTR [rax],eax
    6944:	00 00                	add    BYTE PTR [rax],al
    6946:	00 00                	add    BYTE PTR [rax],al
    6948:	7a 4c                	jp     0x6996
    694a:	11 00                	adc    DWORD PTR [rax],eax
    694c:	00 00                	add    BYTE PTR [rax],al
    694e:	00 00                	add    BYTE PTR [rax],al
    6950:	84 4c 11 00          	test   BYTE PTR [rcx+rdx*1+0x0],cl
    6954:	00 00                	add    BYTE PTR [rax],al
    6956:	00 00                	add    BYTE PTR [rax],al
    6958:	8e 4c 11 00          	mov    cs,WORD PTR [rcx+rdx*1+0x0]
    695c:	00 00                	add    BYTE PTR [rax],al
    695e:	00 00                	add    BYTE PTR [rax],al
    6960:	98                   	cwde   
    6961:	4c 11 00             	adc    QWORD PTR [rax],r8
    6964:	00 00                	add    BYTE PTR [rax],al
    6966:	00 00                	add    BYTE PTR [rax],al
    6968:	a2 4c 11 00 00 00 00 	movabs ds:0xa90000000000114c,al
    696f:	00 a9 
    6971:	4c 11 00             	adc    QWORD PTR [rax],r8
    6974:	00 00                	add    BYTE PTR [rax],al
    6976:	00 00                	add    BYTE PTR [rax],al
    6978:	1c 4d                	sbb    al,0x4d
    697a:	11 00                	adc    DWORD PTR [rax],eax
    697c:	00 00                	add    BYTE PTR [rax],al
    697e:	00 00                	add    BYTE PTR [rax],al
    6980:	b0 4c                	mov    al,0x4c
    6982:	11 00                	adc    DWORD PTR [rax],eax
    6984:	00 00                	add    BYTE PTR [rax],al
    6986:	00 00                	add    BYTE PTR [rax],al
    6988:	b7 4c                	mov    bh,0x4c
    698a:	11 00                	adc    DWORD PTR [rax],eax
    698c:	00 00                	add    BYTE PTR [rax],al
    698e:	00 00                	add    BYTE PTR [rax],al
    6990:	cc                   	int3   
    6991:	4c 11 00             	adc    QWORD PTR [rax],r8
    6994:	00 00                	add    BYTE PTR [rax],al
    6996:	00 00                	add    BYTE PTR [rax],al
    6998:	1c 4d                	sbb    al,0x4d
    699a:	11 00                	adc    DWORD PTR [rax],eax
    699c:	00 00                	add    BYTE PTR [rax],al
    699e:	00 00                	add    BYTE PTR [rax],al
    69a0:	f8                   	clc    
    69a1:	4b 11 00             	rex.WXB adc QWORD PTR [r8],rax
    69a4:	00 00                	add    BYTE PTR [rax],al
    69a6:	00 00                	add    BYTE PTR [rax],al
    69a8:	34 4c                	xor    al,0x4c
    69aa:	11 00                	adc    DWORD PTR [rax],eax
    69ac:	00 00                	add    BYTE PTR [rax],al
    69ae:	00 00                	add    BYTE PTR [rax],al
    69b0:	80 4b 11 00          	or     BYTE PTR [rbx+0x11],0x0
    69b4:	00 00                	add    BYTE PTR [rax],al
    69b6:	00 00                	add    BYTE PTR [rax],al
    69b8:	02 4c 11 00          	add    cl,BYTE PTR [rcx+rdx*1+0x0]
    69bc:	00 00                	add    BYTE PTR [rax],al
    69be:	00 00                	add    BYTE PTR [rax],al
    69c0:	16                   	(bad)  
    69c1:	4c 11 00             	adc    QWORD PTR [rax],r8
    69c4:	00 00                	add    BYTE PTR [rax],al
    69c6:	00 00                	add    BYTE PTR [rax],al
    69c8:	48                   	rex.W
    69c9:	4c 11 00             	adc    QWORD PTR [rax],r8
    69cc:	00 00                	add    BYTE PTR [rax],al
    69ce:	00 00                	add    BYTE PTR [rax],al
    69d0:	20 4c 11 00          	and    BYTE PTR [rcx+rdx*1+0x0],cl
    69d4:	00 00                	add    BYTE PTR [rax],al
    69d6:	00 00                	add    BYTE PTR [rax],al
    69d8:	a8 4b                	test   al,0x4b
    69da:	11 00                	adc    DWORD PTR [rax],eax
    69dc:	00 00                	add    BYTE PTR [rax],al
    69de:	00 00                	add    BYTE PTR [rax],al
    69e0:	e4 4b                	in     al,0x4b
    69e2:	11 00                	adc    DWORD PTR [rax],eax
    69e4:	00 00                	add    BYTE PTR [rax],al
    69e6:	00 00                	add    BYTE PTR [rax],al
    69e8:	ee                   	out    dx,al
    69e9:	4b 11 00             	rex.WXB adc QWORD PTR [r8],rax
    69ec:	00 00                	add    BYTE PTR [rax],al
    69ee:	00 00                	add    BYTE PTR [rax],al
    69f0:	e1 4c                	loope  0x6a3e
    69f2:	11 00                	adc    DWORD PTR [rax],eax
    69f4:	00 00                	add    BYTE PTR [rax],al
    69f6:	00 00                	add    BYTE PTR [rax],al
    69f8:	e8 4c 11 00 00       	call   0x7b49
    69fd:	00 00                	add    BYTE PTR [rax],al
    69ff:	00 da                	add    dl,bl
    6a01:	4c 11 00             	adc    QWORD PTR [rax],r8
    6a04:	00 00                	add    BYTE PTR [rax],al
    6a06:	00 00                	add    BYTE PTR [rax],al
    6a08:	1c 4d                	sbb    al,0x4d
    6a0a:	11 00                	adc    DWORD PTR [rax],eax
    6a0c:	00 00                	add    BYTE PTR [rax],al
    6a0e:	00 00                	add    BYTE PTR [rax],al
    6a10:	58                   	pop    rax
    6a11:	4b 11 00             	rex.WXB adc QWORD PTR [r8],rax
    6a14:	00 00                	add    BYTE PTR [rax],al
    6a16:	00 00                	add    BYTE PTR [rax],al
    6a18:	0c 4c                	or     al,0x4c
    6a1a:	11 00                	adc    DWORD PTR [rax],eax
    6a1c:	00 00                	add    BYTE PTR [rax],al
    6a1e:	00 00                	add    BYTE PTR [rax],al
    6a20:	76 4b                	jbe    0x6a6d
    6a22:	11 00                	adc    DWORD PTR [rax],eax
    6a24:	00 00                	add    BYTE PTR [rax],al
    6a26:	00 00                	add    BYTE PTR [rax],al
    6a28:	8a 4b 11             	mov    cl,BYTE PTR [rbx+0x11]
    6a2b:	00 00                	add    BYTE PTR [rax],al
    6a2d:	00 00                	add    BYTE PTR [rax],al
    6a2f:	00 94 4b 11 00 00 00 	add    BYTE PTR [rbx+rcx*2+0x11],dl
    6a36:	00 00                	add    BYTE PTR [rax],al
    6a38:	9e                   	sahf   
    6a39:	4b 11 00             	rex.WXB adc QWORD PTR [r8],rax
    6a3c:	00 00                	add    BYTE PTR [rax],al
    6a3e:	00 00                	add    BYTE PTR [rax],al
    6a40:	b2 4b                	mov    dl,0x4b
    6a42:	11 00                	adc    DWORD PTR [rax],eax
    6a44:	00 00                	add    BYTE PTR [rax],al
    6a46:	00 00                	add    BYTE PTR [rax],al
    6a48:	bc 4b 11 00 00       	mov    esp,0x114b
    6a4d:	00 00                	add    BYTE PTR [rax],al
    6a4f:	00 c6                	add    dh,al
    6a51:	4b 11 00             	rex.WXB adc QWORD PTR [r8],rax
    6a54:	00 00                	add    BYTE PTR [rax],al
    6a56:	00 00                	add    BYTE PTR [rax],al
    6a58:	ef                   	out    dx,eax
    6a59:	4c 11 00             	adc    QWORD PTR [rax],r8
    6a5c:	00 00                	add    BYTE PTR [rax],al
    6a5e:	00 00                	add    BYTE PTR [rax],al
    6a60:	f6 4c 11 00 00       	test   BYTE PTR [rcx+rdx*1+0x0],0x0
    6a65:	00 00                	add    BYTE PTR [rax],al
    6a67:	00 1c 4d 11 00 00 00 	add    BYTE PTR [rcx*2+0x11],bl
    6a6e:	00 00                	add    BYTE PTR [rax],al
    6a70:	1c 4d                	sbb    al,0x4d
    6a72:	11 00                	adc    DWORD PTR [rax],eax
    6a74:	00 00                	add    BYTE PTR [rax],al
    6a76:	00 00                	add    BYTE PTR [rax],al
    6a78:	c5 4c 11             	(bad)
    6a7b:	00 00                	add    BYTE PTR [rax],al
    6a7d:	00 00                	add    BYTE PTR [rax],al
    6a7f:	00 52 4c             	add    BYTE PTR [rdx+0x4c],dl
    6a82:	11 00                	adc    DWORD PTR [rax],eax
    6a84:	00 00                	add    BYTE PTR [rax],al
    6a86:	00 00                	add    BYTE PTR [rax],al
    6a88:	3e 4c 11 00          	adc    QWORD PTR ds:[rax],r8
    6a8c:	00 00                	add    BYTE PTR [rax],al
    6a8e:	00 00                	add    BYTE PTR [rax],al
    6a90:	6c                   	ins    BYTE PTR es:[rdi],dx
    6a91:	4b 11 00             	rex.WXB adc QWORD PTR [r8],rax
    6a94:	00 00                	add    BYTE PTR [rax],al
    6a96:	00 00                	add    BYTE PTR [rax],al
    6a98:	2a 4c 11 00          	sub    cl,BYTE PTR [rcx+rdx*1+0x0]
    6a9c:	00 00                	add    BYTE PTR [rax],al
    6a9e:	00 00                	add    BYTE PTR [rax],al
    6aa0:	62                   	(bad)  
    6aa1:	4b 11 00             	rex.WXB adc QWORD PTR [r8],rax
    6aa4:	00 00                	add    BYTE PTR [rax],al
    6aa6:	00 00                	add    BYTE PTR [rax],al
    6aa8:	da 4b 11             	fimul  DWORD PTR [rbx+0x11]
    6aab:	00 00                	add    BYTE PTR [rax],al
    6aad:	00 00                	add    BYTE PTR [rax],al
    6aaf:	00 d0                	add    al,dl
    6ab1:	4b 11 00             	rex.WXB adc QWORD PTR [r8],rax
    6ab4:	00 00                	add    BYTE PTR [rax],al
    6ab6:	00 00                	add    BYTE PTR [rax],al
    6ab8:	fd                   	std    
    6ab9:	4c 11 00             	adc    QWORD PTR [rax],r8
    6abc:	00 00                	add    BYTE PTR [rax],al
    6abe:	00 00                	add    BYTE PTR [rax],al
    6ac0:	04 4d                	add    al,0x4d
    6ac2:	11 00                	adc    DWORD PTR [rax],eax
    6ac4:	00 00                	add    BYTE PTR [rax],al
    6ac6:	00 00                	add    BYTE PTR [rax],al
    6ac8:	0b 4d 11             	or     ecx,DWORD PTR [rbp+0x11]
    6acb:	00 00                	add    BYTE PTR [rax],al
    6acd:	00 00                	add    BYTE PTR [rax],al
    6acf:	00 1c 4d 11 00 00 00 	add    BYTE PTR [rcx*2+0x11],bl
    6ad6:	00 00                	add    BYTE PTR [rax],al
    6ad8:	1c 4d                	sbb    al,0x4d
    6ada:	11 00                	adc    DWORD PTR [rax],eax
    6adc:	00 00                	add    BYTE PTR [rax],al
    6ade:	00 00                	add    BYTE PTR [rax],al
    6ae0:	1c 4d                	sbb    al,0x4d
    6ae2:	11 00                	adc    DWORD PTR [rax],eax
    6ae4:	00 00                	add    BYTE PTR [rax],al
    6ae6:	00 00                	add    BYTE PTR [rax],al
    6ae8:	d3 4c 11 00          	ror    DWORD PTR [rcx+rdx*1+0x0],cl
    6aec:	00 00                	add    BYTE PTR [rax],al
    6aee:	00 00                	add    BYTE PTR [rax],al
    6af0:	1c 4d                	sbb    al,0x4d
    6af2:	11 00                	adc    DWORD PTR [rax],eax
    6af4:	00 00                	add    BYTE PTR [rax],al
    6af6:	00 00                	add    BYTE PTR [rax],al
    6af8:	1c 4d                	sbb    al,0x4d
    6afa:	11 00                	adc    DWORD PTR [rax],eax
    6afc:	00 00                	add    BYTE PTR [rax],al
    6afe:	00 00                	add    BYTE PTR [rax],al
    6b00:	1c 4d                	sbb    al,0x4d
    6b02:	11 00                	adc    DWORD PTR [rax],eax
    6b04:	00 00                	add    BYTE PTR [rax],al
    6b06:	00 00                	add    BYTE PTR [rax],al
    6b08:	1c 4d                	sbb    al,0x4d
    6b0a:	11 00                	adc    DWORD PTR [rax],eax
    6b0c:	00 00                	add    BYTE PTR [rax],al
    6b0e:	00 00                	add    BYTE PTR [rax],al
    6b10:	1c 4d                	sbb    al,0x4d
    6b12:	11 00                	adc    DWORD PTR [rax],eax
    6b14:	00 00                	add    BYTE PTR [rax],al
    6b16:	00 00                	add    BYTE PTR [rax],al
    6b18:	1c 4d                	sbb    al,0x4d
    6b1a:	11 00                	adc    DWORD PTR [rax],eax
    6b1c:	00 00                	add    BYTE PTR [rax],al
    6b1e:	00 00                	add    BYTE PTR [rax],al
    6b20:	1c 4d                	sbb    al,0x4d
    6b22:	11 00                	adc    DWORD PTR [rax],eax
    6b24:	00 00                	add    BYTE PTR [rax],al
    6b26:	00 00                	add    BYTE PTR [rax],al
    6b28:	1c 4d                	sbb    al,0x4d
    6b2a:	11 00                	adc    DWORD PTR [rax],eax
    6b2c:	00 00                	add    BYTE PTR [rax],al
    6b2e:	00 00                	add    BYTE PTR [rax],al
    6b30:	1c 4d                	sbb    al,0x4d
    6b32:	11 00                	adc    DWORD PTR [rax],eax
    6b34:	00 00                	add    BYTE PTR [rax],al
    6b36:	00 00                	add    BYTE PTR [rax],al
    6b38:	1c 4d                	sbb    al,0x4d
    6b3a:	11 00                	adc    DWORD PTR [rax],eax
    6b3c:	00 00                	add    BYTE PTR [rax],al
    6b3e:	00 00                	add    BYTE PTR [rax],al
    6b40:	1c 4d                	sbb    al,0x4d
    6b42:	11 00                	adc    DWORD PTR [rax],eax
    6b44:	00 00                	add    BYTE PTR [rax],al
    6b46:	00 00                	add    BYTE PTR [rax],al
    6b48:	1c 4d                	sbb    al,0x4d
    6b4a:	11 00                	adc    DWORD PTR [rax],eax
    6b4c:	00 00                	add    BYTE PTR [rax],al
    6b4e:	00 00                	add    BYTE PTR [rax],al
    6b50:	1c 4d                	sbb    al,0x4d
    6b52:	11 00                	adc    DWORD PTR [rax],eax
    6b54:	00 00                	add    BYTE PTR [rax],al
    6b56:	00 00                	add    BYTE PTR [rax],al
    6b58:	1c 4d                	sbb    al,0x4d
    6b5a:	11 00                	adc    DWORD PTR [rax],eax
    6b5c:	00 00                	add    BYTE PTR [rax],al
    6b5e:	00 00                	add    BYTE PTR [rax],al
    6b60:	1c 4d                	sbb    al,0x4d
    6b62:	11 00                	adc    DWORD PTR [rax],eax
    6b64:	00 00                	add    BYTE PTR [rax],al
    6b66:	00 00                	add    BYTE PTR [rax],al
    6b68:	1c 4d                	sbb    al,0x4d
    6b6a:	11 00                	adc    DWORD PTR [rax],eax
    6b6c:	00 00                	add    BYTE PTR [rax],al
    6b6e:	00 00                	add    BYTE PTR [rax],al
    6b70:	1c 4d                	sbb    al,0x4d
    6b72:	11 00                	adc    DWORD PTR [rax],eax
    6b74:	00 00                	add    BYTE PTR [rax],al
    6b76:	00 00                	add    BYTE PTR [rax],al
    6b78:	1c 4d                	sbb    al,0x4d
    6b7a:	11 00                	adc    DWORD PTR [rax],eax
    6b7c:	00 00                	add    BYTE PTR [rax],al
    6b7e:	00 00                	add    BYTE PTR [rax],al
    6b80:	1c 4d                	sbb    al,0x4d
    6b82:	11 00                	adc    DWORD PTR [rax],eax
    6b84:	00 00                	add    BYTE PTR [rax],al
    6b86:	00 00                	add    BYTE PTR [rax],al
    6b88:	1c 4d                	sbb    al,0x4d
    6b8a:	11 00                	adc    DWORD PTR [rax],eax
    6b8c:	00 00                	add    BYTE PTR [rax],al
    6b8e:	00 00                	add    BYTE PTR [rax],al
    6b90:	1c 4d                	sbb    al,0x4d
    6b92:	11 00                	adc    DWORD PTR [rax],eax
    6b94:	00 00                	add    BYTE PTR [rax],al
    6b96:	00 00                	add    BYTE PTR [rax],al
    6b98:	1c 4d                	sbb    al,0x4d
    6b9a:	11 00                	adc    DWORD PTR [rax],eax
    6b9c:	00 00                	add    BYTE PTR [rax],al
    6b9e:	00 00                	add    BYTE PTR [rax],al
    6ba0:	1c 4d                	sbb    al,0x4d
    6ba2:	11 00                	adc    DWORD PTR [rax],eax
    6ba4:	00 00                	add    BYTE PTR [rax],al
    6ba6:	00 00                	add    BYTE PTR [rax],al
    6ba8:	1c 4d                	sbb    al,0x4d
    6baa:	11 00                	adc    DWORD PTR [rax],eax
    6bac:	00 00                	add    BYTE PTR [rax],al
    6bae:	00 00                	add    BYTE PTR [rax],al
    6bb0:	1c 4d                	sbb    al,0x4d
    6bb2:	11 00                	adc    DWORD PTR [rax],eax
    6bb4:	00 00                	add    BYTE PTR [rax],al
    6bb6:	00 00                	add    BYTE PTR [rax],al
    6bb8:	1c 4d                	sbb    al,0x4d
    6bba:	11 00                	adc    DWORD PTR [rax],eax
    6bbc:	00 00                	add    BYTE PTR [rax],al
    6bbe:	00 00                	add    BYTE PTR [rax],al
    6bc0:	1c 4d                	sbb    al,0x4d
    6bc2:	11 00                	adc    DWORD PTR [rax],eax
    6bc4:	00 00                	add    BYTE PTR [rax],al
    6bc6:	00 00                	add    BYTE PTR [rax],al
    6bc8:	1c 4d                	sbb    al,0x4d
    6bca:	11 00                	adc    DWORD PTR [rax],eax
    6bcc:	00 00                	add    BYTE PTR [rax],al
    6bce:	00 00                	add    BYTE PTR [rax],al
    6bd0:	1c 4d                	sbb    al,0x4d
    6bd2:	11 00                	adc    DWORD PTR [rax],eax
    6bd4:	00 00                	add    BYTE PTR [rax],al
    6bd6:	00 00                	add    BYTE PTR [rax],al
    6bd8:	1c 4d                	sbb    al,0x4d
    6bda:	11 00                	adc    DWORD PTR [rax],eax
    6bdc:	00 00                	add    BYTE PTR [rax],al
    6bde:	00 00                	add    BYTE PTR [rax],al
    6be0:	1c 4d                	sbb    al,0x4d
    6be2:	11 00                	adc    DWORD PTR [rax],eax
    6be4:	00 00                	add    BYTE PTR [rax],al
    6be6:	00 00                	add    BYTE PTR [rax],al
    6be8:	1c 4d                	sbb    al,0x4d
    6bea:	11 00                	adc    DWORD PTR [rax],eax
    6bec:	00 00                	add    BYTE PTR [rax],al
    6bee:	00 00                	add    BYTE PTR [rax],al
    6bf0:	1c 4d                	sbb    al,0x4d
    6bf2:	11 00                	adc    DWORD PTR [rax],eax
    6bf4:	00 00                	add    BYTE PTR [rax],al
    6bf6:	00 00                	add    BYTE PTR [rax],al
    6bf8:	1c 4d                	sbb    al,0x4d
    6bfa:	11 00                	adc    DWORD PTR [rax],eax
    6bfc:	00 00                	add    BYTE PTR [rax],al
    6bfe:	00 00                	add    BYTE PTR [rax],al
    6c00:	1c 4d                	sbb    al,0x4d
    6c02:	11 00                	adc    DWORD PTR [rax],eax
    6c04:	00 00                	add    BYTE PTR [rax],al
    6c06:	00 00                	add    BYTE PTR [rax],al
    6c08:	1c 4d                	sbb    al,0x4d
    6c0a:	11 00                	adc    DWORD PTR [rax],eax
    6c0c:	00 00                	add    BYTE PTR [rax],al
    6c0e:	00 00                	add    BYTE PTR [rax],al
    6c10:	1c 4d                	sbb    al,0x4d
    6c12:	11 00                	adc    DWORD PTR [rax],eax
    6c14:	00 00                	add    BYTE PTR [rax],al
    6c16:	00 00                	add    BYTE PTR [rax],al
    6c18:	1c 4d                	sbb    al,0x4d
    6c1a:	11 00                	adc    DWORD PTR [rax],eax
    6c1c:	00 00                	add    BYTE PTR [rax],al
    6c1e:	00 00                	add    BYTE PTR [rax],al
    6c20:	1c 4d                	sbb    al,0x4d
    6c22:	11 00                	adc    DWORD PTR [rax],eax
    6c24:	00 00                	add    BYTE PTR [rax],al
    6c26:	00 00                	add    BYTE PTR [rax],al
    6c28:	1c 4d                	sbb    al,0x4d
    6c2a:	11 00                	adc    DWORD PTR [rax],eax
    6c2c:	00 00                	add    BYTE PTR [rax],al
    6c2e:	00 00                	add    BYTE PTR [rax],al
    6c30:	1c 4d                	sbb    al,0x4d
    6c32:	11 00                	adc    DWORD PTR [rax],eax
    6c34:	00 00                	add    BYTE PTR [rax],al
    6c36:	00 00                	add    BYTE PTR [rax],al
    6c38:	1c 4d                	sbb    al,0x4d
    6c3a:	11 00                	adc    DWORD PTR [rax],eax
    6c3c:	00 00                	add    BYTE PTR [rax],al
    6c3e:	00 00                	add    BYTE PTR [rax],al
    6c40:	1c 4d                	sbb    al,0x4d
    6c42:	11 00                	adc    DWORD PTR [rax],eax
    6c44:	00 00                	add    BYTE PTR [rax],al
    6c46:	00 00                	add    BYTE PTR [rax],al
    6c48:	1c 4d                	sbb    al,0x4d
    6c4a:	11 00                	adc    DWORD PTR [rax],eax
    6c4c:	00 00                	add    BYTE PTR [rax],al
    6c4e:	00 00                	add    BYTE PTR [rax],al
    6c50:	1c 4d                	sbb    al,0x4d
    6c52:	11 00                	adc    DWORD PTR [rax],eax
    6c54:	00 00                	add    BYTE PTR [rax],al
    6c56:	00 00                	add    BYTE PTR [rax],al
    6c58:	1c 4d                	sbb    al,0x4d
    6c5a:	11 00                	adc    DWORD PTR [rax],eax
    6c5c:	00 00                	add    BYTE PTR [rax],al
    6c5e:	00 00                	add    BYTE PTR [rax],al
    6c60:	1c 4d                	sbb    al,0x4d
    6c62:	11 00                	adc    DWORD PTR [rax],eax
    6c64:	00 00                	add    BYTE PTR [rax],al
    6c66:	00 00                	add    BYTE PTR [rax],al
    6c68:	1c 4d                	sbb    al,0x4d
    6c6a:	11 00                	adc    DWORD PTR [rax],eax
    6c6c:	00 00                	add    BYTE PTR [rax],al
    6c6e:	00 00                	add    BYTE PTR [rax],al
    6c70:	1c 4d                	sbb    al,0x4d
    6c72:	11 00                	adc    DWORD PTR [rax],eax
    6c74:	00 00                	add    BYTE PTR [rax],al
    6c76:	00 00                	add    BYTE PTR [rax],al
    6c78:	1c 4d                	sbb    al,0x4d
    6c7a:	11 00                	adc    DWORD PTR [rax],eax
    6c7c:	00 00                	add    BYTE PTR [rax],al
    6c7e:	00 00                	add    BYTE PTR [rax],al
    6c80:	1c 4d                	sbb    al,0x4d
    6c82:	11 00                	adc    DWORD PTR [rax],eax
    6c84:	00 00                	add    BYTE PTR [rax],al
    6c86:	00 00                	add    BYTE PTR [rax],al
    6c88:	1c 4d                	sbb    al,0x4d
    6c8a:	11 00                	adc    DWORD PTR [rax],eax
    6c8c:	00 00                	add    BYTE PTR [rax],al
    6c8e:	00 00                	add    BYTE PTR [rax],al
    6c90:	1c 4d                	sbb    al,0x4d
    6c92:	11 00                	adc    DWORD PTR [rax],eax
    6c94:	00 00                	add    BYTE PTR [rax],al
    6c96:	00 00                	add    BYTE PTR [rax],al
    6c98:	1c 4d                	sbb    al,0x4d
    6c9a:	11 00                	adc    DWORD PTR [rax],eax
    6c9c:	00 00                	add    BYTE PTR [rax],al
    6c9e:	00 00                	add    BYTE PTR [rax],al
    6ca0:	1c 4d                	sbb    al,0x4d
    6ca2:	11 00                	adc    DWORD PTR [rax],eax
    6ca4:	00 00                	add    BYTE PTR [rax],al
    6ca6:	00 00                	add    BYTE PTR [rax],al
    6ca8:	1c 4d                	sbb    al,0x4d
    6caa:	11 00                	adc    DWORD PTR [rax],eax
    6cac:	00 00                	add    BYTE PTR [rax],al
    6cae:	00 00                	add    BYTE PTR [rax],al
    6cb0:	1c 4d                	sbb    al,0x4d
    6cb2:	11 00                	adc    DWORD PTR [rax],eax
    6cb4:	00 00                	add    BYTE PTR [rax],al
    6cb6:	00 00                	add    BYTE PTR [rax],al
    6cb8:	12 4d 11             	adc    cl,BYTE PTR [rbp+0x11]
    6cbb:	00 00                	add    BYTE PTR [rax],al
    6cbd:	00 00                	add    BYTE PTR [rax],al
    6cbf:	00 1c 4d 11 00 00 00 	add    BYTE PTR [rcx*2+0x11],bl
    6cc6:	00 00                	add    BYTE PTR [rax],al
    6cc8:	1c 4d                	sbb    al,0x4d
    6cca:	11 00                	adc    DWORD PTR [rax],eax
    6ccc:	00 00                	add    BYTE PTR [rax],al
    6cce:	00 00                	add    BYTE PTR [rax],al
    6cd0:	1c 4d                	sbb    al,0x4d
    6cd2:	11 00                	adc    DWORD PTR [rax],eax
    6cd4:	00 00                	add    BYTE PTR [rax],al
    6cd6:	00 00                	add    BYTE PTR [rax],al
    6cd8:	1c 4d                	sbb    al,0x4d
    6cda:	11 00                	adc    DWORD PTR [rax],eax
    6cdc:	00 00                	add    BYTE PTR [rax],al
    6cde:	00 00                	add    BYTE PTR [rax],al
    6ce0:	1c 4d                	sbb    al,0x4d
    6ce2:	11 00                	adc    DWORD PTR [rax],eax
    6ce4:	00 00                	add    BYTE PTR [rax],al
    6ce6:	00 00                	add    BYTE PTR [rax],al
    6ce8:	1c 4d                	sbb    al,0x4d
    6cea:	11 00                	adc    DWORD PTR [rax],eax
    6cec:	00 00                	add    BYTE PTR [rax],al
    6cee:	00 00                	add    BYTE PTR [rax],al
    6cf0:	1c 4d                	sbb    al,0x4d
    6cf2:	11 00                	adc    DWORD PTR [rax],eax
    6cf4:	00 00                	add    BYTE PTR [rax],al
    6cf6:	00 00                	add    BYTE PTR [rax],al
    6cf8:	1c 4d                	sbb    al,0x4d
    6cfa:	11 00                	adc    DWORD PTR [rax],eax
    6cfc:	00 00                	add    BYTE PTR [rax],al
    6cfe:	00 00                	add    BYTE PTR [rax],al
    6d00:	1c 4d                	sbb    al,0x4d
    6d02:	11 00                	adc    DWORD PTR [rax],eax
    6d04:	00 00                	add    BYTE PTR [rax],al
    6d06:	00 00                	add    BYTE PTR [rax],al
    6d08:	be 4c 11 00 00       	mov    esi,0x114c
    6d0d:	00 00                	add    BYTE PTR [rax],al
    6d0f:	00 6f 51             	add    BYTE PTR [rdi+0x51],ch
    6d12:	11 00                	adc    DWORD PTR [rax],eax
    6d14:	00 00                	add    BYTE PTR [rax],al
    6d16:	00 00                	add    BYTE PTR [rax],al
    6d18:	6f                   	outs   dx,DWORD PTR ds:[rsi]
    6d19:	51                   	push   rcx
    6d1a:	11 00                	adc    DWORD PTR [rax],eax
    6d1c:	00 00                	add    BYTE PTR [rax],al
    6d1e:	00 00                	add    BYTE PTR [rax],al
    6d20:	a5                   	movs   DWORD PTR es:[rdi],DWORD PTR ds:[rsi]
    6d21:	4e 11 00             	rex.WRX adc QWORD PTR [rax],r8
    6d24:	00 00                	add    BYTE PTR [rax],al
    6d26:	00 00                	add    BYTE PTR [rax],al
    6d28:	af                   	scas   eax,DWORD PTR es:[rdi]
    6d29:	4e 11 00             	rex.WRX adc QWORD PTR [rax],r8
    6d2c:	00 00                	add    BYTE PTR [rax],al
    6d2e:	00 00                	add    BYTE PTR [rax],al
    6d30:	b9 4e 11 00 00       	mov    ecx,0x114e
    6d35:	00 00                	add    BYTE PTR [rax],al
    6d37:	00 c3                	add    bl,al
    6d39:	4e 11 00             	rex.WRX adc QWORD PTR [rax],r8
    6d3c:	00 00                	add    BYTE PTR [rax],al
    6d3e:	00 00                	add    BYTE PTR [rax],al
    6d40:	cd 4e                	int    0x4e
    6d42:	11 00                	adc    DWORD PTR [rax],eax
    6d44:	00 00                	add    BYTE PTR [rax],al
    6d46:	00 00                	add    BYTE PTR [rax],al
    6d48:	d7                   	xlat   BYTE PTR ds:[rbx]
    6d49:	4e 11 00             	rex.WRX adc QWORD PTR [rax],r8
    6d4c:	00 00                	add    BYTE PTR [rax],al
    6d4e:	00 00                	add    BYTE PTR [rax],al
    6d50:	e1 4e                	loope  0x6da0
    6d52:	11 00                	adc    DWORD PTR [rax],eax
    6d54:	00 00                	add    BYTE PTR [rax],al
    6d56:	00 00                	add    BYTE PTR [rax],al
    6d58:	eb 4e                	jmp    0x6da8
    6d5a:	11 00                	adc    DWORD PTR [rax],eax
    6d5c:	00 00                	add    BYTE PTR [rax],al
    6d5e:	00 00                	add    BYTE PTR [rax],al
    6d60:	f5                   	cmc    
    6d61:	4e 11 00             	rex.WRX adc QWORD PTR [rax],r8
    6d64:	00 00                	add    BYTE PTR [rax],al
    6d66:	00 00                	add    BYTE PTR [rax],al
    6d68:	9b                   	fwait
    6d69:	4e 11 00             	rex.WRX adc QWORD PTR [rax],r8
    6d6c:	00 00                	add    BYTE PTR [rax],al
    6d6e:	00 00                	add    BYTE PTR [rax],al
    6d70:	ff 4e 11             	dec    DWORD PTR [rsi+0x11]
    6d73:	00 00                	add    BYTE PTR [rax],al
    6d75:	00 00                	add    BYTE PTR [rax],al
    6d77:	00 09                	add    BYTE PTR [rcx],cl
    6d79:	4f 11 00             	rex.WRXB adc QWORD PTR [r8],r8
    6d7c:	00 00                	add    BYTE PTR [rax],al
    6d7e:	00 00                	add    BYTE PTR [rax],al
    6d80:	27                   	(bad)  
    6d81:	4f 11 00             	rex.WRXB adc QWORD PTR [r8],r8
    6d84:	00 00                	add    BYTE PTR [rax],al
    6d86:	00 00                	add    BYTE PTR [rax],al
    6d88:	6f                   	outs   dx,DWORD PTR ds:[rsi]
    6d89:	51                   	push   rcx
    6d8a:	11 00                	adc    DWORD PTR [rax],eax
    6d8c:	00 00                	add    BYTE PTR [rax],al
    6d8e:	00 00                	add    BYTE PTR [rax],al
    6d90:	37                   	(bad)  
    6d91:	4e 11 00             	rex.WRX adc QWORD PTR [rax],r8
    6d94:	00 00                	add    BYTE PTR [rax],al
    6d96:	00 00                	add    BYTE PTR [rax],al
    6d98:	73 4e                	jae    0x6de8
    6d9a:	11 00                	adc    DWORD PTR [rax],eax
    6d9c:	00 00                	add    BYTE PTR [rax],al
    6d9e:	00 00                	add    BYTE PTR [rax],al
    6da0:	bf 4d 11 00 00       	mov    edi,0x114d
    6da5:	00 00                	add    BYTE PTR [rax],al
    6da7:	00 41 4e             	add    BYTE PTR [rcx+0x4e],al
    6daa:	11 00                	adc    DWORD PTR [rax],eax
    6dac:	00 00                	add    BYTE PTR [rax],al
    6dae:	00 00                	add    BYTE PTR [rax],al
    6db0:	55                   	push   rbp
    6db1:	4e 11 00             	rex.WRX adc QWORD PTR [rax],r8
    6db4:	00 00                	add    BYTE PTR [rax],al
    6db6:	00 00                	add    BYTE PTR [rax],al
    6db8:	87 4e 11             	xchg   DWORD PTR [rsi+0x11],ecx
    6dbb:	00 00                	add    BYTE PTR [rax],al
    6dbd:	00 00                	add    BYTE PTR [rax],al
    6dbf:	00 5f 4e             	add    BYTE PTR [rdi+0x4e],bl
    6dc2:	11 00                	adc    DWORD PTR [rax],eax
    6dc4:	00 00                	add    BYTE PTR [rax],al
    6dc6:	00 00                	add    BYTE PTR [rax],al
    6dc8:	e7 4d                	out    0x4d,eax
    6dca:	11 00                	adc    DWORD PTR [rax],eax
    6dcc:	00 00                	add    BYTE PTR [rax],al
    6dce:	00 00                	add    BYTE PTR [rax],al
    6dd0:	23 4e 11             	and    ecx,DWORD PTR [rsi+0x11]
    6dd3:	00 00                	add    BYTE PTR [rax],al
    6dd5:	00 00                	add    BYTE PTR [rax],al
    6dd7:	00 2d 4e 11 00 00    	add    BYTE PTR [rip+0x114e],ch        # 0x7f2b
    6ddd:	00 00                	add    BYTE PTR [rax],al
    6ddf:	00 45 4f             	add    BYTE PTR [rbp+0x4f],al
    6de2:	11 00                	adc    DWORD PTR [rax],eax
    6de4:	00 00                	add    BYTE PTR [rax],al
    6de6:	00 00                	add    BYTE PTR [rax],al
    6de8:	4f                   	rex.WRXB
    6de9:	4f 11 00             	rex.WRXB adc QWORD PTR [r8],r8
    6dec:	00 00                	add    BYTE PTR [rax],al
    6dee:	00 00                	add    BYTE PTR [rax],al
    6df0:	3b 4f 11             	cmp    ecx,DWORD PTR [rdi+0x11]
    6df3:	00 00                	add    BYTE PTR [rax],al
    6df5:	00 00                	add    BYTE PTR [rax],al
    6df7:	00 6f 51             	add    BYTE PTR [rdi+0x51],ch
    6dfa:	11 00                	adc    DWORD PTR [rax],eax
    6dfc:	00 00                	add    BYTE PTR [rax],al
    6dfe:	00 00                	add    BYTE PTR [rax],al
    6e00:	97                   	xchg   edi,eax
    6e01:	4d 11 00             	adc    QWORD PTR [r8],r8
    6e04:	00 00                	add    BYTE PTR [rax],al
    6e06:	00 00                	add    BYTE PTR [rax],al
    6e08:	4b                   	rex.WXB
    6e09:	4e 11 00             	rex.WRX adc QWORD PTR [rax],r8
    6e0c:	00 00                	add    BYTE PTR [rax],al
    6e0e:	00 00                	add    BYTE PTR [rax],al
    6e10:	b5 4d                	mov    ch,0x4d
    6e12:	11 00                	adc    DWORD PTR [rax],eax
    6e14:	00 00                	add    BYTE PTR [rax],al
    6e16:	00 00                	add    BYTE PTR [rax],al
    6e18:	c9                   	leave  
    6e19:	4d 11 00             	adc    QWORD PTR [r8],r8
    6e1c:	00 00                	add    BYTE PTR [rax],al
    6e1e:	00 00                	add    BYTE PTR [rax],al
    6e20:	d3 4d 11             	ror    DWORD PTR [rbp+0x11],cl
    6e23:	00 00                	add    BYTE PTR [rax],al
    6e25:	00 00                	add    BYTE PTR [rax],al
    6e27:	00 dd                	add    ch,bl
    6e29:	4d 11 00             	adc    QWORD PTR [r8],r8
    6e2c:	00 00                	add    BYTE PTR [rax],al
    6e2e:	00 00                	add    BYTE PTR [rax],al
    6e30:	f1                   	icebp  
    6e31:	4d 11 00             	adc    QWORD PTR [r8],r8
    6e34:	00 00                	add    BYTE PTR [rax],al
    6e36:	00 00                	add    BYTE PTR [rax],al
    6e38:	fb                   	sti    
    6e39:	4d 11 00             	adc    QWORD PTR [r8],r8
    6e3c:	00 00                	add    BYTE PTR [rax],al
    6e3e:	00 00                	add    BYTE PTR [rax],al
    6e40:	05 4e 11 00 00       	add    eax,0x114e
    6e45:	00 00                	add    BYTE PTR [rax],al
    6e47:	00 59 4f             	add    BYTE PTR [rcx+0x4f],bl
    6e4a:	11 00                	adc    DWORD PTR [rax],eax
    6e4c:	00 00                	add    BYTE PTR [rax],al
    6e4e:	00 00                	add    BYTE PTR [rax],al
    6e50:	63 4f 11             	movsxd ecx,DWORD PTR [rdi+0x11]
    6e53:	00 00                	add    BYTE PTR [rax],al
    6e55:	00 00                	add    BYTE PTR [rax],al
    6e57:	00 6f 51             	add    BYTE PTR [rdi+0x51],ch
    6e5a:	11 00                	adc    DWORD PTR [rax],eax
    6e5c:	00 00                	add    BYTE PTR [rax],al
    6e5e:	00 00                	add    BYTE PTR [rax],al
    6e60:	6f                   	outs   dx,DWORD PTR ds:[rsi]
    6e61:	51                   	push   rcx
    6e62:	11 00                	adc    DWORD PTR [rax],eax
    6e64:	00 00                	add    BYTE PTR [rax],al
    6e66:	00 00                	add    BYTE PTR [rax],al
    6e68:	1d 4f 11 00 00       	sbb    eax,0x114f
    6e6d:	00 00                	add    BYTE PTR [rax],al
    6e6f:	00 91 4e 11 00 00    	add    BYTE PTR [rcx+0x114e],dl
    6e75:	00 00                	add    BYTE PTR [rax],al
    6e77:	00 7d 4e             	add    BYTE PTR [rbp+0x4e],bh
    6e7a:	11 00                	adc    DWORD PTR [rax],eax
    6e7c:	00 00                	add    BYTE PTR [rax],al
    6e7e:	00 00                	add    BYTE PTR [rax],al
    6e80:	ab                   	stos   DWORD PTR es:[rdi],eax
    6e81:	4d 11 00             	adc    QWORD PTR [r8],r8
    6e84:	00 00                	add    BYTE PTR [rax],al
    6e86:	00 00                	add    BYTE PTR [rax],al
    6e88:	69 4e 11 00 00 00 00 	imul   ecx,DWORD PTR [rsi+0x11],0x0
    6e8f:	00 a1 4d 11 00 00    	add    BYTE PTR [rcx+0x114d],ah
    6e95:	00 00                	add    BYTE PTR [rax],al
    6e97:	00 19                	add    BYTE PTR [rcx],bl
    6e99:	4e 11 00             	rex.WRX adc QWORD PTR [rax],r8
    6e9c:	00 00                	add    BYTE PTR [rax],al
    6e9e:	00 00                	add    BYTE PTR [rax],al
    6ea0:	0f 4e 11             	cmovle edx,DWORD PTR [rcx]
    6ea3:	00 00                	add    BYTE PTR [rax],al
    6ea5:	00 00                	add    BYTE PTR [rax],al
    6ea7:	00 6d 4f             	add    BYTE PTR [rbp+0x4f],ch
    6eaa:	11 00                	adc    DWORD PTR [rax],eax
    6eac:	00 00                	add    BYTE PTR [rax],al
    6eae:	00 00                	add    BYTE PTR [rax],al
    6eb0:	77 4f                	ja     0x6f01
    6eb2:	11 00                	adc    DWORD PTR [rax],eax
    6eb4:	00 00                	add    BYTE PTR [rax],al
    6eb6:	00 00                	add    BYTE PTR [rax],al
    6eb8:	81 4f 11 00 00 00 00 	or     DWORD PTR [rdi+0x11],0x0
    6ebf:	00 6f 51             	add    BYTE PTR [rdi+0x51],ch
    6ec2:	11 00                	adc    DWORD PTR [rax],eax
    6ec4:	00 00                	add    BYTE PTR [rax],al
    6ec6:	00 00                	add    BYTE PTR [rax],al
    6ec8:	6f                   	outs   dx,DWORD PTR ds:[rsi]
    6ec9:	51                   	push   rcx
    6eca:	11 00                	adc    DWORD PTR [rax],eax
    6ecc:	00 00                	add    BYTE PTR [rax],al
    6ece:	00 00                	add    BYTE PTR [rax],al
    6ed0:	6f                   	outs   dx,DWORD PTR ds:[rsi]
    6ed1:	51                   	push   rcx
    6ed2:	11 00                	adc    DWORD PTR [rax],eax
    6ed4:	00 00                	add    BYTE PTR [rax],al
    6ed6:	00 00                	add    BYTE PTR [rax],al
    6ed8:	31 4f 11             	xor    DWORD PTR [rdi+0x11],ecx
    6edb:	00 00                	add    BYTE PTR [rax],al
    6edd:	00 00                	add    BYTE PTR [rax],al
    6edf:	00 6f 51             	add    BYTE PTR [rdi+0x51],ch
    6ee2:	11 00                	adc    DWORD PTR [rax],eax
    6ee4:	00 00                	add    BYTE PTR [rax],al
    6ee6:	00 00                	add    BYTE PTR [rax],al
    6ee8:	6f                   	outs   dx,DWORD PTR ds:[rsi]
    6ee9:	51                   	push   rcx
    6eea:	11 00                	adc    DWORD PTR [rax],eax
    6eec:	00 00                	add    BYTE PTR [rax],al
    6eee:	00 00                	add    BYTE PTR [rax],al
    6ef0:	6f                   	outs   dx,DWORD PTR ds:[rsi]
    6ef1:	51                   	push   rcx
    6ef2:	11 00                	adc    DWORD PTR [rax],eax
    6ef4:	00 00                	add    BYTE PTR [rax],al
    6ef6:	00 00                	add    BYTE PTR [rax],al
    6ef8:	6f                   	outs   dx,DWORD PTR ds:[rsi]
    6ef9:	51                   	push   rcx
    6efa:	11 00                	adc    DWORD PTR [rax],eax
    6efc:	00 00                	add    BYTE PTR [rax],al
    6efe:	00 00                	add    BYTE PTR [rax],al
    6f00:	6f                   	outs   dx,DWORD PTR ds:[rsi]
    6f01:	51                   	push   rcx
    6f02:	11 00                	adc    DWORD PTR [rax],eax
    6f04:	00 00                	add    BYTE PTR [rax],al
    6f06:	00 00                	add    BYTE PTR [rax],al
    6f08:	6f                   	outs   dx,DWORD PTR ds:[rsi]
    6f09:	51                   	push   rcx
    6f0a:	11 00                	adc    DWORD PTR [rax],eax
    6f0c:	00 00                	add    BYTE PTR [rax],al
    6f0e:	00 00                	add    BYTE PTR [rax],al
    6f10:	6f                   	outs   dx,DWORD PTR ds:[rsi]
    6f11:	51                   	push   rcx
    6f12:	11 00                	adc    DWORD PTR [rax],eax
    6f14:	00 00                	add    BYTE PTR [rax],al
    6f16:	00 00                	add    BYTE PTR [rax],al
    6f18:	6f                   	outs   dx,DWORD PTR ds:[rsi]
    6f19:	51                   	push   rcx
    6f1a:	11 00                	adc    DWORD PTR [rax],eax
    6f1c:	00 00                	add    BYTE PTR [rax],al
    6f1e:	00 00                	add    BYTE PTR [rax],al
    6f20:	6f                   	outs   dx,DWORD PTR ds:[rsi]
    6f21:	51                   	push   rcx
    6f22:	11 00                	adc    DWORD PTR [rax],eax
    6f24:	00 00                	add    BYTE PTR [rax],al
    6f26:	00 00                	add    BYTE PTR [rax],al
    6f28:	6f                   	outs   dx,DWORD PTR ds:[rsi]
    6f29:	51                   	push   rcx
    6f2a:	11 00                	adc    DWORD PTR [rax],eax
    6f2c:	00 00                	add    BYTE PTR [rax],al
    6f2e:	00 00                	add    BYTE PTR [rax],al
    6f30:	6f                   	outs   dx,DWORD PTR ds:[rsi]
    6f31:	51                   	push   rcx
    6f32:	11 00                	adc    DWORD PTR [rax],eax
    6f34:	00 00                	add    BYTE PTR [rax],al
    6f36:	00 00                	add    BYTE PTR [rax],al
    6f38:	6f                   	outs   dx,DWORD PTR ds:[rsi]
    6f39:	51                   	push   rcx
    6f3a:	11 00                	adc    DWORD PTR [rax],eax
    6f3c:	00 00                	add    BYTE PTR [rax],al
    6f3e:	00 00                	add    BYTE PTR [rax],al
    6f40:	6f                   	outs   dx,DWORD PTR ds:[rsi]
    6f41:	51                   	push   rcx
    6f42:	11 00                	adc    DWORD PTR [rax],eax
    6f44:	00 00                	add    BYTE PTR [rax],al
    6f46:	00 00                	add    BYTE PTR [rax],al
    6f48:	6f                   	outs   dx,DWORD PTR ds:[rsi]
    6f49:	51                   	push   rcx
    6f4a:	11 00                	adc    DWORD PTR [rax],eax
    6f4c:	00 00                	add    BYTE PTR [rax],al
    6f4e:	00 00                	add    BYTE PTR [rax],al
    6f50:	6f                   	outs   dx,DWORD PTR ds:[rsi]
    6f51:	51                   	push   rcx
    6f52:	11 00                	adc    DWORD PTR [rax],eax
    6f54:	00 00                	add    BYTE PTR [rax],al
    6f56:	00 00                	add    BYTE PTR [rax],al
    6f58:	6f                   	outs   dx,DWORD PTR ds:[rsi]
    6f59:	51                   	push   rcx
    6f5a:	11 00                	adc    DWORD PTR [rax],eax
    6f5c:	00 00                	add    BYTE PTR [rax],al
    6f5e:	00 00                	add    BYTE PTR [rax],al
    6f60:	6f                   	outs   dx,DWORD PTR ds:[rsi]
    6f61:	51                   	push   rcx
    6f62:	11 00                	adc    DWORD PTR [rax],eax
    6f64:	00 00                	add    BYTE PTR [rax],al
    6f66:	00 00                	add    BYTE PTR [rax],al
    6f68:	6f                   	outs   dx,DWORD PTR ds:[rsi]
    6f69:	51                   	push   rcx
    6f6a:	11 00                	adc    DWORD PTR [rax],eax
    6f6c:	00 00                	add    BYTE PTR [rax],al
    6f6e:	00 00                	add    BYTE PTR [rax],al
    6f70:	6f                   	outs   dx,DWORD PTR ds:[rsi]
    6f71:	51                   	push   rcx
    6f72:	11 00                	adc    DWORD PTR [rax],eax
    6f74:	00 00                	add    BYTE PTR [rax],al
    6f76:	00 00                	add    BYTE PTR [rax],al
    6f78:	6f                   	outs   dx,DWORD PTR ds:[rsi]
    6f79:	51                   	push   rcx
    6f7a:	11 00                	adc    DWORD PTR [rax],eax
    6f7c:	00 00                	add    BYTE PTR [rax],al
    6f7e:	00 00                	add    BYTE PTR [rax],al
    6f80:	6f                   	outs   dx,DWORD PTR ds:[rsi]
    6f81:	51                   	push   rcx
    6f82:	11 00                	adc    DWORD PTR [rax],eax
    6f84:	00 00                	add    BYTE PTR [rax],al
    6f86:	00 00                	add    BYTE PTR [rax],al
    6f88:	6f                   	outs   dx,DWORD PTR ds:[rsi]
    6f89:	51                   	push   rcx
    6f8a:	11 00                	adc    DWORD PTR [rax],eax
    6f8c:	00 00                	add    BYTE PTR [rax],al
    6f8e:	00 00                	add    BYTE PTR [rax],al
    6f90:	6f                   	outs   dx,DWORD PTR ds:[rsi]
    6f91:	51                   	push   rcx
    6f92:	11 00                	adc    DWORD PTR [rax],eax
    6f94:	00 00                	add    BYTE PTR [rax],al
    6f96:	00 00                	add    BYTE PTR [rax],al
    6f98:	6f                   	outs   dx,DWORD PTR ds:[rsi]
    6f99:	51                   	push   rcx
    6f9a:	11 00                	adc    DWORD PTR [rax],eax
    6f9c:	00 00                	add    BYTE PTR [rax],al
    6f9e:	00 00                	add    BYTE PTR [rax],al
    6fa0:	6f                   	outs   dx,DWORD PTR ds:[rsi]
    6fa1:	51                   	push   rcx
    6fa2:	11 00                	adc    DWORD PTR [rax],eax
    6fa4:	00 00                	add    BYTE PTR [rax],al
    6fa6:	00 00                	add    BYTE PTR [rax],al
    6fa8:	6f                   	outs   dx,DWORD PTR ds:[rsi]
    6fa9:	51                   	push   rcx
    6faa:	11 00                	adc    DWORD PTR [rax],eax
    6fac:	00 00                	add    BYTE PTR [rax],al
    6fae:	00 00                	add    BYTE PTR [rax],al
    6fb0:	6f                   	outs   dx,DWORD PTR ds:[rsi]
    6fb1:	51                   	push   rcx
    6fb2:	11 00                	adc    DWORD PTR [rax],eax
    6fb4:	00 00                	add    BYTE PTR [rax],al
    6fb6:	00 00                	add    BYTE PTR [rax],al
    6fb8:	6f                   	outs   dx,DWORD PTR ds:[rsi]
    6fb9:	51                   	push   rcx
    6fba:	11 00                	adc    DWORD PTR [rax],eax
    6fbc:	00 00                	add    BYTE PTR [rax],al
    6fbe:	00 00                	add    BYTE PTR [rax],al
    6fc0:	6f                   	outs   dx,DWORD PTR ds:[rsi]
    6fc1:	51                   	push   rcx
    6fc2:	11 00                	adc    DWORD PTR [rax],eax
    6fc4:	00 00                	add    BYTE PTR [rax],al
    6fc6:	00 00                	add    BYTE PTR [rax],al
    6fc8:	6f                   	outs   dx,DWORD PTR ds:[rsi]
    6fc9:	51                   	push   rcx
    6fca:	11 00                	adc    DWORD PTR [rax],eax
    6fcc:	00 00                	add    BYTE PTR [rax],al
    6fce:	00 00                	add    BYTE PTR [rax],al
    6fd0:	6f                   	outs   dx,DWORD PTR ds:[rsi]
    6fd1:	51                   	push   rcx
    6fd2:	11 00                	adc    DWORD PTR [rax],eax
    6fd4:	00 00                	add    BYTE PTR [rax],al
    6fd6:	00 00                	add    BYTE PTR [rax],al
    6fd8:	6f                   	outs   dx,DWORD PTR ds:[rsi]
    6fd9:	51                   	push   rcx
    6fda:	11 00                	adc    DWORD PTR [rax],eax
    6fdc:	00 00                	add    BYTE PTR [rax],al
    6fde:	00 00                	add    BYTE PTR [rax],al
    6fe0:	6f                   	outs   dx,DWORD PTR ds:[rsi]
    6fe1:	51                   	push   rcx
    6fe2:	11 00                	adc    DWORD PTR [rax],eax
    6fe4:	00 00                	add    BYTE PTR [rax],al
    6fe6:	00 00                	add    BYTE PTR [rax],al
    6fe8:	6f                   	outs   dx,DWORD PTR ds:[rsi]
    6fe9:	51                   	push   rcx
    6fea:	11 00                	adc    DWORD PTR [rax],eax
    6fec:	00 00                	add    BYTE PTR [rax],al
    6fee:	00 00                	add    BYTE PTR [rax],al
    6ff0:	6f                   	outs   dx,DWORD PTR ds:[rsi]
    6ff1:	51                   	push   rcx
    6ff2:	11 00                	adc    DWORD PTR [rax],eax
    6ff4:	00 00                	add    BYTE PTR [rax],al
    6ff6:	00 00                	add    BYTE PTR [rax],al
    6ff8:	6f                   	outs   dx,DWORD PTR ds:[rsi]
    6ff9:	51                   	push   rcx
    6ffa:	11 00                	adc    DWORD PTR [rax],eax
    6ffc:	00 00                	add    BYTE PTR [rax],al
    6ffe:	00 00                	add    BYTE PTR [rax],al
    7000:	6f                   	outs   dx,DWORD PTR ds:[rsi]
    7001:	51                   	push   rcx
    7002:	11 00                	adc    DWORD PTR [rax],eax
    7004:	00 00                	add    BYTE PTR [rax],al
    7006:	00 00                	add    BYTE PTR [rax],al
    7008:	6f                   	outs   dx,DWORD PTR ds:[rsi]
    7009:	51                   	push   rcx
    700a:	11 00                	adc    DWORD PTR [rax],eax
    700c:	00 00                	add    BYTE PTR [rax],al
    700e:	00 00                	add    BYTE PTR [rax],al
    7010:	6f                   	outs   dx,DWORD PTR ds:[rsi]
    7011:	51                   	push   rcx
    7012:	11 00                	adc    DWORD PTR [rax],eax
    7014:	00 00                	add    BYTE PTR [rax],al
    7016:	00 00                	add    BYTE PTR [rax],al
    7018:	6f                   	outs   dx,DWORD PTR ds:[rsi]
    7019:	51                   	push   rcx
    701a:	11 00                	adc    DWORD PTR [rax],eax
    701c:	00 00                	add    BYTE PTR [rax],al
    701e:	00 00                	add    BYTE PTR [rax],al
    7020:	6f                   	outs   dx,DWORD PTR ds:[rsi]
    7021:	51                   	push   rcx
    7022:	11 00                	adc    DWORD PTR [rax],eax
    7024:	00 00                	add    BYTE PTR [rax],al
    7026:	00 00                	add    BYTE PTR [rax],al
    7028:	6f                   	outs   dx,DWORD PTR ds:[rsi]
    7029:	51                   	push   rcx
    702a:	11 00                	adc    DWORD PTR [rax],eax
    702c:	00 00                	add    BYTE PTR [rax],al
    702e:	00 00                	add    BYTE PTR [rax],al
    7030:	6f                   	outs   dx,DWORD PTR ds:[rsi]
    7031:	51                   	push   rcx
    7032:	11 00                	adc    DWORD PTR [rax],eax
    7034:	00 00                	add    BYTE PTR [rax],al
    7036:	00 00                	add    BYTE PTR [rax],al
    7038:	6f                   	outs   dx,DWORD PTR ds:[rsi]
    7039:	51                   	push   rcx
    703a:	11 00                	adc    DWORD PTR [rax],eax
    703c:	00 00                	add    BYTE PTR [rax],al
    703e:	00 00                	add    BYTE PTR [rax],al
    7040:	6f                   	outs   dx,DWORD PTR ds:[rsi]
    7041:	51                   	push   rcx
    7042:	11 00                	adc    DWORD PTR [rax],eax
    7044:	00 00                	add    BYTE PTR [rax],al
    7046:	00 00                	add    BYTE PTR [rax],al
    7048:	6f                   	outs   dx,DWORD PTR ds:[rsi]
    7049:	51                   	push   rcx
    704a:	11 00                	adc    DWORD PTR [rax],eax
    704c:	00 00                	add    BYTE PTR [rax],al
    704e:	00 00                	add    BYTE PTR [rax],al
    7050:	6f                   	outs   dx,DWORD PTR ds:[rsi]
    7051:	51                   	push   rcx
    7052:	11 00                	adc    DWORD PTR [rax],eax
    7054:	00 00                	add    BYTE PTR [rax],al
    7056:	00 00                	add    BYTE PTR [rax],al
    7058:	6f                   	outs   dx,DWORD PTR ds:[rsi]
    7059:	51                   	push   rcx
    705a:	11 00                	adc    DWORD PTR [rax],eax
    705c:	00 00                	add    BYTE PTR [rax],al
    705e:	00 00                	add    BYTE PTR [rax],al
    7060:	6f                   	outs   dx,DWORD PTR ds:[rsi]
    7061:	51                   	push   rcx
    7062:	11 00                	adc    DWORD PTR [rax],eax
    7064:	00 00                	add    BYTE PTR [rax],al
    7066:	00 00                	add    BYTE PTR [rax],al
    7068:	6f                   	outs   dx,DWORD PTR ds:[rsi]
    7069:	51                   	push   rcx
    706a:	11 00                	adc    DWORD PTR [rax],eax
    706c:	00 00                	add    BYTE PTR [rax],al
    706e:	00 00                	add    BYTE PTR [rax],al
    7070:	6f                   	outs   dx,DWORD PTR ds:[rsi]
    7071:	51                   	push   rcx
    7072:	11 00                	adc    DWORD PTR [rax],eax
    7074:	00 00                	add    BYTE PTR [rax],al
    7076:	00 00                	add    BYTE PTR [rax],al
    7078:	6f                   	outs   dx,DWORD PTR ds:[rsi]
    7079:	51                   	push   rcx
    707a:	11 00                	adc    DWORD PTR [rax],eax
    707c:	00 00                	add    BYTE PTR [rax],al
    707e:	00 00                	add    BYTE PTR [rax],al
    7080:	6f                   	outs   dx,DWORD PTR ds:[rsi]
    7081:	51                   	push   rcx
    7082:	11 00                	adc    DWORD PTR [rax],eax
    7084:	00 00                	add    BYTE PTR [rax],al
    7086:	00 00                	add    BYTE PTR [rax],al
    7088:	6f                   	outs   dx,DWORD PTR ds:[rsi]
    7089:	51                   	push   rcx
    708a:	11 00                	adc    DWORD PTR [rax],eax
    708c:	00 00                	add    BYTE PTR [rax],al
    708e:	00 00                	add    BYTE PTR [rax],al
    7090:	6f                   	outs   dx,DWORD PTR ds:[rsi]
    7091:	51                   	push   rcx
    7092:	11 00                	adc    DWORD PTR [rax],eax
    7094:	00 00                	add    BYTE PTR [rax],al
    7096:	00 00                	add    BYTE PTR [rax],al
    7098:	6f                   	outs   dx,DWORD PTR ds:[rsi]
    7099:	51                   	push   rcx
    709a:	11 00                	adc    DWORD PTR [rax],eax
    709c:	00 00                	add    BYTE PTR [rax],al
    709e:	00 00                	add    BYTE PTR [rax],al
    70a0:	6f                   	outs   dx,DWORD PTR ds:[rsi]
    70a1:	51                   	push   rcx
    70a2:	11 00                	adc    DWORD PTR [rax],eax
    70a4:	00 00                	add    BYTE PTR [rax],al
    70a6:	00 00                	add    BYTE PTR [rax],al
    70a8:	8b 4f 11             	mov    ecx,DWORD PTR [rdi+0x11]
    70ab:	00 00                	add    BYTE PTR [rax],al
    70ad:	00 00                	add    BYTE PTR [rax],al
    70af:	00 6f 51             	add    BYTE PTR [rdi+0x51],ch
    70b2:	11 00                	adc    DWORD PTR [rax],eax
    70b4:	00 00                	add    BYTE PTR [rax],al
    70b6:	00 00                	add    BYTE PTR [rax],al
    70b8:	6f                   	outs   dx,DWORD PTR ds:[rsi]
    70b9:	51                   	push   rcx
    70ba:	11 00                	adc    DWORD PTR [rax],eax
    70bc:	00 00                	add    BYTE PTR [rax],al
    70be:	00 00                	add    BYTE PTR [rax],al
    70c0:	6f                   	outs   dx,DWORD PTR ds:[rsi]
    70c1:	51                   	push   rcx
    70c2:	11 00                	adc    DWORD PTR [rax],eax
    70c4:	00 00                	add    BYTE PTR [rax],al
    70c6:	00 00                	add    BYTE PTR [rax],al
    70c8:	6f                   	outs   dx,DWORD PTR ds:[rsi]
    70c9:	51                   	push   rcx
    70ca:	11 00                	adc    DWORD PTR [rax],eax
    70cc:	00 00                	add    BYTE PTR [rax],al
    70ce:	00 00                	add    BYTE PTR [rax],al
    70d0:	6f                   	outs   dx,DWORD PTR ds:[rsi]
    70d1:	51                   	push   rcx
    70d2:	11 00                	adc    DWORD PTR [rax],eax
    70d4:	00 00                	add    BYTE PTR [rax],al
    70d6:	00 00                	add    BYTE PTR [rax],al
    70d8:	6f                   	outs   dx,DWORD PTR ds:[rsi]
    70d9:	51                   	push   rcx
    70da:	11 00                	adc    DWORD PTR [rax],eax
    70dc:	00 00                	add    BYTE PTR [rax],al
    70de:	00 00                	add    BYTE PTR [rax],al
    70e0:	6f                   	outs   dx,DWORD PTR ds:[rsi]
    70e1:	51                   	push   rcx
    70e2:	11 00                	adc    DWORD PTR [rax],eax
    70e4:	00 00                	add    BYTE PTR [rax],al
    70e6:	00 00                	add    BYTE PTR [rax],al
    70e8:	6f                   	outs   dx,DWORD PTR ds:[rsi]
    70e9:	51                   	push   rcx
    70ea:	11 00                	adc    DWORD PTR [rax],eax
    70ec:	00 00                	add    BYTE PTR [rax],al
    70ee:	00 00                	add    BYTE PTR [rax],al
    70f0:	6f                   	outs   dx,DWORD PTR ds:[rsi]
    70f1:	51                   	push   rcx
    70f2:	11 00                	adc    DWORD PTR [rax],eax
    70f4:	00 00                	add    BYTE PTR [rax],al
    70f6:	00 00                	add    BYTE PTR [rax],al
    70f8:	13 4f 11             	adc    ecx,DWORD PTR [rdi+0x11]
    70fb:	00 00                	add    BYTE PTR [rax],al
    70fd:	00 00                	add    BYTE PTR [rax],al
    70ff:	00 72 51             	add    BYTE PTR [rdx+0x51],dh
    7102:	11 00                	adc    DWORD PTR [rax],eax
    7104:	00 00                	add    BYTE PTR [rax],al
    7106:	00 00                	add    BYTE PTR [rax],al
    7108:	72 51                	jb     0x715b
    710a:	11 00                	adc    DWORD PTR [rax],eax
    710c:	00 00                	add    BYTE PTR [rax],al
    710e:	00 00                	add    BYTE PTR [rax],al
    7110:	b2 50                	mov    dl,0x50
    7112:	11 00                	adc    DWORD PTR [rax],eax
    7114:	00 00                	add    BYTE PTR [rax],al
    7116:	00 00                	add    BYTE PTR [rax],al
    7118:	bc 50 11 00 00       	mov    esp,0x1150
    711d:	00 00                	add    BYTE PTR [rax],al
    711f:	00 c6                	add    dh,al
    7121:	50                   	push   rax
    7122:	11 00                	adc    DWORD PTR [rax],eax
    7124:	00 00                	add    BYTE PTR [rax],al
    7126:	00 00                	add    BYTE PTR [rax],al
    7128:	d0 50 11             	rcl    BYTE PTR [rax+0x11],1
    712b:	00 00                	add    BYTE PTR [rax],al
    712d:	00 00                	add    BYTE PTR [rax],al
    712f:	00 da                	add    dl,bl
    7131:	50                   	push   rax
    7132:	11 00                	adc    DWORD PTR [rax],eax
    7134:	00 00                	add    BYTE PTR [rax],al
    7136:	00 00                	add    BYTE PTR [rax],al
    7138:	e4 50                	in     al,0x50
    713a:	11 00                	adc    DWORD PTR [rax],eax
    713c:	00 00                	add    BYTE PTR [rax],al
    713e:	00 00                	add    BYTE PTR [rax],al
    7140:	ee                   	out    dx,al
    7141:	50                   	push   rax
    7142:	11 00                	adc    DWORD PTR [rax],eax
    7144:	00 00                	add    BYTE PTR [rax],al
    7146:	00 00                	add    BYTE PTR [rax],al
    7148:	f8                   	clc    
    7149:	50                   	push   rax
    714a:	11 00                	adc    DWORD PTR [rax],eax
    714c:	00 00                	add    BYTE PTR [rax],al
    714e:	00 00                	add    BYTE PTR [rax],al
    7150:	ff 50 11             	call   QWORD PTR [rax+0x11]
    7153:	00 00                	add    BYTE PTR [rax],al
    7155:	00 00                	add    BYTE PTR [rax],al
    7157:	00 72 51             	add    BYTE PTR [rdx+0x51],dh
    715a:	11 00                	adc    DWORD PTR [rax],eax
    715c:	00 00                	add    BYTE PTR [rax],al
    715e:	00 00                	add    BYTE PTR [rax],al
    7160:	06                   	(bad)  
    7161:	51                   	push   rcx
    7162:	11 00                	adc    DWORD PTR [rax],eax
    7164:	00 00                	add    BYTE PTR [rax],al
    7166:	00 00                	add    BYTE PTR [rax],al
    7168:	0d 51 11 00 00       	or     eax,0x1151
    716d:	00 00                	add    BYTE PTR [rax],al
    716f:	00 22                	add    BYTE PTR [rdx],ah
    7171:	51                   	push   rcx
    7172:	11 00                	adc    DWORD PTR [rax],eax
    7174:	00 00                	add    BYTE PTR [rax],al
    7176:	00 00                	add    BYTE PTR [rax],al
    7178:	72 51                	jb     0x71cb
    717a:	11 00                	adc    DWORD PTR [rax],eax
    717c:	00 00                	add    BYTE PTR [rax],al
    717e:	00 00                	add    BYTE PTR [rax],al
    7180:	4e 50                	rex.WRX push rax
    7182:	11 00                	adc    DWORD PTR [rax],eax
    7184:	00 00                	add    BYTE PTR [rax],al
    7186:	00 00                	add    BYTE PTR [rax],al
    7188:	8a 50 11             	mov    dl,BYTE PTR [rax+0x11]
    718b:	00 00                	add    BYTE PTR [rax],al
    718d:	00 00                	add    BYTE PTR [rax],al
    718f:	00 d6                	add    dh,dl
    7191:	4f 11 00             	rex.WRXB adc QWORD PTR [r8],r8
    7194:	00 00                	add    BYTE PTR [rax],al
    7196:	00 00                	add    BYTE PTR [rax],al
    7198:	58                   	pop    rax
    7199:	50                   	push   rax
    719a:	11 00                	adc    DWORD PTR [rax],eax
    719c:	00 00                	add    BYTE PTR [rax],al
    719e:	00 00                	add    BYTE PTR [rax],al
    71a0:	6c                   	ins    BYTE PTR es:[rdi],dx
    71a1:	50                   	push   rax
    71a2:	11 00                	adc    DWORD PTR [rax],eax
    71a4:	00 00                	add    BYTE PTR [rax],al
    71a6:	00 00                	add    BYTE PTR [rax],al
    71a8:	9e                   	sahf   
    71a9:	50                   	push   rax
    71aa:	11 00                	adc    DWORD PTR [rax],eax
    71ac:	00 00                	add    BYTE PTR [rax],al
    71ae:	00 00                	add    BYTE PTR [rax],al
    71b0:	76 50                	jbe    0x7202
    71b2:	11 00                	adc    DWORD PTR [rax],eax
    71b4:	00 00                	add    BYTE PTR [rax],al
    71b6:	00 00                	add    BYTE PTR [rax],al
    71b8:	fe 4f 11             	dec    BYTE PTR [rdi+0x11]
    71bb:	00 00                	add    BYTE PTR [rax],al
    71bd:	00 00                	add    BYTE PTR [rax],al
    71bf:	00 3a                	add    BYTE PTR [rdx],bh
    71c1:	50                   	push   rax
    71c2:	11 00                	adc    DWORD PTR [rax],eax
    71c4:	00 00                	add    BYTE PTR [rax],al
    71c6:	00 00                	add    BYTE PTR [rax],al
    71c8:	44 50                	rex.R push rax
    71ca:	11 00                	adc    DWORD PTR [rax],eax
    71cc:	00 00                	add    BYTE PTR [rax],al
    71ce:	00 00                	add    BYTE PTR [rax],al
    71d0:	37                   	(bad)  
    71d1:	51                   	push   rcx
    71d2:	11 00                	adc    DWORD PTR [rax],eax
    71d4:	00 00                	add    BYTE PTR [rax],al
    71d6:	00 00                	add    BYTE PTR [rax],al
    71d8:	3e 51                	ds push rcx
    71da:	11 00                	adc    DWORD PTR [rax],eax
    71dc:	00 00                	add    BYTE PTR [rax],al
    71de:	00 00                	add    BYTE PTR [rax],al
    71e0:	30 51 11             	xor    BYTE PTR [rcx+0x11],dl
    71e3:	00 00                	add    BYTE PTR [rax],al
    71e5:	00 00                	add    BYTE PTR [rax],al
    71e7:	00 72 51             	add    BYTE PTR [rdx+0x51],dh
    71ea:	11 00                	adc    DWORD PTR [rax],eax
    71ec:	00 00                	add    BYTE PTR [rax],al
    71ee:	00 00                	add    BYTE PTR [rax],al
    71f0:	ae                   	scas   al,BYTE PTR es:[rdi]
    71f1:	4f 11 00             	rex.WRXB adc QWORD PTR [r8],r8
    71f4:	00 00                	add    BYTE PTR [rax],al
    71f6:	00 00                	add    BYTE PTR [rax],al
    71f8:	62                   	(bad)  
    71f9:	50                   	push   rax
    71fa:	11 00                	adc    DWORD PTR [rax],eax
    71fc:	00 00                	add    BYTE PTR [rax],al
    71fe:	00 00                	add    BYTE PTR [rax],al
    7200:	cc                   	int3   
    7201:	4f 11 00             	rex.WRXB adc QWORD PTR [r8],r8
    7204:	00 00                	add    BYTE PTR [rax],al
    7206:	00 00                	add    BYTE PTR [rax],al
    7208:	e0 4f                	loopne 0x7259
    720a:	11 00                	adc    DWORD PTR [rax],eax
    720c:	00 00                	add    BYTE PTR [rax],al
    720e:	00 00                	add    BYTE PTR [rax],al
    7210:	ea                   	(bad)  
    7211:	4f 11 00             	rex.WRXB adc QWORD PTR [r8],r8
    7214:	00 00                	add    BYTE PTR [rax],al
    7216:	00 00                	add    BYTE PTR [rax],al
    7218:	f4                   	hlt    
    7219:	4f 11 00             	rex.WRXB adc QWORD PTR [r8],r8
    721c:	00 00                	add    BYTE PTR [rax],al
    721e:	00 00                	add    BYTE PTR [rax],al
    7220:	08 50 11             	or     BYTE PTR [rax+0x11],dl
    7223:	00 00                	add    BYTE PTR [rax],al
    7225:	00 00                	add    BYTE PTR [rax],al
    7227:	00 12                	add    BYTE PTR [rdx],dl
    7229:	50                   	push   rax
    722a:	11 00                	adc    DWORD PTR [rax],eax
    722c:	00 00                	add    BYTE PTR [rax],al
    722e:	00 00                	add    BYTE PTR [rax],al
    7230:	1c 50                	sbb    al,0x50
    7232:	11 00                	adc    DWORD PTR [rax],eax
    7234:	00 00                	add    BYTE PTR [rax],al
    7236:	00 00                	add    BYTE PTR [rax],al
    7238:	45 51                	rex.RB push r9
    723a:	11 00                	adc    DWORD PTR [rax],eax
    723c:	00 00                	add    BYTE PTR [rax],al
    723e:	00 00                	add    BYTE PTR [rax],al
    7240:	4c 51                	rex.WR push rcx
    7242:	11 00                	adc    DWORD PTR [rax],eax
    7244:	00 00                	add    BYTE PTR [rax],al
    7246:	00 00                	add    BYTE PTR [rax],al
    7248:	72 51                	jb     0x729b
    724a:	11 00                	adc    DWORD PTR [rax],eax
    724c:	00 00                	add    BYTE PTR [rax],al
    724e:	00 00                	add    BYTE PTR [rax],al
    7250:	72 51                	jb     0x72a3
    7252:	11 00                	adc    DWORD PTR [rax],eax
    7254:	00 00                	add    BYTE PTR [rax],al
    7256:	00 00                	add    BYTE PTR [rax],al
    7258:	1b 51 11             	sbb    edx,DWORD PTR [rcx+0x11]
    725b:	00 00                	add    BYTE PTR [rax],al
    725d:	00 00                	add    BYTE PTR [rax],al
    725f:	00 a8 50 11 00 00    	add    BYTE PTR [rax+0x1150],ch
    7265:	00 00                	add    BYTE PTR [rax],al
    7267:	00 94 50 11 00 00 00 	add    BYTE PTR [rax+rdx*2+0x11],dl
    726e:	00 00                	add    BYTE PTR [rax],al
    7270:	c2 4f 11             	ret    0x114f
    7273:	00 00                	add    BYTE PTR [rax],al
    7275:	00 00                	add    BYTE PTR [rax],al
    7277:	00 80 50 11 00 00    	add    BYTE PTR [rax+0x1150],al
    727d:	00 00                	add    BYTE PTR [rax],al
    727f:	00 b8 4f 11 00 00    	add    BYTE PTR [rax+0x114f],bh
    7285:	00 00                	add    BYTE PTR [rax],al
    7287:	00 30                	add    BYTE PTR [rax],dh
    7289:	50                   	push   rax
    728a:	11 00                	adc    DWORD PTR [rax],eax
    728c:	00 00                	add    BYTE PTR [rax],al
    728e:	00 00                	add    BYTE PTR [rax],al
    7290:	26 50                	es push rax
    7292:	11 00                	adc    DWORD PTR [rax],eax
    7294:	00 00                	add    BYTE PTR [rax],al
    7296:	00 00                	add    BYTE PTR [rax],al
    7298:	53                   	push   rbx
    7299:	51                   	push   rcx
    729a:	11 00                	adc    DWORD PTR [rax],eax
    729c:	00 00                	add    BYTE PTR [rax],al
    729e:	00 00                	add    BYTE PTR [rax],al
    72a0:	5a                   	pop    rdx
    72a1:	51                   	push   rcx
    72a2:	11 00                	adc    DWORD PTR [rax],eax
    72a4:	00 00                	add    BYTE PTR [rax],al
    72a6:	00 00                	add    BYTE PTR [rax],al
    72a8:	61                   	(bad)  
    72a9:	51                   	push   rcx
    72aa:	11 00                	adc    DWORD PTR [rax],eax
    72ac:	00 00                	add    BYTE PTR [rax],al
    72ae:	00 00                	add    BYTE PTR [rax],al
    72b0:	72 51                	jb     0x7303
    72b2:	11 00                	adc    DWORD PTR [rax],eax
    72b4:	00 00                	add    BYTE PTR [rax],al
    72b6:	00 00                	add    BYTE PTR [rax],al
    72b8:	72 51                	jb     0x730b
    72ba:	11 00                	adc    DWORD PTR [rax],eax
    72bc:	00 00                	add    BYTE PTR [rax],al
    72be:	00 00                	add    BYTE PTR [rax],al
    72c0:	72 51                	jb     0x7313
    72c2:	11 00                	adc    DWORD PTR [rax],eax
    72c4:	00 00                	add    BYTE PTR [rax],al
    72c6:	00 00                	add    BYTE PTR [rax],al
    72c8:	29 51 11             	sub    DWORD PTR [rcx+0x11],edx
    72cb:	00 00                	add    BYTE PTR [rax],al
    72cd:	00 00                	add    BYTE PTR [rax],al
    72cf:	00 72 51             	add    BYTE PTR [rdx+0x51],dh
    72d2:	11 00                	adc    DWORD PTR [rax],eax
    72d4:	00 00                	add    BYTE PTR [rax],al
    72d6:	00 00                	add    BYTE PTR [rax],al
    72d8:	72 51                	jb     0x732b
    72da:	11 00                	adc    DWORD PTR [rax],eax
    72dc:	00 00                	add    BYTE PTR [rax],al
    72de:	00 00                	add    BYTE PTR [rax],al
    72e0:	72 51                	jb     0x7333
    72e2:	11 00                	adc    DWORD PTR [rax],eax
    72e4:	00 00                	add    BYTE PTR [rax],al
    72e6:	00 00                	add    BYTE PTR [rax],al
    72e8:	72 51                	jb     0x733b
    72ea:	11 00                	adc    DWORD PTR [rax],eax
    72ec:	00 00                	add    BYTE PTR [rax],al
    72ee:	00 00                	add    BYTE PTR [rax],al
    72f0:	72 51                	jb     0x7343
    72f2:	11 00                	adc    DWORD PTR [rax],eax
    72f4:	00 00                	add    BYTE PTR [rax],al
    72f6:	00 00                	add    BYTE PTR [rax],al
    72f8:	72 51                	jb     0x734b
    72fa:	11 00                	adc    DWORD PTR [rax],eax
    72fc:	00 00                	add    BYTE PTR [rax],al
    72fe:	00 00                	add    BYTE PTR [rax],al
    7300:	72 51                	jb     0x7353
    7302:	11 00                	adc    DWORD PTR [rax],eax
    7304:	00 00                	add    BYTE PTR [rax],al
    7306:	00 00                	add    BYTE PTR [rax],al
    7308:	72 51                	jb     0x735b
    730a:	11 00                	adc    DWORD PTR [rax],eax
    730c:	00 00                	add    BYTE PTR [rax],al
    730e:	00 00                	add    BYTE PTR [rax],al
    7310:	72 51                	jb     0x7363
    7312:	11 00                	adc    DWORD PTR [rax],eax
    7314:	00 00                	add    BYTE PTR [rax],al
    7316:	00 00                	add    BYTE PTR [rax],al
    7318:	72 51                	jb     0x736b
    731a:	11 00                	adc    DWORD PTR [rax],eax
    731c:	00 00                	add    BYTE PTR [rax],al
    731e:	00 00                	add    BYTE PTR [rax],al
    7320:	72 51                	jb     0x7373
    7322:	11 00                	adc    DWORD PTR [rax],eax
    7324:	00 00                	add    BYTE PTR [rax],al
    7326:	00 00                	add    BYTE PTR [rax],al
    7328:	72 51                	jb     0x737b
    732a:	11 00                	adc    DWORD PTR [rax],eax
    732c:	00 00                	add    BYTE PTR [rax],al
    732e:	00 00                	add    BYTE PTR [rax],al
    7330:	72 51                	jb     0x7383
    7332:	11 00                	adc    DWORD PTR [rax],eax
    7334:	00 00                	add    BYTE PTR [rax],al
    7336:	00 00                	add    BYTE PTR [rax],al
    7338:	72 51                	jb     0x738b
    733a:	11 00                	adc    DWORD PTR [rax],eax
    733c:	00 00                	add    BYTE PTR [rax],al
    733e:	00 00                	add    BYTE PTR [rax],al
    7340:	72 51                	jb     0x7393
    7342:	11 00                	adc    DWORD PTR [rax],eax
    7344:	00 00                	add    BYTE PTR [rax],al
    7346:	00 00                	add    BYTE PTR [rax],al
    7348:	72 51                	jb     0x739b
    734a:	11 00                	adc    DWORD PTR [rax],eax
    734c:	00 00                	add    BYTE PTR [rax],al
    734e:	00 00                	add    BYTE PTR [rax],al
    7350:	72 51                	jb     0x73a3
    7352:	11 00                	adc    DWORD PTR [rax],eax
    7354:	00 00                	add    BYTE PTR [rax],al
    7356:	00 00                	add    BYTE PTR [rax],al
    7358:	72 51                	jb     0x73ab
    735a:	11 00                	adc    DWORD PTR [rax],eax
    735c:	00 00                	add    BYTE PTR [rax],al
    735e:	00 00                	add    BYTE PTR [rax],al
    7360:	72 51                	jb     0x73b3
    7362:	11 00                	adc    DWORD PTR [rax],eax
    7364:	00 00                	add    BYTE PTR [rax],al
    7366:	00 00                	add    BYTE PTR [rax],al
    7368:	72 51                	jb     0x73bb
    736a:	11 00                	adc    DWORD PTR [rax],eax
    736c:	00 00                	add    BYTE PTR [rax],al
    736e:	00 00                	add    BYTE PTR [rax],al
    7370:	72 51                	jb     0x73c3
    7372:	11 00                	adc    DWORD PTR [rax],eax
    7374:	00 00                	add    BYTE PTR [rax],al
    7376:	00 00                	add    BYTE PTR [rax],al
    7378:	72 51                	jb     0x73cb
    737a:	11 00                	adc    DWORD PTR [rax],eax
    737c:	00 00                	add    BYTE PTR [rax],al
    737e:	00 00                	add    BYTE PTR [rax],al
    7380:	72 51                	jb     0x73d3
    7382:	11 00                	adc    DWORD PTR [rax],eax
    7384:	00 00                	add    BYTE PTR [rax],al
    7386:	00 00                	add    BYTE PTR [rax],al
    7388:	72 51                	jb     0x73db
    738a:	11 00                	adc    DWORD PTR [rax],eax
    738c:	00 00                	add    BYTE PTR [rax],al
    738e:	00 00                	add    BYTE PTR [rax],al
    7390:	72 51                	jb     0x73e3
    7392:	11 00                	adc    DWORD PTR [rax],eax
    7394:	00 00                	add    BYTE PTR [rax],al
    7396:	00 00                	add    BYTE PTR [rax],al
    7398:	72 51                	jb     0x73eb
    739a:	11 00                	adc    DWORD PTR [rax],eax
    739c:	00 00                	add    BYTE PTR [rax],al
    739e:	00 00                	add    BYTE PTR [rax],al
    73a0:	72 51                	jb     0x73f3
    73a2:	11 00                	adc    DWORD PTR [rax],eax
    73a4:	00 00                	add    BYTE PTR [rax],al
    73a6:	00 00                	add    BYTE PTR [rax],al
    73a8:	72 51                	jb     0x73fb
    73aa:	11 00                	adc    DWORD PTR [rax],eax
    73ac:	00 00                	add    BYTE PTR [rax],al
    73ae:	00 00                	add    BYTE PTR [rax],al
    73b0:	72 51                	jb     0x7403
    73b2:	11 00                	adc    DWORD PTR [rax],eax
    73b4:	00 00                	add    BYTE PTR [rax],al
    73b6:	00 00                	add    BYTE PTR [rax],al
    73b8:	72 51                	jb     0x740b
    73ba:	11 00                	adc    DWORD PTR [rax],eax
    73bc:	00 00                	add    BYTE PTR [rax],al
    73be:	00 00                	add    BYTE PTR [rax],al
    73c0:	72 51                	jb     0x7413
    73c2:	11 00                	adc    DWORD PTR [rax],eax
    73c4:	00 00                	add    BYTE PTR [rax],al
    73c6:	00 00                	add    BYTE PTR [rax],al
    73c8:	72 51                	jb     0x741b
    73ca:	11 00                	adc    DWORD PTR [rax],eax
    73cc:	00 00                	add    BYTE PTR [rax],al
    73ce:	00 00                	add    BYTE PTR [rax],al
    73d0:	72 51                	jb     0x7423
    73d2:	11 00                	adc    DWORD PTR [rax],eax
    73d4:	00 00                	add    BYTE PTR [rax],al
    73d6:	00 00                	add    BYTE PTR [rax],al
    73d8:	72 51                	jb     0x742b
    73da:	11 00                	adc    DWORD PTR [rax],eax
    73dc:	00 00                	add    BYTE PTR [rax],al
    73de:	00 00                	add    BYTE PTR [rax],al
    73e0:	72 51                	jb     0x7433
    73e2:	11 00                	adc    DWORD PTR [rax],eax
    73e4:	00 00                	add    BYTE PTR [rax],al
    73e6:	00 00                	add    BYTE PTR [rax],al
    73e8:	72 51                	jb     0x743b
    73ea:	11 00                	adc    DWORD PTR [rax],eax
    73ec:	00 00                	add    BYTE PTR [rax],al
    73ee:	00 00                	add    BYTE PTR [rax],al
    73f0:	72 51                	jb     0x7443
    73f2:	11 00                	adc    DWORD PTR [rax],eax
    73f4:	00 00                	add    BYTE PTR [rax],al
    73f6:	00 00                	add    BYTE PTR [rax],al
    73f8:	72 51                	jb     0x744b
    73fa:	11 00                	adc    DWORD PTR [rax],eax
    73fc:	00 00                	add    BYTE PTR [rax],al
    73fe:	00 00                	add    BYTE PTR [rax],al
    7400:	72 51                	jb     0x7453
    7402:	11 00                	adc    DWORD PTR [rax],eax
    7404:	00 00                	add    BYTE PTR [rax],al
    7406:	00 00                	add    BYTE PTR [rax],al
    7408:	72 51                	jb     0x745b
    740a:	11 00                	adc    DWORD PTR [rax],eax
    740c:	00 00                	add    BYTE PTR [rax],al
    740e:	00 00                	add    BYTE PTR [rax],al
    7410:	72 51                	jb     0x7463
    7412:	11 00                	adc    DWORD PTR [rax],eax
    7414:	00 00                	add    BYTE PTR [rax],al
    7416:	00 00                	add    BYTE PTR [rax],al
    7418:	72 51                	jb     0x746b
    741a:	11 00                	adc    DWORD PTR [rax],eax
    741c:	00 00                	add    BYTE PTR [rax],al
    741e:	00 00                	add    BYTE PTR [rax],al
    7420:	72 51                	jb     0x7473
    7422:	11 00                	adc    DWORD PTR [rax],eax
    7424:	00 00                	add    BYTE PTR [rax],al
    7426:	00 00                	add    BYTE PTR [rax],al
    7428:	72 51                	jb     0x747b
    742a:	11 00                	adc    DWORD PTR [rax],eax
    742c:	00 00                	add    BYTE PTR [rax],al
    742e:	00 00                	add    BYTE PTR [rax],al
    7430:	72 51                	jb     0x7483
    7432:	11 00                	adc    DWORD PTR [rax],eax
    7434:	00 00                	add    BYTE PTR [rax],al
    7436:	00 00                	add    BYTE PTR [rax],al
    7438:	72 51                	jb     0x748b
    743a:	11 00                	adc    DWORD PTR [rax],eax
    743c:	00 00                	add    BYTE PTR [rax],al
    743e:	00 00                	add    BYTE PTR [rax],al
    7440:	72 51                	jb     0x7493
    7442:	11 00                	adc    DWORD PTR [rax],eax
    7444:	00 00                	add    BYTE PTR [rax],al
    7446:	00 00                	add    BYTE PTR [rax],al
    7448:	72 51                	jb     0x749b
    744a:	11 00                	adc    DWORD PTR [rax],eax
    744c:	00 00                	add    BYTE PTR [rax],al
    744e:	00 00                	add    BYTE PTR [rax],al
    7450:	72 51                	jb     0x74a3
    7452:	11 00                	adc    DWORD PTR [rax],eax
    7454:	00 00                	add    BYTE PTR [rax],al
    7456:	00 00                	add    BYTE PTR [rax],al
    7458:	72 51                	jb     0x74ab
    745a:	11 00                	adc    DWORD PTR [rax],eax
    745c:	00 00                	add    BYTE PTR [rax],al
    745e:	00 00                	add    BYTE PTR [rax],al
    7460:	72 51                	jb     0x74b3
    7462:	11 00                	adc    DWORD PTR [rax],eax
    7464:	00 00                	add    BYTE PTR [rax],al
    7466:	00 00                	add    BYTE PTR [rax],al
    7468:	72 51                	jb     0x74bb
    746a:	11 00                	adc    DWORD PTR [rax],eax
    746c:	00 00                	add    BYTE PTR [rax],al
    746e:	00 00                	add    BYTE PTR [rax],al
    7470:	72 51                	jb     0x74c3
    7472:	11 00                	adc    DWORD PTR [rax],eax
    7474:	00 00                	add    BYTE PTR [rax],al
    7476:	00 00                	add    BYTE PTR [rax],al
    7478:	72 51                	jb     0x74cb
    747a:	11 00                	adc    DWORD PTR [rax],eax
    747c:	00 00                	add    BYTE PTR [rax],al
    747e:	00 00                	add    BYTE PTR [rax],al
    7480:	72 51                	jb     0x74d3
    7482:	11 00                	adc    DWORD PTR [rax],eax
    7484:	00 00                	add    BYTE PTR [rax],al
    7486:	00 00                	add    BYTE PTR [rax],al
    7488:	72 51                	jb     0x74db
    748a:	11 00                	adc    DWORD PTR [rax],eax
    748c:	00 00                	add    BYTE PTR [rax],al
    748e:	00 00                	add    BYTE PTR [rax],al
    7490:	72 51                	jb     0x74e3
    7492:	11 00                	adc    DWORD PTR [rax],eax
    7494:	00 00                	add    BYTE PTR [rax],al
    7496:	00 00                	add    BYTE PTR [rax],al
    7498:	68 51 11 00 00       	push   0x1151
    749d:	00 00                	add    BYTE PTR [rax],al
    749f:	00 72 51             	add    BYTE PTR [rdx+0x51],dh
    74a2:	11 00                	adc    DWORD PTR [rax],eax
    74a4:	00 00                	add    BYTE PTR [rax],al
    74a6:	00 00                	add    BYTE PTR [rax],al
    74a8:	72 51                	jb     0x74fb
    74aa:	11 00                	adc    DWORD PTR [rax],eax
    74ac:	00 00                	add    BYTE PTR [rax],al
    74ae:	00 00                	add    BYTE PTR [rax],al
    74b0:	72 51                	jb     0x7503
    74b2:	11 00                	adc    DWORD PTR [rax],eax
    74b4:	00 00                	add    BYTE PTR [rax],al
    74b6:	00 00                	add    BYTE PTR [rax],al
    74b8:	72 51                	jb     0x750b
    74ba:	11 00                	adc    DWORD PTR [rax],eax
    74bc:	00 00                	add    BYTE PTR [rax],al
    74be:	00 00                	add    BYTE PTR [rax],al
    74c0:	72 51                	jb     0x7513
    74c2:	11 00                	adc    DWORD PTR [rax],eax
    74c4:	00 00                	add    BYTE PTR [rax],al
    74c6:	00 00                	add    BYTE PTR [rax],al
    74c8:	72 51                	jb     0x751b
    74ca:	11 00                	adc    DWORD PTR [rax],eax
    74cc:	00 00                	add    BYTE PTR [rax],al
    74ce:	00 00                	add    BYTE PTR [rax],al
    74d0:	72 51                	jb     0x7523
    74d2:	11 00                	adc    DWORD PTR [rax],eax
    74d4:	00 00                	add    BYTE PTR [rax],al
    74d6:	00 00                	add    BYTE PTR [rax],al
    74d8:	72 51                	jb     0x752b
    74da:	11 00                	adc    DWORD PTR [rax],eax
    74dc:	00 00                	add    BYTE PTR [rax],al
    74de:	00 00                	add    BYTE PTR [rax],al
    74e0:	72 51                	jb     0x7533
    74e2:	11 00                	adc    DWORD PTR [rax],eax
    74e4:	00 00                	add    BYTE PTR [rax],al
    74e6:	00 00                	add    BYTE PTR [rax],al
    74e8:	14 51                	adc    al,0x51
    74ea:	11 00                	adc    DWORD PTR [rax],eax
    74ec:	00 00                	add    BYTE PTR [rax],al
    74ee:	00 00                	add    BYTE PTR [rax],al
    74f0:	24 20                	and    al,0x20
    74f2:	00 74 6f 74          	add    BYTE PTR [rdi+rbp*2+0x74],dh
    74f6:	73 75                	jae    0x756d
    74f8:	67 65 6b 69 40 6d    	imul   ebp,DWORD PTR gs:[ecx+0x40],0x6d
    74fe:	69 6e 4f 53 20 24 20 	imul   ebp,DWORD PTR [rsi+0x4f],0x20242053
    7505:	00 61 72             	add    BYTE PTR [rcx+0x72],ah
    7508:	67 73 5f             	addr32 jae 0x756a
    750b:	61                   	(bad)  
    750c:	72 72                	jb     0x7580
    750e:	61                   	(bad)  
    750f:	79 3a                	jns    0x754b
    7511:	20 00                	and    BYTE PTR [rax],al
    7513:	0a 00                	or     al,BYTE PTR [rax]
    7515:	65 63 68 6f          	movsxd ebp,DWORD PTR gs:[rax+0x6f]
    7519:	00 75 70             	add    BYTE PTR [rbp+0x70],dh
    751c:	74 69                	je     0x7587
    751e:	6d                   	ins    DWORD PTR es:[rdi],dx
    751f:	65 00 73 6c          	add    BYTE PTR gs:[rbx+0x6c],dh
    7523:	65 65 70 00          	gs gs jo 0x7527
    7527:	00 6e 6f             	add    BYTE PTR [rsi+0x6f],ch
    752a:	20 69 6e             	and    BYTE PTR [rcx+0x6e],ch
    752d:	70 75                	jo     0x75a4
    752f:	74 00                	je     0x7531
    7531:	62 61 64 20 63       	(bad)
    7536:	6f                   	outs   dx,DWORD PTR ds:[rsi]
    7537:	6d                   	ins    DWORD PTR es:[rdi],dx
    7538:	6d                   	ins    DWORD PTR es:[rdi],dx
    7539:	61                   	(bad)  
    753a:	6e                   	outs   dx,BYTE PTR ds:[rsi]
    753b:	64 00 20             	add    BYTE PTR fs:[rax],ah
    753e:	00 65 6e             	add    BYTE PTR [rbp+0x6e],ah
    7541:	74 65                	je     0x75a8
    7543:	72 20                	jb     0x7565
    7545:	63 6f 6e             	movsxd ebp,DWORD PTR [rdi+0x6e]
    7548:	73 6f                	jae    0x75b9
    754a:	6c                   	ins    BYTE PTR es:[rdi],dx
    754b:	65 0a 0a             	or     cl,BYTE PTR gs:[rdx]
    754e:	00 63 6f             	add    BYTE PTR [rbx+0x6f],ah
    7551:	6e                   	outs   dx,BYTE PTR ds:[rsi]
    7552:	73 6f                	jae    0x75c3
    7554:	6c                   	ins    BYTE PTR es:[rdi],dx
    7555:	65 3a 20             	cmp    ah,BYTE PTR gs:[rax]
    7558:	72 65                	jb     0x75bf
    755a:	61                   	(bad)  
    755b:	64 6c                	fs ins BYTE PTR es:[rdi],dx
    755d:	69 6e 65 5f 73 65 72 	imul   ebp,DWORD PTR [rsi+0x65],0x7265735f
    7564:	69 61 6c 0a 0a 00 63 	imul   esp,DWORD PTR [rcx+0x6c],0x63000a0a
    756b:	6f                   	outs   dx,DWORD PTR ds:[rsi]
    756c:	6e                   	outs   dx,BYTE PTR ds:[rsi]
    756d:	73 6f                	jae    0x75de
    756f:	6c                   	ins    BYTE PTR es:[rdi],dx
    7570:	65 3a 20             	cmp    ah,BYTE PTR gs:[rax]
    7573:	70 61                	jo     0x75d6
    7575:	72 73                	jb     0x75ea
    7577:	65 5f                	gs pop rdi
    7579:	6c                   	ins    BYTE PTR es:[rdi],dx
    757a:	69 6e 65 0a 0a 00 63 	imul   ebp,DWORD PTR [rsi+0x65],0x63000a0a
    7581:	6f                   	outs   dx,DWORD PTR ds:[rsi]
    7582:	6e                   	outs   dx,BYTE PTR ds:[rsi]
    7583:	73 6f                	jae    0x75f4
    7585:	6c                   	ins    BYTE PTR es:[rdi],dx
    7586:	65 3a 20             	cmp    ah,BYTE PTR gs:[rax]
    7589:	64 6f                	outs   dx,DWORD PTR fs:[rsi]
    758b:	5f                   	pop    rdi
    758c:	63 6f 6d             	movsxd ebp,DWORD PTR [rdi+0x6d]
    758f:	6d                   	ins    DWORD PTR es:[rdi],dx
    7590:	61                   	(bad)  
    7591:	6e                   	outs   dx,BYTE PTR ds:[rsi]
    7592:	64 0a 0a             	or     cl,BYTE PTR fs:[rdx]
    7595:	00 63 6f             	add    BYTE PTR [rbx+0x6f],ah
    7598:	6e                   	outs   dx,BYTE PTR ds:[rsi]
    7599:	73 6f                	jae    0x760a
    759b:	6c                   	ins    BYTE PTR es:[rdi],dx
    759c:	65 3a 20             	cmp    ah,BYTE PTR gs:[rax]
    759f:	77 72                	ja     0x7613
    75a1:	69 74 65 6c 69 6e 65 	imul   esi,DWORD PTR [rbp+riz*2+0x6c],0x73656e69
    75a8:	73 
    75a9:	0a 0a                	or     cl,BYTE PTR [rdx]
    75ab:	00 63 6f             	add    BYTE PTR [rbx+0x6f],ah
    75ae:	6e                   	outs   dx,BYTE PTR ds:[rsi]
    75af:	73 6f                	jae    0x7620
    75b1:	6c                   	ins    BYTE PTR es:[rdi],dx
    75b2:	65 3a 20             	cmp    ah,BYTE PTR gs:[rax]
    75b5:	66 6c                	data16 ins BYTE PTR es:[rdi],dx
    75b7:	75 73                	jne    0x762c
    75b9:	68 0a 0a 00 63       	push   0x63000a0a
    75be:	6f                   	outs   dx,DWORD PTR ds:[rsi]
    75bf:	6e                   	outs   dx,BYTE PTR ds:[rsi]
    75c0:	73 6f                	jae    0x7631
    75c2:	6c                   	ins    BYTE PTR es:[rdi],dx
    75c3:	65 3a 20             	cmp    ah,BYTE PTR gs:[rax]
    75c6:	6c                   	ins    BYTE PTR es:[rdi],dx
    75c7:	6f                   	outs   dx,DWORD PTR ds:[rsi]
    75c8:	6f                   	outs   dx,DWORD PTR ds:[rsi]
    75c9:	70 20                	jo     0x75eb
    75cb:	62                   	(bad)  
    75cc:	6f                   	outs   dx,DWORD PTR ds:[rsi]
    75cd:	74 74                	je     0x7643
    75cf:	6f                   	outs   dx,DWORD PTR ds:[rsi]
    75d0:	6d                   	ins    DWORD PTR es:[rdi],dx
    75d1:	0a 0a                	or     cl,BYTE PTR [rdx]
    75d3:	00 99 9e 36 00 ff    	add    BYTE PTR [rcx-0xffc962],bl
    75d9:	ff                   	(bad)  
    75da:	ff                   	(bad)  
    75db:	ff 66 61             	jmp    QWORD PTR [rsi+0x61]
    75de:	69 6c 65 64 20 74 6f 	imul   ebp,DWORD PTR [rbp+riz*2+0x64],0x206f7420
    75e5:	20 
    75e6:	67 65 74 20          	addr32 gs je 0x760a
    75ea:	58                   	pop    rax
    75eb:	53                   	push   rbx
    75ec:	44 54                	rex.R push rsp
    75ee:	0a 00                	or     al,BYTE PTR [rax]
    75f0:	70 6d                	jo     0x765f
    75f2:	5f                   	pop    rdi
    75f3:	74 69                	je     0x765e
    75f5:	6d                   	ins    DWORD PTR es:[rdi],dx
    75f6:	65 72 5f             	gs jb  0x7658
    75f9:	61                   	(bad)  
    75fa:	64 64 72 3a          	fs fs jb 0x7638
    75fe:	20 00                	and    BYTE PTR [rax],al
    7600:	0a 00                	or     al,BYTE PTR [rax]
    7602:	73 74                	jae    0x7678
    7604:	61                   	(bad)  
    7605:	72 74                	jb     0x767b
    7607:	3a 20                	cmp    ah,BYTE PTR [rax]
    7609:	00 65 6e             	add    BYTE PTR [rbp+0x6e],ah
    760c:	64 3a 20             	cmp    ah,BYTE PTR fs:[rax]
    760f:	00 61 66             	add    BYTE PTR [rcx+0x66],ah
    7612:	74 65                	je     0x7679
    7614:	72 20                	jb     0x7636
    7616:	69 66 0a 00 61 66 74 	imul   esp,DWORD PTR [rsi+0xa],0x74666100
    761d:	65 72 20             	gs jb  0x7640
    7620:	77 68                	ja     0x768a
    7622:	69 6c 65 0a 00 62 65 	imul   ebp,DWORD PTR [rbp+riz*2+0xa],0x66656200
    7629:	66 
    762a:	6f                   	outs   dx,DWORD PTR ds:[rsi]
    762b:	72 65                	jb     0x7692
    762d:	20 77 61             	and    BYTE PTR [rdi+0x61],dh
    7630:	69 74 5f 6d 69 6c 6c 	imul   esi,DWORD PTR [rdi+rbx*2+0x6d],0x696c6c69
    7637:	69 
    7638:	73 65                	jae    0x769f
    763a:	63 6f 6e             	movsxd ebp,DWORD PTR [rdi+0x6e]
    763d:	64 73 0a             	fs jae 0x764a
    7640:	00 61 66             	add    BYTE PTR [rcx+0x66],ah
    7643:	74 65                	je     0x76aa
    7645:	72 20                	jb     0x7667
    7647:	77 61                	ja     0x76aa
    7649:	69 74 5f 6d 69 6c 6c 	imul   esi,DWORD PTR [rdi+rbx*2+0x6d],0x696c6c69
    7650:	69 
    7651:	73 65                	jae    0x76b8
    7653:	63 6f 6e             	movsxd ebp,DWORD PTR [rdi+0x6e]
    7656:	64 73 0a             	fs jae 0x7663
    7659:	00 73 74             	add    BYTE PTR [rbx+0x74],dh
    765c:	61                   	(bad)  
    765d:	72 74                	jb     0x76d3
    765f:	20 69 6e             	and    BYTE PTR [rcx+0x6e],ch
    7662:	69 74 5f 6c 6f 63 61 	imul   esi,DWORD PTR [rdi+rbx*2+0x6c],0x6c61636f
    7669:	6c 
    766a:	5f                   	pop    rdi
    766b:	41 50                	push   r8
    766d:	49                   	rex.WB
    766e:	43 0a 00             	rex.XB or al,BYTE PTR [r8]
    7671:	46                   	rex.RX
    7672:	41                   	rex.B
    7673:	43 50                	rex.XB push r8
    7675:	00 66 61             	add    BYTE PTR [rsi+0x61],ah
    7678:	69 6c 65 64 20 74 6f 	imul   ebp,DWORD PTR [rbp+riz*2+0x64],0x206f7420
    767f:	20 
    7680:	67 65 74 20          	addr32 gs je 0x76a4
    7684:	46                   	rex.RX
    7685:	41                   	rex.B
    7686:	44 54                	rex.R push rsp
    7688:	0a 00                	or     al,BYTE PTR [rax]
    768a:	46                   	rex.RX
    768b:	41                   	rex.B
    768c:	44 54                	rex.R push rsp
    768e:	3a 20                	cmp    ah,BYTE PTR [rax]
    7690:	00 67 65             	add    BYTE PTR [rdi+0x65],ah
    7693:	74 20                	je     0x76b5
    7695:	50                   	push   rax
    7696:	4d 5f                	rex.WRB pop r15
    7698:	54                   	push   rsp
    7699:	4d 52                	rex.WRB push r10
    769b:	5f                   	pop    rdi
    769c:	42                   	rex.X
    769d:	4c                   	rex.WR
    769e:	4b 0a 00             	rex.WXB or al,BYTE PTR [r8]
    76a1:	50                   	push   rax
    76a2:	4d 5f                	rex.WRB pop r15
    76a4:	54                   	push   rsp
    76a5:	4d 52                	rex.WRB push r10
    76a7:	5f                   	pop    rdi
    76a8:	42                   	rex.X
    76a9:	4c                   	rex.WR
    76aa:	4b 3a 20             	rex.WXB cmp spl,BYTE PTR [r8]
    76ad:	00 66 61             	add    BYTE PTR [rsi+0x61],ah
    76b0:	64 74 2d             	fs je  0x76e0
    76b3:	3e 66 6c             	ds data16 ins BYTE PTR es:[rdi],dx
    76b6:	61                   	(bad)  
    76b7:	67 73 3a             	addr32 jae 0x76f4
    76ba:	20 00                	and    BYTE PTR [rax],al
    76bc:	6c                   	ins    BYTE PTR es:[rdi],dx
    76bd:	61                   	(bad)  
    76be:	70 69                	jo     0x7729
    76c0:	63 5f 66             	movsxd ebx,DWORD PTR [rdi+0x66]
    76c3:	72 65                	jb     0x772a
    76c5:	71 3a                	jno    0x7701
    76c7:	20 00                	and    BYTE PTR [rax],al
    76c9:	2a 4c 56 54          	sub    cl,BYTE PTR [rsi+rdx*2+0x54]
    76cd:	5f                   	pop    rdi
    76ce:	54                   	push   rsp
    76cf:	69 6d 65 72 3a 20 00 	imul   ebp,DWORD PTR [rbp+0x65],0x203a72
    76d6:	61                   	(bad)  
    76d7:	72 67                	jb     0x7740
    76d9:	63 3a                	movsxd edi,DWORD PTR [rdx]
    76db:	20 00                	and    BYTE PTR [rax],al
    76dd:	0a 00                	or     al,BYTE PTR [rax]
    76df:	61                   	(bad)  
    76e0:	72 67                	jb     0x7749
    76e2:	76 5b                	jbe    0x773f
    76e4:	31 5d 3a             	xor    DWORD PTR [rbp+0x3a],ebx
    76e7:	20 00                	and    BYTE PTR [rax],al
    76e9:	65 63 68 6f          	movsxd ebp,DWORD PTR gs:[rax+0x6f]
    76ed:	3a 20                	cmp    ah,BYTE PTR [rax]
    76ef:	62 61 64 20 61       	(bad)
    76f4:	72 67                	jb     0x775d
    76f6:	73 00                	jae    0x76f8
    76f8:	75 70                	jne    0x776a
    76fa:	74 69                	je     0x7765
    76fc:	6d                   	ins    DWORD PTR es:[rdi],dx
    76fd:	65 3a 20             	cmp    ah,BYTE PTR gs:[rax]
    7700:	62 61 64 20 61       	(bad)
    7705:	72 67                	jb     0x776e
    7707:	73 00                	jae    0x7709
    7709:	61                   	(bad)  
    770a:	72 67                	jb     0x7773
    770c:	63 3a                	movsxd edi,DWORD PTR [rdx]
    770e:	20 00                	and    BYTE PTR [rax],al
    7710:	0a 00                	or     al,BYTE PTR [rax]
    7712:	20 00                	and    BYTE PTR [rax],al
    7714:	73 6c                	jae    0x7782
    7716:	65 65 70 3a          	gs gs jo 0x7754
    771a:	20 62 61             	and    BYTE PTR [rdx+0x61],ah
    771d:	64 20 61 72          	and    BYTE PTR fs:[rcx+0x72],ah
    7721:	67 73 00             	addr32 jae 0x7724
    7724:	0f 1f 40 00          	nop    DWORD PTR [rax+0x0]
    7728:	74 68                	je     0x7792
    772a:	72 65                	jb     0x7791
    772c:	61                   	(bad)  
    772d:	64 20 73 74          	and    BYTE PTR fs:[rbx+0x74],dh
    7731:	61                   	(bad)  
    7732:	63 6b 20             	movsxd ebp,DWORD PTR [rbx+0x20]
    7735:	62                   	(bad)  
    7736:	6f                   	outs   dx,DWORD PTR ds:[rsi]
    7737:	74 74                	je     0x77ad
    7739:	6f                   	outs   dx,DWORD PTR ds:[rsi]
    773a:	6d                   	ins    DWORD PTR es:[rdi],dx
    773b:	3a 20                	cmp    ah,BYTE PTR [rax]
    773d:	00 0a                	add    BYTE PTR [rdx],cl
    773f:	00 74 68 72          	add    BYTE PTR [rax+rbp*2+0x72],dh
    7743:	65 61                	gs (bad) 
    7745:	64 20 72 73          	and    BYTE PTR fs:[rdx+0x73],dh
    7749:	70 3a                	jo     0x7785
    774b:	20 00                	and    BYTE PTR [rax],al
    774d:	74 68                	je     0x77b7
    774f:	72 65                	jb     0x77b6
    7751:	61                   	(bad)  
    7752:	64 5f                	fs pop rdi
    7754:	73 63                	jae    0x77b9
    7756:	68 65 64 75 6c       	push   0x6c756465
    775b:	65 72 20             	gs jb  0x777e
    775e:	6f                   	outs   dx,DWORD PTR ds:[rsi]
    775f:	6c                   	ins    BYTE PTR es:[rdi],dx
    7760:	64 5f                	fs pop rdi
    7762:	72 69                	jb     0x77cd
    7764:	70 3a                	jo     0x77a0
    7766:	20 00                	and    BYTE PTR [rax],al
    7768:	74 68                	je     0x77d2
    776a:	72 65                	jb     0x77d1
    776c:	61                   	(bad)  
    776d:	64 73 5b             	fs jae 0x77cb
    7770:	6f                   	outs   dx,DWORD PTR ds:[rsi]
    7771:	6c                   	ins    BYTE PTR es:[rdi],dx
    7772:	64 5f                	fs pop rdi
    7774:	74 68                	je     0x77de
    7776:	72 65                	jb     0x77dd
    7778:	61                   	(bad)  
    7779:	64 5f                	fs pop rdi
    777b:	69 6e 64 65 78 5d 2e 	imul   ebp,DWORD PTR [rsi+0x64],0x2e5d7865
    7782:	72 69                	jb     0x77ed
    7784:	70 3a                	jo     0x77c0
    7786:	20 00                	and    BYTE PTR [rax],al
    7788:	6e                   	outs   dx,BYTE PTR ds:[rsi]
    7789:	65 78 74             	gs js  0x7800
    778c:	20 74 68 72          	and    BYTE PTR [rax+rbp*2+0x72],dh
    7790:	65 61                	gs (bad) 
    7792:	64 20 69 6e          	and    BYTE PTR fs:[rcx+0x6e],ch
    7796:	64 65 78 3a          	fs gs js 0x77d4
    779a:	20 00                	and    BYTE PTR [rax],al
    779c:	6e                   	outs   dx,BYTE PTR ds:[rsi]
    779d:	65 78 74             	gs js  0x7814
    77a0:	20 73 74             	and    BYTE PTR [rbx+0x74],dh
    77a3:	61                   	(bad)  
    77a4:	72 74                	jb     0x781a
    77a6:	20 72 73             	and    BYTE PTR [rdx+0x73],dh
    77a9:	70 3a                	jo     0x77e5
    77ab:	20 00                	and    BYTE PTR [rax],al
    77ad:	6e                   	outs   dx,BYTE PTR ds:[rsi]
    77ae:	65 78 74             	gs js  0x7825
    77b1:	20 73 74             	and    BYTE PTR [rbx+0x74],dh
    77b4:	61                   	(bad)  
    77b5:	72 74                	jb     0x782b
    77b7:	20 66 75             	and    BYTE PTR [rsi+0x75],ah
    77ba:	6e                   	outs   dx,BYTE PTR ds:[rsi]
    77bb:	63 20                	movsxd esp,DWORD PTR [rax]
    77bd:	61                   	(bad)  
    77be:	64 64 72 65          	fs fs jb 0x7827
    77c2:	73 73                	jae    0x7837
    77c4:	3a 20                	cmp    ah,BYTE PTR [rax]
    77c6:	00 6e 65             	add    BYTE PTR [rsi+0x65],ch
    77c9:	78 74                	js     0x783f
    77cb:	20 74 68 72          	and    BYTE PTR [rax+rbp*2+0x72],dh
    77cf:	65 61                	gs (bad) 
    77d1:	64 20 72 69          	and    BYTE PTR fs:[rdx+0x69],dh
    77d5:	70 3a                	jo     0x7811
    77d7:	20 00                	and    BYTE PTR [rax],al
    77d9:	0a 0a                	or     cl,BYTE PTR [rdx]
    77db:	00 64 69 73          	add    BYTE PTR [rcx+rbp*2+0x73],ah
    77df:	70 61                	jo     0x7842
    77e1:	74 63                	je     0x7846
    77e3:	68 20 73 74 61       	push   0x61747320
    77e8:	72 74                	jb     0x785e
    77ea:	0a 0a                	or     cl,BYTE PTR [rdx]
    77ec:	00 0f                	add    BYTE PTR [rdi],cl
    77ee:	1f                   	(bad)  
    77ef:	00 80 00 00 00 00    	add    BYTE PTR [rax+0x0],al
    77f5:	00 00                	add    BYTE PTR [rax],al
    77f7:	00 00                	add    BYTE PTR [rax],al
    77f9:	10 00                	adc    BYTE PTR [rax],al
    77fb:	00 00                	add    BYTE PTR [rax],al
    77fd:	00 00                	add    BYTE PTR [rax],al
    77ff:	00 00                	add    BYTE PTR [rax],al
    7801:	20 00                	and    BYTE PTR [rax],al
    7803:	00 00                	add    BYTE PTR [rax],al
    7805:	00 00                	add    BYTE PTR [rax],al
    7807:	00 00                	add    BYTE PTR [rax],al
    7809:	30 00                	xor    BYTE PTR [rax],al
    780b:	00 00                	add    BYTE PTR [rax],al
    780d:	00 00                	add    BYTE PTR [rax],al
    780f:	00 00                	add    BYTE PTR [rax],al
    7811:	30 01                	xor    BYTE PTR [rcx],al
    7813:	00 00                	add    BYTE PTR [rax],al
    7815:	00 00                	add    BYTE PTR [rax],al
    7817:	00 0f                	add    BYTE PTR [rdi],cl
    7819:	1f                   	(bad)  
    781a:	84 00                	test   BYTE PTR [rax],al
    7830:	00 10                	add    BYTE PTR [rax],dl
    7832:	10 10                	adc    BYTE PTR [rax],dl
    7834:	10 10                	adc    BYTE PTR [rax],dl
    7836:	10 10                	adc    BYTE PTR [rax],dl
    7838:	10 10                	adc    BYTE PTR [rax],dl
    783a:	00 00                	add    BYTE PTR [rax],al
    783c:	10 10                	adc    BYTE PTR [rax],dl
    783e:	00 00                	add    BYTE PTR [rax],al
    7840:	28 28                	sub    BYTE PTR [rax],ch
    7842:	28 00                	sub    BYTE PTR [rax],al
    7850:	00 44 44 44          	add    BYTE PTR [rsp+rax*2+0x44],al
    7854:	fe 44 44 44          	inc    BYTE PTR [rsp+rax*2+0x44]
    7858:	44                   	rex.R
    7859:	44 fe 44 44 44       	rex.R inc BYTE PTR [rsp+rax*2+0x44]
    785e:	00 00                	add    BYTE PTR [rax],al
    7860:	10 3a                	adc    BYTE PTR [rdx],bh
    7862:	56                   	push   rsi
    7863:	92                   	xchg   edx,eax
    7864:	92                   	xchg   edx,eax
    7865:	90                   	nop
    7866:	50                   	push   rax
    7867:	38 14 12             	cmp    BYTE PTR [rdx+rdx*1],dl
    786a:	92                   	xchg   edx,eax
    786b:	92                   	xchg   edx,eax
    786c:	d4                   	(bad)  
    786d:	b8 10 10 62 92       	mov    eax,0x92621010
    7872:	94                   	xchg   esp,eax
    7873:	94                   	xchg   esp,eax
    7874:	68 08 10 10 20       	push   0x20101008
    7879:	2c 52                	sub    al,0x52
    787b:	52                   	push   rdx
    787c:	92                   	xchg   edx,eax
    787d:	8c 00                	mov    WORD PTR [rax],es
    787f:	00 00                	add    BYTE PTR [rax],al
    7881:	70 88                	jo     0x780b
    7883:	88 88 90 60 47 a2    	mov    BYTE PTR [rax-0x5db89f70],cl
    7889:	92                   	xchg   edx,eax
    788a:	8a 84 46 39 00 00 04 	mov    al,BYTE PTR [rsi+rax*2+0x4000039]
    7891:	08 10                	or     BYTE PTR [rax],dl
    789f:	00 02                	add    BYTE PTR [rdx],al
    78a1:	04 08                	add    al,0x8
    78a3:	08 10                	or     BYTE PTR [rax],dl
    78a5:	10 10                	adc    BYTE PTR [rax],dl
    78a7:	10 10                	adc    BYTE PTR [rax],dl
    78a9:	10 10                	adc    BYTE PTR [rax],dl
    78ab:	08 08                	or     BYTE PTR [rax],cl
    78ad:	04 02                	add    al,0x2
    78af:	00 80 40 20 20 10    	add    BYTE PTR [rax+0x10202040],al
    78b5:	10 10                	adc    BYTE PTR [rax],dl
    78b7:	10 10                	adc    BYTE PTR [rax],dl
    78b9:	10 10                	adc    BYTE PTR [rax],dl
    78bb:	20 20                	and    BYTE PTR [rax],ah
    78bd:	40 80 00 00          	rex add BYTE PTR [rax],0x0
    78c1:	00 00                	add    BYTE PTR [rax],al
    78c3:	00 00                	add    BYTE PTR [rax],al
    78c5:	10 92 54 38 54 92    	adc    BYTE PTR [rdx-0x6dabc7ac],dl
    78cb:	10 00                	adc    BYTE PTR [rax],al
    78d5:	10 10                	adc    BYTE PTR [rax],dl
    78d7:	10 fe                	adc    dh,bh
    78d9:	10 10                	adc    BYTE PTR [rax],dl
    78db:	10 00                	adc    BYTE PTR [rax],al
    78e9:	00 00                	add    BYTE PTR [rax],al
    78eb:	18 18                	sbb    BYTE PTR [rax],bl
    78ed:	08 08                	or     BYTE PTR [rax],cl
    78ef:	10 00                	adc    BYTE PTR [rax],al
    78f1:	00 00                	add    BYTE PTR [rax],al
    78f3:	00 00                	add    BYTE PTR [rax],al
    78f5:	00 00                	add    BYTE PTR [rax],al
    78f7:	00 fe                	add    dh,bh
    7909:	00 00                	add    BYTE PTR [rax],al
    790b:	00 18                	add    BYTE PTR [rax],bl
    790d:	18 00                	sbb    BYTE PTR [rax],al
    790f:	00 02                	add    BYTE PTR [rdx],al
    7911:	02 04 04             	add    al,BYTE PTR [rsp+rax*1]
    7914:	08 08                	or     BYTE PTR [rax],cl
    7916:	08 10                	or     BYTE PTR [rax],dl
    7918:	10 20                	adc    BYTE PTR [rax],ah
    791a:	20 40 40             	and    BYTE PTR [rax+0x40],al
    791d:	40 80 80 00 18 24 24 	rex add BYTE PTR [rax+0x24241800],0x42
    7924:	42 
    7925:	42                   	rex.X
    7926:	42                   	rex.X
    7927:	42                   	rex.X
    7928:	42                   	rex.X
    7929:	42                   	rex.X
    792a:	42 24 24             	rex.X and al,0x24
    792d:	18 00                	sbb    BYTE PTR [rax],al
    792f:	00 00                	add    BYTE PTR [rax],al
    7931:	08 18                	or     BYTE PTR [rax],bl
    7933:	28 08                	sub    BYTE PTR [rax],cl
    7935:	08 08                	or     BYTE PTR [rax],cl
    7937:	08 08                	or     BYTE PTR [rax],cl
    7939:	08 08                	or     BYTE PTR [rax],cl
    793b:	08 08                	or     BYTE PTR [rax],cl
    793d:	3e 00 00             	add    BYTE PTR ds:[rax],al
    7940:	00 18                	add    BYTE PTR [rax],bl
    7942:	24 42                	and    al,0x42
    7944:	42 02 04 08          	add    al,BYTE PTR [rax+r9*1]
    7948:	10 20                	adc    BYTE PTR [rax],ah
    794a:	20 40 40             	and    BYTE PTR [rax+0x40],al
    794d:	7e 00                	jle    0x794f
    794f:	00 00                	add    BYTE PTR [rax],al
    7951:	18 24 42             	sbb    BYTE PTR [rdx+rax*2],ah
    7954:	02 02                	add    al,BYTE PTR [rdx]
    7956:	04 18                	add    al,0x18
    7958:	04 02                	add    al,0x2
    795a:	02 42 24             	add    al,BYTE PTR [rdx+0x24]
    795d:	18 00                	sbb    BYTE PTR [rax],al
    795f:	00 00                	add    BYTE PTR [rax],al
    7961:	0c 0c                	or     al,0xc
    7963:	0c 14                	or     al,0x14
    7965:	14 14                	adc    al,0x14
    7967:	24 24                	and    al,0x24
    7969:	44 7e 04             	rex.R jle 0x7970
    796c:	04 1e                	add    al,0x1e
    796e:	00 00                	add    BYTE PTR [rax],al
    7970:	00 7c 40 40          	add    BYTE PTR [rax+rax*2+0x40],bh
    7974:	40 58                	rex pop rax
    7976:	64 02 02             	add    al,BYTE PTR fs:[rdx]
    7979:	02 02                	add    al,BYTE PTR [rdx]
    797b:	42 24 18             	rex.X and al,0x18
    797e:	00 00                	add    BYTE PTR [rax],al
    7980:	00 18                	add    BYTE PTR [rax],bl
    7982:	24 42                	and    al,0x42
    7984:	40 58                	rex pop rax
    7986:	64 42                	fs rex.X
    7988:	42                   	rex.X
    7989:	42                   	rex.X
    798a:	42                   	rex.X
    798b:	42 24 18             	rex.X and al,0x18
    798e:	00 00                	add    BYTE PTR [rax],al
    7990:	00 7e 42             	add    BYTE PTR [rsi+0x42],bh
    7993:	42 04 04             	rex.X add al,0x4
    7996:	08 08                	or     BYTE PTR [rax],cl
    7998:	08 10                	or     BYTE PTR [rax],dl
    799a:	10 10                	adc    BYTE PTR [rax],dl
    799c:	10 38                	adc    BYTE PTR [rax],bh
    799e:	00 00                	add    BYTE PTR [rax],al
    79a0:	00 18                	add    BYTE PTR [rax],bl
    79a2:	24 42                	and    al,0x42
    79a4:	42                   	rex.X
    79a5:	42 24 18             	rex.X and al,0x18
    79a8:	24 42                	and    al,0x42
    79aa:	42                   	rex.X
    79ab:	42 24 18             	rex.X and al,0x18
    79ae:	00 00                	add    BYTE PTR [rax],al
    79b0:	00 18                	add    BYTE PTR [rax],bl
    79b2:	24 42                	and    al,0x42
    79b4:	42                   	rex.X
    79b5:	42                   	rex.X
    79b6:	42                   	rex.X
    79b7:	42                   	rex.X
    79b8:	26 1a 02             	sbb    al,BYTE PTR es:[rdx]
    79bb:	42 24 18             	rex.X and al,0x18
    79be:	00 00                	add    BYTE PTR [rax],al
    79c0:	00 00                	add    BYTE PTR [rax],al
    79c2:	00 00                	add    BYTE PTR [rax],al
    79c4:	00 18                	add    BYTE PTR [rax],bl
    79c6:	18 00                	sbb    BYTE PTR [rax],al
    79c8:	00 00                	add    BYTE PTR [rax],al
    79ca:	00 00                	add    BYTE PTR [rax],al
    79cc:	18 18                	sbb    BYTE PTR [rax],bl
    79ce:	00 00                	add    BYTE PTR [rax],al
    79d0:	00 00                	add    BYTE PTR [rax],al
    79d2:	00 00                	add    BYTE PTR [rax],al
    79d4:	00 18                	add    BYTE PTR [rax],bl
    79d6:	18 00                	sbb    BYTE PTR [rax],al
    79d8:	00 00                	add    BYTE PTR [rax],al
    79da:	00 18                	add    BYTE PTR [rax],bl
    79dc:	18 08                	sbb    BYTE PTR [rax],cl
    79de:	08 10                	or     BYTE PTR [rax],dl
    79e0:	00 02                	add    BYTE PTR [rdx],al
    79e2:	04 08                	add    al,0x8
    79e4:	10 20                	adc    BYTE PTR [rax],ah
    79e6:	40 80 80 40 20 10 08 	rex add BYTE PTR [rax+0x8102040],0x4
    79ed:	04 
    79ee:	02 00                	add    al,BYTE PTR [rax]
    79f0:	00 00                	add    BYTE PTR [rax],al
    79f2:	00 00                	add    BYTE PTR [rax],al
    79f4:	00 00                	add    BYTE PTR [rax],al
    79f6:	fe 00                	inc    BYTE PTR [rax]
    79f8:	00 fe                	add    dh,bh
    79fa:	00 00                	add    BYTE PTR [rax],al
    79fc:	00 00                	add    BYTE PTR [rax],al
    79fe:	00 00                	add    BYTE PTR [rax],al
    7a00:	00 80 40 20 10 08    	add    BYTE PTR [rax+0x8102040],al
    7a06:	04 02                	add    al,0x2
    7a08:	02 04 08             	add    al,BYTE PTR [rax+rcx*1]
    7a0b:	10 20                	adc    BYTE PTR [rax],ah
    7a0d:	40 80 00 00          	rex add BYTE PTR [rax],0x0
    7a11:	38 44 82 82          	cmp    BYTE PTR [rdx+rax*4-0x7e],al
    7a15:	82                   	(bad)  
    7a16:	04 08                	add    al,0x8
    7a18:	10 10                	adc    BYTE PTR [rax],dl
    7a1a:	00 00                	add    BYTE PTR [rax],al
    7a1c:	18 18                	sbb    BYTE PTR [rax],bl
    7a1e:	00 00                	add    BYTE PTR [rax],al
    7a20:	00 38                	add    BYTE PTR [rax],bh
    7a22:	44 82                	rex.R (bad) 
    7a24:	9a                   	(bad)  
    7a25:	aa                   	stos   BYTE PTR es:[rdi],al
    7a26:	aa                   	stos   BYTE PTR es:[rdi],al
    7a27:	aa                   	stos   BYTE PTR es:[rdi],al
    7a28:	aa                   	stos   BYTE PTR es:[rdi],al
    7a29:	aa                   	stos   BYTE PTR es:[rdi],al
    7a2a:	9c                   	pushf  
    7a2b:	80 46 38 00          	add    BYTE PTR [rsi+0x38],0x0
    7a2f:	00 00                	add    BYTE PTR [rax],al
    7a31:	18 18                	sbb    BYTE PTR [rax],bl
    7a33:	18 18                	sbb    BYTE PTR [rax],bl
    7a35:	24 24                	and    al,0x24
    7a37:	24 24                	and    al,0x24
    7a39:	7e 42                	jle    0x7a7d
    7a3b:	42                   	rex.X
    7a3c:	42 e7 00             	rex.X out 0x0,eax
    7a3f:	00 00                	add    BYTE PTR [rax],al
    7a41:	f0 48                	lock rex.W
    7a43:	44                   	rex.R
    7a44:	44                   	rex.R
    7a45:	44                   	rex.R
    7a46:	48 78 44             	rex.W js 0x7a8d
    7a49:	42                   	rex.X
    7a4a:	42                   	rex.X
    7a4b:	42                   	rex.X
    7a4c:	44 f8                	rex.R clc 
    7a4e:	00 00                	add    BYTE PTR [rax],al
    7a50:	00 3a                	add    BYTE PTR [rdx],bh
    7a52:	46                   	rex.RX
    7a53:	42 82                	rex.X (bad) 
    7a55:	80 80 80 80 80 82 42 	add    BYTE PTR [rax-0x7d7f7f80],0x42
    7a5c:	44 38 00             	cmp    BYTE PTR [rax],r8b
    7a5f:	00 00                	add    BYTE PTR [rax],al
    7a61:	f8                   	clc    
    7a62:	44                   	rex.R
    7a63:	44                   	rex.R
    7a64:	42                   	rex.X
    7a65:	42                   	rex.X
    7a66:	42                   	rex.X
    7a67:	42                   	rex.X
    7a68:	42                   	rex.X
    7a69:	42                   	rex.X
    7a6a:	42                   	rex.X
    7a6b:	44                   	rex.R
    7a6c:	44 f8                	rex.R clc 
    7a6e:	00 00                	add    BYTE PTR [rax],al
    7a70:	00 fe                	add    dh,bh
    7a72:	42                   	rex.X
    7a73:	42                   	rex.X
    7a74:	40                   	rex
    7a75:	40                   	rex
    7a76:	44 7c 44             	rex.R jl 0x7abd
    7a79:	40                   	rex
    7a7a:	40                   	rex
    7a7b:	42                   	rex.X
    7a7c:	42 fe 00             	rex.X inc BYTE PTR [rax]
    7a7f:	00 00                	add    BYTE PTR [rax],al
    7a81:	fe 42 42             	inc    BYTE PTR [rdx+0x42]
    7a84:	40                   	rex
    7a85:	40                   	rex
    7a86:	44 7c 44             	rex.R jl 0x7acd
    7a89:	44                   	rex.R
    7a8a:	40                   	rex
    7a8b:	40                   	rex
    7a8c:	40                   	rex
    7a8d:	f0 00 00             	lock add BYTE PTR [rax],al
    7a90:	00 3a                	add    BYTE PTR [rdx],bh
    7a92:	46                   	rex.RX
    7a93:	42 82                	rex.X (bad) 
    7a95:	80 80 9e 82 82 82 42 	add    BYTE PTR [rax-0x7d7d7d62],0x42
    7a9c:	46 38 00             	rex.RX cmp BYTE PTR [rax],r8b
    7a9f:	00 00                	add    BYTE PTR [rax],al
    7aa1:	e7 42                	out    0x42,eax
    7aa3:	42                   	rex.X
    7aa4:	42                   	rex.X
    7aa5:	42                   	rex.X
    7aa6:	42 7e 42             	rex.X jle 0x7aeb
    7aa9:	42                   	rex.X
    7aaa:	42                   	rex.X
    7aab:	42                   	rex.X
    7aac:	42 e7 00             	rex.X out 0x0,eax
    7aaf:	00 00                	add    BYTE PTR [rax],al
    7ab1:	7c 10                	jl     0x7ac3
    7ab3:	10 10                	adc    BYTE PTR [rax],dl
    7ab5:	10 10                	adc    BYTE PTR [rax],dl
    7ab7:	10 10                	adc    BYTE PTR [rax],dl
    7ab9:	10 10                	adc    BYTE PTR [rax],dl
    7abb:	10 10                	adc    BYTE PTR [rax],dl
    7abd:	7c 00                	jl     0x7abf
    7abf:	00 00                	add    BYTE PTR [rax],al
    7ac1:	1f                   	(bad)  
    7ac2:	04 04                	add    al,0x4
    7ac4:	04 04                	add    al,0x4
    7ac6:	04 04                	add    al,0x4
    7ac8:	04 04                	add    al,0x4
    7aca:	04 04                	add    al,0x4
    7acc:	84 48 30             	test   BYTE PTR [rax+0x30],cl
    7acf:	00 00                	add    BYTE PTR [rax],al
    7ad1:	e7 42                	out    0x42,eax
    7ad3:	44                   	rex.R
    7ad4:	48 50                	rex.W push rax
    7ad6:	50                   	push   rax
    7ad7:	60                   	(bad)  
    7ad8:	50                   	push   rax
    7ad9:	50                   	push   rax
    7ada:	48                   	rex.W
    7adb:	44                   	rex.R
    7adc:	42 e7 00             	rex.X out 0x0,eax
    7adf:	00 00                	add    BYTE PTR [rax],al
    7ae1:	f0 40                	lock rex
    7ae3:	40                   	rex
    7ae4:	40                   	rex
    7ae5:	40                   	rex
    7ae6:	40                   	rex
    7ae7:	40                   	rex
    7ae8:	40                   	rex
    7ae9:	40                   	rex
    7aea:	40                   	rex
    7aeb:	42                   	rex.X
    7aec:	42 fe 00             	rex.X inc BYTE PTR [rax]
    7aef:	00 00                	add    BYTE PTR [rax],al
    7af1:	c3                   	ret    
    7af2:	42                   	rex.X
    7af3:	66 66 66 5a          	data16 data16 pop dx
    7af7:	5a                   	pop    rdx
    7af8:	5a                   	pop    rdx
    7af9:	42                   	rex.X
    7afa:	42                   	rex.X
    7afb:	42                   	rex.X
    7afc:	42 e7 00             	rex.X out 0x0,eax
    7aff:	00 00                	add    BYTE PTR [rax],al
    7b01:	c7 42 62 62 52 52 52 	mov    DWORD PTR [rdx+0x62],0x52525262
    7b08:	4a                   	rex.WX
    7b09:	4a                   	rex.WX
    7b0a:	4a                   	rex.WX
    7b0b:	46                   	rex.RX
    7b0c:	46 e2 00             	rex.RX loop 0x7b0f
    7b0f:	00 00                	add    BYTE PTR [rax],al
    7b11:	38 44 82 82          	cmp    BYTE PTR [rdx+rax*4-0x7e],al
    7b15:	82                   	(bad)  
    7b16:	82                   	(bad)  
    7b17:	82                   	(bad)  
    7b18:	82                   	(bad)  
    7b19:	82                   	(bad)  
    7b1a:	82                   	(bad)  
    7b1b:	82                   	(bad)  
    7b1c:	44 38 00             	cmp    BYTE PTR [rax],r8b
    7b1f:	00 00                	add    BYTE PTR [rax],al
    7b21:	f8                   	clc    
    7b22:	44                   	rex.R
    7b23:	42                   	rex.X
    7b24:	42                   	rex.X
    7b25:	42                   	rex.X
    7b26:	44 78 40             	rex.R js 0x7b69
    7b29:	40                   	rex
    7b2a:	40                   	rex
    7b2b:	40                   	rex
    7b2c:	40                   	rex
    7b2d:	f0 00 00             	lock add BYTE PTR [rax],al
    7b30:	00 38                	add    BYTE PTR [rax],bh
    7b32:	44 82                	rex.R (bad) 
    7b34:	82                   	(bad)  
    7b35:	82                   	(bad)  
    7b36:	82                   	(bad)  
    7b37:	82                   	(bad)  
    7b38:	82                   	(bad)  
    7b39:	82                   	(bad)  
    7b3a:	92                   	xchg   edx,eax
    7b3b:	8a 44 3a 00          	mov    al,BYTE PTR [rdx+rdi*1+0x0]
    7b3f:	00 00                	add    BYTE PTR [rax],al
    7b41:	fc                   	cld    
    7b42:	42                   	rex.X
    7b43:	42                   	rex.X
    7b44:	42                   	rex.X
    7b45:	42 7c 44             	rex.X jl 0x7b8c
    7b48:	42                   	rex.X
    7b49:	42                   	rex.X
    7b4a:	42                   	rex.X
    7b4b:	42                   	rex.X
    7b4c:	42 e7 00             	rex.X out 0x0,eax
    7b4f:	00 00                	add    BYTE PTR [rax],al
    7b51:	3a 46 82             	cmp    al,BYTE PTR [rsi-0x7e]
    7b54:	82                   	(bad)  
    7b55:	80 40 38 04          	add    BYTE PTR [rax+0x38],0x4
    7b59:	02 82 82 c4 b8 00    	add    al,BYTE PTR [rdx+0xb8c482]
    7b5f:	00 00                	add    BYTE PTR [rax],al
    7b61:	fe                   	(bad)  
    7b62:	92                   	xchg   edx,eax
    7b63:	92                   	xchg   edx,eax
    7b64:	10 10                	adc    BYTE PTR [rax],dl
    7b66:	10 10                	adc    BYTE PTR [rax],dl
    7b68:	10 10                	adc    BYTE PTR [rax],dl
    7b6a:	10 10                	adc    BYTE PTR [rax],dl
    7b6c:	10 7c 00 00          	adc    BYTE PTR [rax+rax*1+0x0],bh
    7b70:	00 e7                	add    bh,ah
    7b72:	42                   	rex.X
    7b73:	42                   	rex.X
    7b74:	42                   	rex.X
    7b75:	42                   	rex.X
    7b76:	42                   	rex.X
    7b77:	42                   	rex.X
    7b78:	42                   	rex.X
    7b79:	42                   	rex.X
    7b7a:	42                   	rex.X
    7b7b:	42 24 3c             	rex.X and al,0x3c
    7b7e:	00 00                	add    BYTE PTR [rax],al
    7b80:	00 e7                	add    bh,ah
    7b82:	42                   	rex.X
    7b83:	42                   	rex.X
    7b84:	42                   	rex.X
    7b85:	42 24 24             	rex.X and al,0x24
    7b88:	24 24                	and    al,0x24
    7b8a:	18 18                	sbb    BYTE PTR [rax],bl
    7b8c:	18 18                	sbb    BYTE PTR [rax],bl
    7b8e:	00 00                	add    BYTE PTR [rax],al
    7b90:	00 e7                	add    bh,ah
    7b92:	42                   	rex.X
    7b93:	42                   	rex.X
    7b94:	42 5a                	rex.X pop rdx
    7b96:	5a                   	pop    rdx
    7b97:	5a                   	pop    rdx
    7b98:	5a                   	pop    rdx
    7b99:	24 24                	and    al,0x24
    7b9b:	24 24                	and    al,0x24
    7b9d:	24 00                	and    al,0x0
    7b9f:	00 00                	add    BYTE PTR [rax],al
    7ba1:	e7 42                	out    0x42,eax
    7ba3:	42 24 24             	rex.X and al,0x24
    7ba6:	24 18                	and    al,0x18
    7ba8:	24 24                	and    al,0x24
    7baa:	24 42                	and    al,0x42
    7bac:	42 e7 00             	rex.X out 0x0,eax
    7baf:	00 00                	add    BYTE PTR [rax],al
    7bb1:	ee                   	out    dx,al
    7bb2:	44                   	rex.R
    7bb3:	44                   	rex.R
    7bb4:	44 28 28             	sub    BYTE PTR [rax],r13b
    7bb7:	28 10                	sub    BYTE PTR [rax],dl
    7bb9:	10 10                	adc    BYTE PTR [rax],dl
    7bbb:	10 10                	adc    BYTE PTR [rax],dl
    7bbd:	7c 00                	jl     0x7bbf
    7bbf:	00 00                	add    BYTE PTR [rax],al
    7bc1:	fe 84 84 08 08 10 10 	inc    BYTE PTR [rsp+rax*4+0x10100808]
    7bc8:	20 20                	and    BYTE PTR [rax],ah
    7bca:	40                   	rex
    7bcb:	42 82                	rex.X (bad) 
    7bcd:	fe 00                	inc    BYTE PTR [rax]
    7bcf:	00 00                	add    BYTE PTR [rax],al
    7bd1:	3e 20 20             	and    BYTE PTR ds:[rax],ah
    7bd4:	20 20                	and    BYTE PTR [rax],ah
    7bd6:	20 20                	and    BYTE PTR [rax],ah
    7bd8:	20 20                	and    BYTE PTR [rax],ah
    7bda:	20 20                	and    BYTE PTR [rax],ah
    7bdc:	20 20                	and    BYTE PTR [rax],ah
    7bde:	3e 00 80 80 40 40 20 	add    BYTE PTR ds:[rax+0x20404080],al
    7be5:	20 20                	and    BYTE PTR [rax],ah
    7be7:	10 10                	adc    BYTE PTR [rax],dl
    7be9:	08 08                	or     BYTE PTR [rax],cl
    7beb:	04 04                	add    al,0x4
    7bed:	04 02                	add    al,0x2
    7bef:	02 00                	add    al,BYTE PTR [rax]
    7bf1:	7c 04                	jl     0x7bf7
    7bf3:	04 04                	add    al,0x4
    7bf5:	04 04                	add    al,0x4
    7bf7:	04 04                	add    al,0x4
    7bf9:	04 04                	add    al,0x4
    7bfb:	04 04                	add    al,0x4
    7bfd:	04 7c                	add    al,0x7c
    7bff:	00 00                	add    BYTE PTR [rax],al
    7c01:	10 28                	adc    BYTE PTR [rax],ch
    7c03:	44 82                	rex.R (bad) 
    7c1d:	00 fe                	add    dh,bh
    7c1f:	00 10                	add    BYTE PTR [rax],dl
    7c21:	08 04 00             	or     BYTE PTR [rax+rax*1],al
    7c34:	00 70 08             	add    BYTE PTR [rax+0x8],dh
    7c37:	04 3c                	add    al,0x3c
    7c39:	44 84 84 8c 76 00 00 	test   BYTE PTR [rsp+rcx*4-0x3fffff8a],r8b
    7c40:	c0 
    7c41:	40                   	rex
    7c42:	40                   	rex
    7c43:	40                   	rex
    7c44:	40 58                	rex pop rax
    7c46:	64 42                	fs rex.X
    7c48:	42                   	rex.X
    7c49:	42                   	rex.X
    7c4a:	42                   	rex.X
    7c4b:	42                   	rex.X
    7c4c:	64 58                	fs pop rax
    7c4e:	00 00                	add    BYTE PTR [rax],al
    7c50:	00 00                	add    BYTE PTR [rax],al
    7c52:	00 00                	add    BYTE PTR [rax],al
    7c54:	00 30                	add    BYTE PTR [rax],dh
    7c56:	4c 84 84 80 80 82 44 	rex.WR test BYTE PTR [rax+rax*4+0x38448280],r8b
    7c5d:	38 
    7c5e:	00 00                	add    BYTE PTR [rax],al
    7c60:	0c 04                	or     al,0x4
    7c62:	04 04                	add    al,0x4
    7c64:	04 34                	add    al,0x34
    7c66:	4c 84 84 84 84 84 4c 	rex.WR test BYTE PTR [rsp+rax*4+0x364c8484],r8b
    7c6d:	36 
    7c6e:	00 00                	add    BYTE PTR [rax],al
    7c70:	00 00                	add    BYTE PTR [rax],al
    7c72:	00 00                	add    BYTE PTR [rax],al
    7c74:	00 38                	add    BYTE PTR [rax],bh
    7c76:	44 82                	rex.R (bad) 
    7c78:	82                   	(bad)  
    7c79:	fc                   	cld    
    7c7a:	80 82 42 3c 00 00 0e 	add    BYTE PTR [rdx+0x3c42],0xe
    7c81:	10 10                	adc    BYTE PTR [rax],dl
    7c83:	10 10                	adc    BYTE PTR [rax],dl
    7c85:	7c 10                	jl     0x7c97
    7c87:	10 10                	adc    BYTE PTR [rax],dl
    7c89:	10 10                	adc    BYTE PTR [rax],dl
    7c8b:	10 10                	adc    BYTE PTR [rax],dl
    7c8d:	7c 00                	jl     0x7c8f
    7c8f:	00 00                	add    BYTE PTR [rax],al
    7c91:	00 00                	add    BYTE PTR [rax],al
    7c93:	00 00                	add    BYTE PTR [rax],al
    7c95:	36 4c 84 84 84 84 4c 	rex.WR test BYTE PTR ss:[rsp+rax*4+0x4344c84],r8b
    7c9c:	34 04 
    7c9e:	04 78                	add    al,0x78
    7ca0:	c0 40 40 40          	rol    BYTE PTR [rax+0x40],0x40
    7ca4:	40 58                	rex pop rax
    7ca6:	64 42                	fs rex.X
    7ca8:	42                   	rex.X
    7ca9:	42                   	rex.X
    7caa:	42                   	rex.X
    7cab:	42                   	rex.X
    7cac:	42 e3 00             	rex.X jrcxz 0x7caf
    7caf:	00 00                	add    BYTE PTR [rax],al
    7cb1:	10 10                	adc    BYTE PTR [rax],dl
    7cb3:	00 00                	add    BYTE PTR [rax],al
    7cb5:	30 10                	xor    BYTE PTR [rax],dl
    7cb7:	10 10                	adc    BYTE PTR [rax],dl
    7cb9:	10 10                	adc    BYTE PTR [rax],dl
    7cbb:	10 10                	adc    BYTE PTR [rax],dl
    7cbd:	38 00                	cmp    BYTE PTR [rax],al
    7cbf:	00 00                	add    BYTE PTR [rax],al
    7cc1:	04 04                	add    al,0x4
    7cc3:	00 00                	add    BYTE PTR [rax],al
    7cc5:	0c 04                	or     al,0x4
    7cc7:	04 04                	add    al,0x4
    7cc9:	04 04                	add    al,0x4
    7ccb:	04 04                	add    al,0x4
    7ccd:	08 08                	or     BYTE PTR [rax],cl
    7ccf:	30 c0                	xor    al,al
    7cd1:	40                   	rex
    7cd2:	40                   	rex
    7cd3:	40                   	rex
    7cd4:	40                   	rex
    7cd5:	4e                   	rex.WRX
    7cd6:	44                   	rex.R
    7cd7:	48 50                	rex.W push rax
    7cd9:	60                   	(bad)  
    7cda:	50                   	push   rax
    7cdb:	48                   	rex.W
    7cdc:	44 e6 00             	rex.R out 0x0,al
    7cdf:	00 30                	add    BYTE PTR [rax],dh
    7ce1:	10 10                	adc    BYTE PTR [rax],dl
    7ce3:	10 10                	adc    BYTE PTR [rax],dl
    7ce5:	10 10                	adc    BYTE PTR [rax],dl
    7ce7:	10 10                	adc    BYTE PTR [rax],dl
    7ce9:	10 10                	adc    BYTE PTR [rax],dl
    7ceb:	10 10                	adc    BYTE PTR [rax],dl
    7ced:	38 00                	cmp    BYTE PTR [rax],al
    7cef:	00 00                	add    BYTE PTR [rax],al
    7cf1:	00 00                	add    BYTE PTR [rax],al
    7cf3:	00 00                	add    BYTE PTR [rax],al
    7cf5:	f6 49 49 49          	test   BYTE PTR [rcx+0x49],0x49
    7cf9:	49                   	rex.WB
    7cfa:	49                   	rex.WB
    7cfb:	49                   	rex.WB
    7cfc:	49 db 00             	rex.WB fild DWORD PTR [r8]
    7cff:	00 00                	add    BYTE PTR [rax],al
    7d01:	00 00                	add    BYTE PTR [rax],al
    7d03:	00 00                	add    BYTE PTR [rax],al
    7d05:	d8 64 42 42          	fsub   DWORD PTR [rdx+rax*2+0x42]
    7d09:	42                   	rex.X
    7d0a:	42                   	rex.X
    7d0b:	42                   	rex.X
    7d0c:	42 e3 00             	rex.X jrcxz 0x7d0f
    7d0f:	00 00                	add    BYTE PTR [rax],al
    7d11:	00 00                	add    BYTE PTR [rax],al
    7d13:	00 00                	add    BYTE PTR [rax],al
    7d15:	38 44 82 82          	cmp    BYTE PTR [rdx+rax*4-0x7e],al
    7d19:	82                   	(bad)  
    7d1a:	82                   	(bad)  
    7d1b:	82                   	(bad)  
    7d1c:	44 38 00             	cmp    BYTE PTR [rax],r8b
    7d1f:	00 00                	add    BYTE PTR [rax],al
    7d21:	00 00                	add    BYTE PTR [rax],al
    7d23:	00 00                	add    BYTE PTR [rax],al
    7d25:	d8 64 42 42          	fsub   DWORD PTR [rdx+rax*2+0x42]
    7d29:	42                   	rex.X
    7d2a:	42                   	rex.X
    7d2b:	42                   	rex.X
    7d2c:	64 58                	fs pop rax
    7d2e:	40 e0 00             	rex loopne 0x7d31
    7d31:	00 00                	add    BYTE PTR [rax],al
    7d33:	00 00                	add    BYTE PTR [rax],al
    7d35:	34 4c                	xor    al,0x4c
    7d37:	84 84 84 84 84 4c 34 	test   BYTE PTR [rsp+rax*4+0x344c8484],al
    7d3e:	04 0e                	add    al,0xe
    7d40:	00 00                	add    BYTE PTR [rax],al
    7d42:	00 00                	add    BYTE PTR [rax],al
    7d44:	00 dc                	add    ah,bl
    7d46:	62 42                	(bad)  
    7d48:	40                   	rex
    7d49:	40                   	rex
    7d4a:	40                   	rex
    7d4b:	40                   	rex
    7d4c:	40 e0 00             	rex loopne 0x7d4f
    7d4f:	00 00                	add    BYTE PTR [rax],al
    7d51:	00 00                	add    BYTE PTR [rax],al
    7d53:	00 00                	add    BYTE PTR [rax],al
    7d55:	7a 86                	jp     0x7cdd
    7d57:	82                   	(bad)  
    7d58:	c0 38 06             	sar    BYTE PTR [rax],0x6
    7d5b:	82                   	(bad)  
    7d5c:	c2 bc 00             	ret    0xbc
    7d5f:	00 00                	add    BYTE PTR [rax],al
    7d61:	00 10                	add    BYTE PTR [rax],dl
    7d63:	10 10                	adc    BYTE PTR [rax],dl
    7d65:	7c 10                	jl     0x7d77
    7d67:	10 10                	adc    BYTE PTR [rax],dl
    7d69:	10 10                	adc    BYTE PTR [rax],dl
    7d6b:	10 10                	adc    BYTE PTR [rax],dl
    7d6d:	0e                   	(bad)  
    7d6e:	00 00                	add    BYTE PTR [rax],al
    7d70:	00 00                	add    BYTE PTR [rax],al
    7d72:	00 00                	add    BYTE PTR [rax],al
    7d74:	00 c6                	add    dh,al
    7d76:	42                   	rex.X
    7d77:	42                   	rex.X
    7d78:	42                   	rex.X
    7d79:	42                   	rex.X
    7d7a:	42                   	rex.X
    7d7b:	42                   	rex.X
    7d7c:	46 3b 00             	rex.RX cmp r8d,DWORD PTR [rax]
    7d7f:	00 00                	add    BYTE PTR [rax],al
    7d81:	00 00                	add    BYTE PTR [rax],al
    7d83:	00 00                	add    BYTE PTR [rax],al
    7d85:	e7 42                	out    0x42,eax
    7d87:	42                   	rex.X
    7d88:	42 24 24             	rex.X and al,0x24
    7d8b:	24 18                	and    al,0x18
    7d8d:	18 00                	sbb    BYTE PTR [rax],al
    7d8f:	00 00                	add    BYTE PTR [rax],al
    7d91:	00 00                	add    BYTE PTR [rax],al
    7d93:	00 00                	add    BYTE PTR [rax],al
    7d95:	e7 42                	out    0x42,eax
    7d97:	42 5a                	rex.X pop rdx
    7d99:	5a                   	pop    rdx
    7d9a:	5a                   	pop    rdx
    7d9b:	24 24                	and    al,0x24
    7d9d:	24 00                	and    al,0x0
    7d9f:	00 00                	add    BYTE PTR [rax],al
    7da1:	00 00                	add    BYTE PTR [rax],al
    7da3:	00 00                	add    BYTE PTR [rax],al
    7da5:	c6 44 28 28 10       	mov    BYTE PTR [rax+rbp*1+0x28],0x10
    7daa:	28 28                	sub    BYTE PTR [rax],ch
    7dac:	44 c6 00 00          	rex.R mov BYTE PTR [rax],0x0
    7db0:	00 00                	add    BYTE PTR [rax],al
    7db2:	00 00                	add    BYTE PTR [rax],al
    7db4:	00 e7                	add    bh,ah
    7db6:	42                   	rex.X
    7db7:	42 24 24             	rex.X and al,0x24
    7dba:	24 18                	and    al,0x18
    7dbc:	18 10                	sbb    BYTE PTR [rax],dl
    7dbe:	10 60 00             	adc    BYTE PTR [rax+0x0],ah
    7dc1:	00 00                	add    BYTE PTR [rax],al
    7dc3:	00 00                	add    BYTE PTR [rax],al
    7dc5:	fe 82 84 08 10 20    	inc    BYTE PTR [rdx+0x20100884]
    7dcb:	42 82                	rex.X (bad) 
    7dcd:	fe 00                	inc    BYTE PTR [rax]
    7dcf:	00 00                	add    BYTE PTR [rax],al
    7dd1:	06                   	(bad)  
    7dd2:	08 10                	or     BYTE PTR [rax],dl
    7dd4:	10 10                	adc    BYTE PTR [rax],dl
    7dd6:	10 60 10             	adc    BYTE PTR [rax+0x10],ah
    7dd9:	10 10                	adc    BYTE PTR [rax],dl
    7ddb:	10 08                	adc    BYTE PTR [rax],cl
    7ddd:	06                   	(bad)  
    7dde:	00 00                	add    BYTE PTR [rax],al
    7de0:	10 10                	adc    BYTE PTR [rax],dl
    7de2:	10 10                	adc    BYTE PTR [rax],dl
    7de4:	10 10                	adc    BYTE PTR [rax],dl
    7de6:	10 10                	adc    BYTE PTR [rax],dl
    7de8:	10 10                	adc    BYTE PTR [rax],dl
    7dea:	10 10                	adc    BYTE PTR [rax],dl
    7dec:	10 10                	adc    BYTE PTR [rax],dl
    7dee:	10 10                	adc    BYTE PTR [rax],dl
    7df0:	00 60 10             	add    BYTE PTR [rax+0x10],ah
    7df3:	08 08                	or     BYTE PTR [rax],cl
    7df5:	08 08                	or     BYTE PTR [rax],cl
    7df7:	06                   	(bad)  
    7df8:	08 08                	or     BYTE PTR [rax],cl
    7dfa:	08 08                	or     BYTE PTR [rax],cl
    7dfc:	10 60 00             	adc    BYTE PTR [rax+0x0],ah
    7dff:	00 00                	add    BYTE PTR [rax],al
    7e01:	72 8c                	jb     0x7d8f
    7e0f:	00 ff                	add    bh,bh
    7e11:	ff                   	(bad)  
    7e12:	ff 00                	inc    DWORD PTR [rax]
0x0000000000117e14: red
    7e14:	00 00                	add    BYTE PTR [rax],al
    7e16:	ff 00                	inc    DWORD PTR [rax]
0x0000000000117e18: green
    7e18:	00 ff                	add    bh,bh
    7e1a:	00 00                	add    BYTE PTR [rax],al
0x0000000000117e1c: blue
    7e1c:	ff 00                	inc    DWORD PTR [rax]
    7e1e:	00 00                	add    BYTE PTR [rax],al
0x0000000000117e20: end_of_interrupt
    7e20:	b0 00                	mov    al,0x0
    7e22:	e0 fe                	loopne 0x7e22
    7e24:	00 00                	add    BYTE PTR [rax],al
    7e26:	00 00                	add    BYTE PTR [rax],al
0x0000000000117e28: LVT_Timer
    7e28:	20 03                	and    BYTE PTR [rbx],al
    7e2a:	e0 fe                	loopne 0x7e2a
    7e2c:	00 00                	add    BYTE PTR [rax],al
    7e2e:	00 00                	add    BYTE PTR [rax],al
0x0000000000117e30: Initial_Count
    7e30:	80 03 e0             	add    BYTE PTR [rbx],0xe0
    7e33:	fe 00                	inc    BYTE PTR [rax]
    7e35:	00 00                	add    BYTE PTR [rax],al
    7e37:	00 90 03 e0 fe 00    	add    BYTE PTR [rax+0xfee003],dl
    7e3d:	00 00                	add    BYTE PTR [rax],al
    7e3f:	00 e0                	add    al,ah
    7e41:	03 e0                	add    esp,eax
    7e43:	fe 00                	inc    BYTE PTR [rax]
    7e85:	00 00                	add    BYTE PTR [rax],al
    7e87:	00 66 2e             	add    BYTE PTR [rsi+0x2e],ah
    7e8a:	0f 1f 84 00 00 00 00 	nop    DWORD PTR [rax+rax*1+0x0]
    7e91:	00 
    7e92:	66 2e 0f 1f 84 00 00 	nop    WORD PTR cs:[rax+rax*1+0x0]
    7e99:	00 00 00 
    7e9c:	0f 1f 40 00          	nop    DWORD PTR [rax+0x0]
    83c0:	00 00                	add    BYTE PTR [rax],al
    83c2:	66 0f 1f 44 00 00    	nop    WORD PTR [rax+rax*1+0x0]
    83d0:	66 2e 0f 1f 84 00 00 	nop    WORD PTR cs:[rax+rax*1+0x0]
    83d7:	00 00 00 
    83da:	66 0f 1f 44 00 00    	nop    WORD PTR [rax+rax*1+0x0]
