
Discarded input sections

 .debug_info    0x0000000000000000      0x636 core/kernel.o
 .debug_abbrev  0x0000000000000000      0x14e core/kernel.o
 .debug_aranges
                0x0000000000000000       0x30 core/kernel.o
 .debug_line    0x0000000000000000      0x1bb core/kernel.o
 .debug_str     0x0000000000000000      0x3df core/kernel.o
 .eh_frame      0x0000000000000000       0xc8 core/kernel.o
 .debug_info    0x0000000000000000      0x4de graphics/graphics.o
 .debug_abbrev  0x0000000000000000      0x118 graphics/graphics.o
 .debug_aranges
                0x0000000000000000       0x30 graphics/graphics.o
 .debug_line    0x0000000000000000      0x201 graphics/graphics.o
 .debug_str     0x0000000000000000      0x22b graphics/graphics.o
 .eh_frame      0x0000000000000000       0xc0 graphics/graphics.o
 .debug_info    0x0000000000000000      0x8f0 util/util.o
 .debug_abbrev  0x0000000000000000      0x210 util/util.o
 .debug_aranges
                0x0000000000000000       0x30 util/util.o
 .debug_line    0x0000000000000000      0x2a0 util/util.o
 .debug_str     0x0000000000000000      0x2f7 util/util.o
 .eh_frame      0x0000000000000000      0x330 util/util.o
 .debug_info    0x0000000000000000      0x4e6 init/init_settings.o
 .debug_abbrev  0x0000000000000000      0x13b init/init_settings.o
 .debug_aranges
                0x0000000000000000       0x30 init/init_settings.o
 .debug_line    0x0000000000000000      0x1af init/init_settings.o
 .debug_str     0x0000000000000000      0x336 init/init_settings.o
 .eh_frame      0x0000000000000000       0xe8 init/init_settings.o
 .debug_info    0x0000000000000000       0xef mm/segmentation.o
 .debug_abbrev  0x0000000000000000       0x7e mm/segmentation.o
 .debug_aranges
                0x0000000000000000       0x30 mm/segmentation.o
 .debug_line    0x0000000000000000       0x7b mm/segmentation.o
 .debug_str     0x0000000000000000      0x18c mm/segmentation.o
 .eh_frame      0x0000000000000000       0x38 mm/segmentation.o
 .debug_info    0x0000000000000000       0xdd mm/paging.o
 .debug_abbrev  0x0000000000000000       0x78 mm/paging.o
 .debug_aranges
                0x0000000000000000       0x30 mm/paging.o
 .debug_line    0x0000000000000000       0xc7 mm/paging.o
 .debug_str     0x0000000000000000      0x162 mm/paging.o
 .eh_frame      0x0000000000000000       0x38 mm/paging.o
 .debug_info    0x0000000000000000      0x17c mm/memory.o
 .debug_abbrev  0x0000000000000000       0xb9 mm/memory.o
 .debug_aranges
                0x0000000000000000       0x30 mm/memory.o
 .debug_line    0x0000000000000000       0xa0 mm/memory.o
 .debug_str     0x0000000000000000      0x181 mm/memory.o
 .eh_frame      0x0000000000000000       0x58 mm/memory.o
 .debug_info    0x0000000000000000       0x5d debug/debug.o
 .debug_abbrev  0x0000000000000000       0x26 debug/debug.o
 .debug_aranges
                0x0000000000000000       0x20 debug/debug.o
 .debug_line    0x0000000000000000       0x1d debug/debug.o
 .debug_str     0x0000000000000000      0x126 debug/debug.o
 .debug_info    0x0000000000000000      0x197 interrupt/interrupt.o
 .debug_abbrev  0x0000000000000000       0xe4 interrupt/interrupt.o
 .debug_aranges
                0x0000000000000000       0x30 interrupt/interrupt.o
 .debug_line    0x0000000000000000       0xb3 interrupt/interrupt.o
 .debug_str     0x0000000000000000      0x1be interrupt/interrupt.o
 .eh_frame      0x0000000000000000       0x78 interrupt/interrupt.o
 .debug_info    0x0000000000000000      0x7d1 interrupt/fault_handlers.o
 .debug_abbrev  0x0000000000000000      0x132 interrupt/fault_handlers.o
 .debug_aranges
                0x0000000000000000       0x30 interrupt/fault_handlers.o
 .debug_line    0x0000000000000000      0x38b interrupt/fault_handlers.o
 .debug_str     0x0000000000000000      0x3b2 interrupt/fault_handlers.o
 .eh_frame      0x0000000000000000      0x350 interrupt/fault_handlers.o
 .debug_info    0x0000000000000000      0x4e8 interrupt/user_defined_handlers.o
 .debug_abbrev  0x0000000000000000      0x116 interrupt/user_defined_handlers.o
 .debug_aranges
                0x0000000000000000       0x30 interrupt/user_defined_handlers.o
 .debug_line    0x0000000000000000      0x188 interrupt/user_defined_handlers.o
 .debug_str     0x0000000000000000      0x382 interrupt/user_defined_handlers.o
 .eh_frame      0x0000000000000000      0x158 interrupt/user_defined_handlers.o
 .debug_info    0x0000000000000000      0x333 device/keyinput.o
 .debug_abbrev  0x0000000000000000      0x16d device/keyinput.o
 .debug_aranges
                0x0000000000000000       0x30 device/keyinput.o
 .debug_line    0x0000000000000000      0x250 device/keyinput.o
 .debug_str     0x0000000000000000      0x254 device/keyinput.o
 .eh_frame      0x0000000000000000      0x1c0 device/keyinput.o
 .debug_info    0x0000000000000000      0x58a app/console.o
 .debug_abbrev  0x0000000000000000      0x149 app/console.o
 .debug_aranges
                0x0000000000000000       0x30 app/console.o
 .debug_line    0x0000000000000000      0x1fc app/console.o
 .debug_str     0x0000000000000000      0x397 app/console.o
 .eh_frame      0x0000000000000000       0xd8 app/console.o
 .debug_info    0x0000000000000000      0x647 acpi/acpi.o
 .debug_abbrev  0x0000000000000000      0x15a acpi/acpi.o
 .debug_aranges
                0x0000000000000000       0x30 acpi/acpi.o
 .debug_line    0x0000000000000000      0x15f acpi/acpi.o
 .debug_str     0x0000000000000000      0x425 acpi/acpi.o
 .eh_frame      0x0000000000000000       0x98 acpi/acpi.o
 .debug_info    0x0000000000000000       0xc9 command/echo.o
 .debug_abbrev  0x0000000000000000       0x7b command/echo.o
 .debug_aranges
                0x0000000000000000       0x30 command/echo.o
 .debug_line    0x0000000000000000       0x4d command/echo.o
 .debug_str     0x0000000000000000      0x13d command/echo.o
 .eh_frame      0x0000000000000000       0x38 command/echo.o
 .debug_info    0x0000000000000000      0x116 command/uptime.o
 .debug_abbrev  0x0000000000000000       0xb0 command/uptime.o
 .debug_aranges
                0x0000000000000000       0x30 command/uptime.o
 .debug_line    0x0000000000000000       0x79 command/uptime.o
 .debug_str     0x0000000000000000      0x16a command/uptime.o
 .eh_frame      0x0000000000000000       0x38 command/uptime.o
 .debug_info    0x0000000000000000      0x19f command/sleep.o
 .debug_abbrev  0x0000000000000000       0xde command/sleep.o
 .debug_aranges
                0x0000000000000000       0x30 command/sleep.o
 .debug_line    0x0000000000000000       0xc0 command/sleep.o
 .debug_str     0x0000000000000000      0x1b1 command/sleep.o
 .eh_frame      0x0000000000000000       0x38 command/sleep.o
 .debug_info    0x0000000000000000      0x3af task/thread.o
 .debug_abbrev  0x0000000000000000      0x14a task/thread.o
 .debug_aranges
                0x0000000000000000       0x30 task/thread.o
 .debug_line    0x0000000000000000       0xfa task/thread.o
 .debug_str     0x0000000000000000      0x297 task/thread.o
 .eh_frame      0x0000000000000000       0xd8 task/thread.o

Memory Configuration

Name             Origin             Length             Attributes
HEAD             0x0000000000000000 0x00000000000e1000 xrw
BODY             0x0000000000110000 0x0000000000100000 xrw
*default*        0x0000000000000000 0xffffffffffffffff

Linker script and memory map


.body           0x0000000000110000    0x38050
 *(.text)
 .text          0x0000000000110000      0x5a4 core/kernel.o
                0x0000000000110000                start_kernel
                0x000000000011002a                main_routine
                0x00000000001102c0                task_a
                0x0000000000110376                task_b
                0x000000000011042c                task_c
                0x00000000001104e2                task_input
 .text          0x00000000001105a4      0x70c graphics/graphics.o
                0x00000000001105a4                _draw_dot
                0x000000000011061c                draw_square
                0x00000000001106b9                putchar
                0x00000000001108b8                putstr
                0x0000000000110934                putnum
 .text          0x0000000000110cb0      0xd5b util/util.o
                0x0000000000110cb0                memset
                0x0000000000110cfe                memcpy
                0x0000000000110d5b                pow
                0x0000000000110d9f                gen_buf_u64
                0x0000000000110e05                buf_u64_isempty
                0x0000000000110e2e                buf_u64_isfull
                0x0000000000110e73                enqueue_u64
                0x0000000000110eec                dequeue_u64
                0x0000000000110f68                flush_buf_u64
                0x0000000000110fb2                gen_buf_char
                0x0000000000111034                buf_char_isempty
                0x0000000000111057                buf_char_isfull
                0x0000000000111096                enqueue_char
                0x0000000000111105                dequeue_char
                0x0000000000111176                flush_buf_char
                0x00000000001111b5                flush_array_char
                0x000000000011120c                flush_argv
                0x0000000000111297                comptext
                0x000000000011133f                strncmp
                0x00000000001113c4                sprintf
                0x000000000011142f                u64_to_hexstr
                0x00000000001117f1                demchar_to_u64
                0x0000000000111887                demstr_to_u64
                0x00000000001119c0                null_to_space
 .text          0x0000000000111a0b       0x68 util/util_asm.o
                0x0000000000111a0b                io_cli
                0x0000000000111a0d                io_sti
                0x0000000000111a0f                io_inb
                0x0000000000111a16                io_in32
                0x0000000000111a1d                io_outb
                0x0000000000111a27                io_out32
                0x0000000000111a31                io_rdmsr
                0x0000000000111a3e                io_wrmsr
                0x0000000000111a47                init_irq
                0x0000000000111a6e                send_eoi
 .text          0x0000000000111a73      0x653 init/init_settings.o
                0x0000000000111a73                init_bss
                0x0000000000111acd                init_global_variables
                0x0000000000111b23                init_gdt
                0x0000000000111bb4                init_paging
                0x0000000000111bea                init_graphics
                0x0000000000111c7b                init_interrupt
 .text          0x00000000001120c6       0x53 mm/segmentation.o
                0x00000000001120c6                make_segment_descriptor
 .text          0x0000000000112119      0x129 mm/paging.o
                0x0000000000112119                create_pgtable
 .text          0x0000000000112242      0x13f mm/memory.o
                0x0000000000112242                calc_mem_size
                0x00000000001122a1                calc_mem_size_sub
 .text          0x0000000000112381       0x56 mm/memory_asm.o
                0x0000000000112381                load_cr0
                0x0000000000112385                store_cr0
                0x000000000011238c                load_pgtable
                0x0000000000112397                load_gdt
                0x00000000001123af                set_segment_register
                0x00000000001123d1                main_label
 .text          0x00000000001123d7        0x0 debug/debug.o
 .text          0x00000000001123d7       0x57 debug/debug_asm.o
                0x00000000001123d7                insert_to_reg
                0x00000000001123db                get_cr3
                0x00000000001123df                get_cr4
                0x00000000001123e3                get_efer
                0x00000000001123eb                generate_gp
                0x00000000001123ee                get_general_registers
 .text          0x000000000011242e       0x18 interrupt/load_idt.o
                0x000000000011242e                load_idt
 .text          0x0000000000112446      0x136 interrupt/interrupt.o
                0x0000000000112446                make_gate_descriptor
                0x00000000001124a3                init_pic
                0x000000000011255e                writebyte
 .text          0x000000000011257c     0x18ab interrupt/fault_handlers.o
                0x000000000011257c                de_handler
                0x000000000011268a                db_handler
                0x0000000000112798                nmi_handler
                0x00000000001128a6                bp_handler
                0x0000000000112c25                of_handler
                0x0000000000112d33                br_handler
                0x0000000000112e41                ud_handler
                0x0000000000112f4f                nm_handler
                0x000000000011305d                df_handler
                0x0000000000113189                ts_handler
                0x00000000001132b5                np_handler
                0x00000000001133e1                ss_handler
                0x000000000011350d                gp_handler
                0x0000000000113639                pf_handler
                0x00000000001139d1                mf_handler
                0x0000000000113adf                ac_handler
                0x0000000000113c0b                mc_handler
                0x0000000000113d19                xm_handler
 .text          0x0000000000113e27      0x23f interrupt/user_defined_handlers.o
                0x0000000000113e27                timer_handler
                0x0000000000113ef9                keyboard_handler
                0x0000000000113f69                com1_handler
                0x0000000000113fe0                mouse_handler
                0x000000000011403b                empty_handler
 .text          0x0000000000114066        0x6 device/keyboard.o
                0x0000000000114066                read_kbd_signal
                0x0000000000114069                read_kbd_status
 .text          0x000000000011406c      0xdf1 device/keyinput.o
                0x000000000011406c                init_serial
                0x00000000001140f5                serial_received
                0x000000000011410b                wait_serial_input
                0x0000000000114121                receive_serial_input
                0x0000000000114195                read_serial
                0x00000000001141af                serial_thr_empty
                0x00000000001141c2                write_serial
                0x00000000001141ec                puts_serial
                0x000000000011423f                putnum_serial
                0x0000000000114578                ps2_received
                0x0000000000114593                read_ps2
                0x00000000001145b1                map_scan_to_ascii_set1
                0x0000000000114a07                map_scan_to_ascii_set2
 .text          0x0000000000114e5d      0x5ac app/console.o
                0x0000000000114e5d                readline_serial
                0x0000000000114f6e                readline_ps2
                0x0000000000115097                parse_line
                0x0000000000115173                do_command
                0x0000000000115277                writelines
                0x0000000000115302                console
 .text          0x0000000000115409      0x37c acpi/acpi.o
                0x0000000000115409                get_xsdt_other_table
                0x00000000001154a0                wait_milliseconds
                0x000000000011556d                measure_freq
                0x00000000001155db                init_local_APIC
 .text          0x0000000000115785       0x89 command/echo.o
                0x0000000000115785                echo
 .text          0x000000000011580e       0x50 command/uptime.o
                0x000000000011580e                uptime
 .text          0x000000000011585e       0x95 command/sleep.o
                0x000000000011585e                sleep
 .text          0x00000000001158f3      0x454 task/thread.o
                0x00000000001158f3                thread_gen
                0x00000000001159e0                thread_run
                0x0000000000115a99                thread_end
                0x0000000000115ac7                threads_init
                0x0000000000115b45                schedule_period_init
                0x0000000000115b5f                thread_scheduler
 *fill*         0x0000000000115d47        0x9 
 .text          0x0000000000115d50       0x7b task/thread_asm.o
                0x0000000000115d50                init_stack
                0x0000000000115da0                dispatch
 *(.rodata*)
 *fill*         0x0000000000115dcb        0x5 
 .rodata        0x0000000000115dd0      0x100 core/kernel.o
 .rodata        0x0000000000115ed0      0x1d6 interrupt/fault_handlers.o
 .rodata        0x00000000001160a6       0x4f interrupt/user_defined_handlers.o
 *fill*         0x00000000001160f5        0x3 
 .rodata        0x00000000001160f8     0x1020 device/keyinput.o
 .rodata        0x0000000000117118       0xe4 app/console.o
 .rodata        0x00000000001171fc      0x102 acpi/acpi.o
                0x00000000001171fc                PMTimerFreq
                0x0000000000117200                Max_Count
 .rodata        0x00000000001172fe       0x22 command/echo.o
 .rodata        0x0000000000117320       0x11 command/uptime.o
 .rodata        0x0000000000117331       0x1b command/sleep.o
 *fill*         0x000000000011734c        0x4 
 .rodata        0x0000000000117350       0xc5 task/thread.o
 *(.data*)
 *fill*         0x0000000000117415        0x3 
 .data          0x0000000000117418       0x28 core/kernel.o
                0x0000000000117418                GDT
                0x0000000000117420                PML4
                0x0000000000117428                PDP
                0x0000000000117430                PD
                0x0000000000117438                IDT
 .data          0x0000000000117440      0x600 graphics/graphics.o
                0x0000000000117440                fonts
                0x0000000000117a30                white
                0x0000000000117a34                red
                0x0000000000117a38                green
                0x0000000000117a3c                blue
 .data          0x0000000000117a40        0x0 util/util.o
 .data          0x0000000000117a40        0x0 util/util_asm.o
 .data          0x0000000000117a40        0x0 init/init_settings.o
 .data          0x0000000000117a40        0x0 mm/segmentation.o
 .data          0x0000000000117a40        0x0 mm/paging.o
 .data          0x0000000000117a40        0x0 mm/memory.o
 .data          0x0000000000117a40        0x0 mm/memory_asm.o
 .data          0x0000000000117a40        0x0 debug/debug.o
 .data          0x0000000000117a40        0x0 debug/debug_asm.o
 .data          0x0000000000117a40        0x0 interrupt/load_idt.o
 .data          0x0000000000117a40        0x0 interrupt/interrupt.o
 .data          0x0000000000117a40        0x0 interrupt/fault_handlers.o
 .data          0x0000000000117a40        0x8 interrupt/user_defined_handlers.o
                0x0000000000117a40                end_of_interrupt
 .data          0x0000000000117a48        0x0 device/keyboard.o
 .data          0x0000000000117a48        0x0 device/keyinput.o
 .data          0x0000000000117a48        0x0 app/console.o
 .data          0x0000000000117a48       0x20 acpi/acpi.o
                0x0000000000117a48                LVT_Timer
                0x0000000000117a50                Initial_Count
                0x0000000000117a58                Current_Count
                0x0000000000117a60                Divide_Configuration
 .data          0x0000000000117a68        0x0 command/echo.o
 .data          0x0000000000117a68        0x0 command/uptime.o
 .data          0x0000000000117a68        0x0 command/sleep.o
 .data          0x0000000000117a68        0x0 task/thread.o
 .data          0x0000000000117a68        0x0 task/thread_asm.o
                0x0000000000117a68                __bss_start = .
 *(.bss)
 .bss           0x0000000000117a68       0x34 core/kernel.o
                0x0000000000117a68                vinfo_global
                0x0000000000117a70                rsdp
                0x0000000000117a78                start_mmap
                0x0000000000117a80                mmapsize
                0x0000000000117a88                memdescsize
                0x0000000000117a90                taskcharA
                0x0000000000117a94                taskcharB
                0x0000000000117a98                taskcharC
 .bss           0x0000000000117a9c        0x4 graphics/graphics.o
                0x0000000000117a9c                black
 .bss           0x0000000000117aa0        0x0 util/util.o
 .bss           0x0000000000117aa0        0x0 util/util_asm.o
 .bss           0x0000000000117aa0        0x0 init/init_settings.o
 .bss           0x0000000000117aa0        0x0 mm/segmentation.o
 .bss           0x0000000000117aa0        0x0 mm/paging.o
 .bss           0x0000000000117aa0        0x0 mm/memory.o
 .bss           0x0000000000117aa0        0x0 mm/memory_asm.o
 .bss           0x0000000000117aa0        0x0 debug/debug.o
 .bss           0x0000000000117aa0        0x0 debug/debug_asm.o
 .bss           0x0000000000117aa0        0x0 interrupt/load_idt.o
 .bss           0x0000000000117aa0        0x0 interrupt/interrupt.o
 .bss           0x0000000000117aa0        0x0 interrupt/fault_handlers.o
 .bss           0x0000000000117aa0        0x8 interrupt/user_defined_handlers.o
                0x0000000000117aa0                milli_clock
 .bss           0x0000000000117aa8        0x0 device/keyboard.o
 .bss           0x0000000000117aa8        0x0 device/keyinput.o
 *fill*         0x0000000000117aa8       0x18 
 .bss           0x0000000000117ac0      0x522 app/console.o
                0x0000000000117ac0                args_array
                0x0000000000117ec0                console_argv
                0x0000000000117f40                output
                0x0000000000117f80                keycode
                0x0000000000117f81                oldkeycode
                0x0000000000117f82                shift
                0x0000000000117f84                text_x
                0x0000000000117f88                text_y
                0x0000000000117fa0                text_buf
 *fill*         0x0000000000117fe2        0x6 
 .bss           0x0000000000117fe8        0x8 acpi/acpi.o
                0x0000000000117fe8                lapic_freq
 .bss           0x0000000000117ff0        0x0 command/echo.o
 .bss           0x0000000000117ff0        0x0 command/uptime.o
 .bss           0x0000000000117ff0        0x0 command/sleep.o
 *fill*         0x0000000000117ff0       0x10 
 .bss           0x0000000000118000    0x30050 task/thread.o
                0x0000000000118000                threads
                0x0000000000118038                current_thread_index
                0x0000000000118040                stack0
                0x0000000000120040                stack1
                0x0000000000128040                stack2
                0x0000000000130040                stack3
                0x0000000000138040                stack4
                0x0000000000140040                stack5
                0x0000000000148040                timer_period
                0x0000000000148048                previous_interrupt
 .bss           0x0000000000148050        0x0 task/thread_asm.o
                0x0000000000148050                __bss_end = .

/DISCARD/
 *(.eh_frame)
LOAD core/kernel.o
LOAD graphics/graphics.o
LOAD util/util.o
LOAD util/util_asm.o
LOAD init/init_settings.o
LOAD mm/segmentation.o
LOAD mm/paging.o
LOAD mm/memory.o
LOAD mm/memory_asm.o
LOAD debug/debug.o
LOAD debug/debug_asm.o
LOAD interrupt/load_idt.o
LOAD interrupt/interrupt.o
LOAD interrupt/fault_handlers.o
LOAD interrupt/user_defined_handlers.o
LOAD device/keyboard.o
LOAD device/keyinput.o
LOAD app/console.o
LOAD acpi/acpi.o
LOAD command/echo.o
LOAD command/uptime.o
LOAD command/sleep.o
LOAD task/thread.o
LOAD task/thread_asm.o
OUTPUT(kernel.bin binary)

.comment        0x0000000000000000      0x318
 .comment       0x0000000000000000       0x2c core/kernel.o
 .comment       0x000000000000002c       0x2c graphics/graphics.o
 .comment       0x0000000000000058       0x2c util/util.o
 .comment       0x0000000000000084       0x2c init/init_settings.o
 .comment       0x00000000000000b0       0x2c mm/segmentation.o
 .comment       0x00000000000000dc       0x2c mm/paging.o
 .comment       0x0000000000000108       0x2c mm/memory.o
 .comment       0x0000000000000134       0x2c debug/debug.o
 .comment       0x0000000000000160       0x2c interrupt/interrupt.o
 .comment       0x000000000000018c       0x2c interrupt/fault_handlers.o
 .comment       0x00000000000001b8       0x2c interrupt/user_defined_handlers.o
 .comment       0x00000000000001e4       0x2c device/keyinput.o
 .comment       0x0000000000000210       0x2c app/console.o
 .comment       0x000000000000023c       0x2c acpi/acpi.o
 .comment       0x0000000000000268       0x2c command/echo.o
 .comment       0x0000000000000294       0x2c command/uptime.o
 .comment       0x00000000000002c0       0x2c command/sleep.o
 .comment       0x00000000000002ec       0x2c task/thread.o

.note.GNU-stack
                0x0000000000000000        0x0
 .note.GNU-stack
                0x0000000000000000        0x0 core/kernel.o
 .note.GNU-stack
                0x0000000000000000        0x0 graphics/graphics.o
 .note.GNU-stack
                0x0000000000000000        0x0 util/util.o
 .note.GNU-stack
                0x0000000000000000        0x0 init/init_settings.o
 .note.GNU-stack
                0x0000000000000000        0x0 mm/segmentation.o
 .note.GNU-stack
                0x0000000000000000        0x0 mm/paging.o
 .note.GNU-stack
                0x0000000000000000        0x0 mm/memory.o
 .note.GNU-stack
                0x0000000000000000        0x0 debug/debug.o
 .note.GNU-stack
                0x0000000000000000        0x0 interrupt/interrupt.o
 .note.GNU-stack
                0x0000000000000000        0x0 interrupt/fault_handlers.o
 .note.GNU-stack
                0x0000000000000000        0x0 interrupt/user_defined_handlers.o
 .note.GNU-stack
                0x0000000000000000        0x0 device/keyinput.o
 .note.GNU-stack
                0x0000000000000000        0x0 app/console.o
 .note.GNU-stack
                0x0000000000000000        0x0 acpi/acpi.o
 .note.GNU-stack
                0x0000000000000000        0x0 command/echo.o
 .note.GNU-stack
                0x0000000000000000        0x0 command/uptime.o
 .note.GNU-stack
                0x0000000000000000        0x0 command/sleep.o
 .note.GNU-stack
                0x0000000000000000        0x0 task/thread.o
