
Discarded input sections

 .eh_frame      0x0000000000000000       0x38 core/kernel.o
 .eh_frame      0x0000000000000000       0x98 graphics/graphics.o
 .eh_frame      0x0000000000000000       0x38 init/gdt.o
 .eh_frame      0x0000000000000000       0x38 init/bss.o
 .eh_frame      0x0000000000000000       0x38 mm/segmentation.o
 .eh_frame      0x0000000000000000       0x38 mm/init_pgtable.o

Memory Configuration

Name             Origin             Length             Attributes
HEAD             0x0000000000000000 0x00000000000e1000 xrw
BODY             0x0000000000110000 0x0000000000100000 xrw
*default*        0x0000000000000000 0xffffffffffffffff

Linker script and memory map


.body           0x0000000000110000     0x7040
 *(.text)
 .text          0x0000000000110000      0x1ce core/kernel.o
                0x0000000000110000                start_kernel
 .text          0x00000000001101ce      0x387 graphics/graphics.o
                0x00000000001101ce                _draw_dot
                0x0000000000110242                draw_square
                0x00000000001102df                putchar
                0x00000000001104d9                putstr
 .text          0x0000000000110555       0x55 init/gdt.o
                0x0000000000110555                init_gdt
 .text          0x00000000001105aa       0x54 init/bss.o
                0x00000000001105aa                init_bss
 .text          0x00000000001105fe      0x21f mm/segmentation.o
                0x00000000001105fe                set_segm_descriptor
 .text          0x000000000011081d       0x12 mm/load_gdt.o
                0x000000000011081d                load_gdt
 .text          0x000000000011082f      0x16e mm/init_pgtable.o
                0x000000000011082f                init_pgtable
 .text          0x000000000011099d        0xb mm/init_cr3.o
                0x000000000011099d                init_cr3
 .text          0x00000000001109a8       0x2e mm/change_4lv_pg.o
                0x00000000001109a8                change_4lv_pg
 *(.rodata*)
 *fill*         0x00000000001109d6        0x2 
 .rodata        0x00000000001109d8       0x4e core/kernel.o
 *(.data*)
 .data          0x0000000000110a26        0x0 core/kernel.o
 *fill*         0x0000000000110a26       0x1a 
 .data          0x0000000000110a40      0x5f0 graphics/graphics.o
                0x0000000000110a40                fonts
 .data          0x0000000000111030        0x0 init/gdt.o
 .data          0x0000000000111030        0x0 init/bss.o
 .data          0x0000000000111030        0x0 mm/segmentation.o
 .data          0x0000000000111030        0x0 mm/load_gdt.o
 .data          0x0000000000111030        0x0 mm/init_pgtable.o
 .data          0x0000000000111030        0x0 mm/init_cr3.o
 .data          0x0000000000111030        0x0 mm/change_4lv_pg.o
                0x0000000000111030                __bss_start = .
 *(.bss)
 .bss           0x0000000000111030        0x0 core/kernel.o
 .bss           0x0000000000111030        0x0 graphics/graphics.o
 .bss           0x0000000000111030        0x0 init/gdt.o
 .bss           0x0000000000111030        0x0 init/bss.o
 .bss           0x0000000000111030        0x0 mm/segmentation.o
 .bss           0x0000000000111030        0x0 mm/load_gdt.o
 *fill*         0x0000000000111030       0x10 
 .bss           0x0000000000111040     0x6000 mm/init_pgtable.o
                0x0000000000111040                pml4
                0x0000000000112040                pdp
                0x0000000000113040                pd
 .bss           0x0000000000117040        0x0 mm/init_cr3.o
 .bss           0x0000000000117040        0x0 mm/change_4lv_pg.o
                0x0000000000117040                __bss_end = .

/DISCARD/
 *(.eh_frame)
LOAD core/kernel.o
LOAD graphics/graphics.o
LOAD init/gdt.o
LOAD init/bss.o
LOAD mm/segmentation.o
LOAD mm/load_gdt.o
LOAD mm/init_pgtable.o
LOAD mm/init_cr3.o
LOAD mm/change_4lv_pg.o
OUTPUT(kernel.bin binary)

.comment        0x0000000000000000      0x108
 .comment       0x0000000000000000       0x2c core/kernel.o
 .comment       0x000000000000002c       0x2c graphics/graphics.o
 .comment       0x0000000000000058       0x2c init/gdt.o
 .comment       0x0000000000000084       0x2c init/bss.o
 .comment       0x00000000000000b0       0x2c mm/segmentation.o
 .comment       0x00000000000000dc       0x2c mm/init_pgtable.o

.note.GNU-stack
                0x0000000000000000        0x0
 .note.GNU-stack
                0x0000000000000000        0x0 core/kernel.o
 .note.GNU-stack
                0x0000000000000000        0x0 graphics/graphics.o
 .note.GNU-stack
                0x0000000000000000        0x0 init/gdt.o
 .note.GNU-stack
                0x0000000000000000        0x0 init/bss.o
 .note.GNU-stack
                0x0000000000000000        0x0 mm/segmentation.o
 .note.GNU-stack
                0x0000000000000000        0x0 mm/init_pgtable.o
